
demo.elf:     file format elf32-littlenios2
demo.elf
architecture: nios2, flags 0x00000112:
EXEC_P, HAS_SYMS, D_PAGED
start address 0x000101b8

Program Header:
    LOAD off    0x00001000 vaddr 0x00010000 paddr 0x00010000 align 2**12
         filesz 0x00000020 memsz 0x00000020 flags r-x
    LOAD off    0x00001020 vaddr 0x00010020 paddr 0x00010020 align 2**12
         filesz 0x00009290 memsz 0x00009290 flags r-x
    LOAD off    0x0000a2b0 vaddr 0x000192b0 paddr 0x000198b8 align 2**12
         filesz 0x00000608 memsz 0x00000608 flags rw-
    LOAD off    0x0000aec0 vaddr 0x00019ec0 paddr 0x00019ec0 align 2**12
         filesz 0x00000000 memsz 0x000002e0 flags rw-

Sections:
Idx Name          Size      VMA       LMA       File off  Algn
  0 .entry        00000020  00010000  00010000  00001000  2**5
                  CONTENTS, ALLOC, LOAD, READONLY, CODE
  1 .exceptions   00000198  00010020  00010020  00001020  2**2
                  CONTENTS, ALLOC, LOAD, READONLY, CODE
  2 .text         00008990  000101b8  000101b8  000011b8  2**2
                  CONTENTS, ALLOC, LOAD, READONLY, CODE
  3 .rodata       00000768  00018b48  00018b48  00009b48  2**2
                  CONTENTS, ALLOC, LOAD, READONLY, DATA
  4 .rwdata       00000608  000192b0  000198b8  0000a2b0  2**2
                  CONTENTS, ALLOC, LOAD, DATA, SMALL_DATA
  5 .bss          000002e0  00019ec0  00019ec0  0000aec0  2**2
                  ALLOC, SMALL_DATA
  6 .comment      00000023  00000000  00000000  0000a8b8  2**0
                  CONTENTS, READONLY
  7 .debug_aranges 00000cb0  00000000  00000000  0000a8e0  2**3
                  CONTENTS, READONLY, DEBUGGING
  8 .debug_info   000128d4  00000000  00000000  0000b590  2**0
                  CONTENTS, READONLY, DEBUGGING
  9 .debug_abbrev 000071d0  00000000  00000000  0001de64  2**0
                  CONTENTS, READONLY, DEBUGGING
 10 .debug_line   00006d46  00000000  00000000  00025034  2**0
                  CONTENTS, READONLY, DEBUGGING
 11 .debug_frame  00001560  00000000  00000000  0002bd7c  2**2
                  CONTENTS, READONLY, DEBUGGING
 12 .debug_str    000026eb  00000000  00000000  0002d2dc  2**0
                  CONTENTS, READONLY, DEBUGGING
 13 .debug_loc    00007595  00000000  00000000  0002f9c7  2**0
                  CONTENTS, READONLY, DEBUGGING
 14 .debug_alt_sim_info 00000020  00000000  00000000  00036f5c  2**2
                  CONTENTS, READONLY, DEBUGGING
 15 .debug_ranges 000005d0  00000000  00000000  00036f80  2**3
                  CONTENTS, READONLY, DEBUGGING
 16 .thread_model 00000003  00000000  00000000  00039fb4  2**0
                  CONTENTS, READONLY
 17 .cpu          00000003  00000000  00000000  00039fb7  2**0
                  CONTENTS, READONLY
 18 .qsys         00000001  00000000  00000000  00039fba  2**0
                  CONTENTS, READONLY
 19 .simulation_enabled 00000001  00000000  00000000  00039fbb  2**0
                  CONTENTS, READONLY
 20 .sysid_hash   00000004  00000000  00000000  00039fbc  2**0
                  CONTENTS, READONLY
 21 .sysid_base   00000004  00000000  00000000  00039fc0  2**0
                  CONTENTS, READONLY
 22 .sysid_time   00000004  00000000  00000000  00039fc4  2**0
                  CONTENTS, READONLY
 23 .stderr_dev   00000009  00000000  00000000  00039fc8  2**0
                  CONTENTS, READONLY
 24 .stdin_dev    00000009  00000000  00000000  00039fd1  2**0
                  CONTENTS, READONLY
 25 .stdout_dev   00000009  00000000  00000000  00039fda  2**0
                  CONTENTS, READONLY
 26 .sopc_system_name 0000000b  00000000  00000000  00039fe3  2**0
                  CONTENTS, READONLY
 27 .quartus_project_dir 00000015  00000000  00000000  00039fee  2**0
                  CONTENTS, READONLY
 28 .sopcinfo     000754b8  00000000  00000000  0003a003  2**0
                  CONTENTS, READONLY
SYMBOL TABLE:
00010000 l    d  .entry	00000000 .entry
00010020 l    d  .exceptions	00000000 .exceptions
000101b8 l    d  .text	00000000 .text
00018b48 l    d  .rodata	00000000 .rodata
000192b0 l    d  .rwdata	00000000 .rwdata
00019ec0 l    d  .bss	00000000 .bss
00000000 l    d  .comment	00000000 .comment
00000000 l    d  .debug_aranges	00000000 .debug_aranges
00000000 l    d  .debug_info	00000000 .debug_info
00000000 l    d  .debug_abbrev	00000000 .debug_abbrev
00000000 l    d  .debug_line	00000000 .debug_line
00000000 l    d  .debug_frame	00000000 .debug_frame
00000000 l    d  .debug_str	00000000 .debug_str
00000000 l    d  .debug_loc	00000000 .debug_loc
00000000 l    d  .debug_alt_sim_info	00000000 .debug_alt_sim_info
00000000 l    d  .debug_ranges	00000000 .debug_ranges
00000000 l    df *ABS*	00000000 ../demo_bsp//obj/HAL/src/crt0.o
000101f0 l       .text	00000000 alt_after_alt_main
00000000 l    df *ABS*	00000000 alt_exception_entry.o
00010094 l       .exceptions	00000000 alt_exception_unknown
00000000 l    df *ABS*	00000000 alt_irq_handler.c
00000000 l    df *ABS*	00000000 ad.c
00000000 l    df *ABS*	00000000 ad9833.c
00010584 l     F .text	00000038 AD9833_Delay
00000000 l    df *ABS*	00000000 fft.c
00000000 l    df *ABS*	00000000 hello_world.c
00018c50 l     O .rodata	0000000a __FUNCTION__.3635
00018c44 l     O .rodata	00000009 __FUNCTION__.3655
00019888 l     O .rwdata	00000005 __FUNCTION__.3660
00000000 l    df *ABS*	00000000 log.c
00000000 l    df *ABS*	00000000 message.c
00000000 l    df *ABS*	00000000 uart.c
00011fd8 l     F .text	00000050 uart_send_byte
00012028 l     F .text	0000006c uart_send_string
00012094 l     F .text	0000006c uart_init
00012438 l     F .text	00000090 set_baudrate
00012100 l     F .text	00000070 uart_input_init
000124c8 l     F .text	00000090 set_baudrate_input
00012170 l     F .text	00000070 uart_output_init
00012558 l     F .text	00000090 set_baudrate_output
000121e0 l     F .text	00000088 uart_ISR
00012268 l     F .text	000000e8 uart_input_ISR
00012350 l     F .text	000000e8 uart_output_ISR
00000000 l    df *ABS*	00000000 s_cos.c
00000000 l    df *ABS*	00000000 s_sin.c
00000000 l    df *ABS*	00000000 e_rem_pio2.c
00018d50 l     O .rodata	00000108 two_over_pi
00018cd0 l     O .rodata	00000080 npio2_hw
00000000 l    df *ABS*	00000000 k_cos.c
00000000 l    df *ABS*	00000000 k_rem_pio2.c
00018e58 l     O .rodata	00000010 init_jk
00018e68 l     O .rodata	00000040 PIo2
00000000 l    df *ABS*	00000000 k_sin.c
00000000 l    df *ABS*	00000000 s_fabs.c
00000000 l    df *ABS*	00000000 s_floor.c
00000000 l    df *ABS*	00000000 s_scalbn.c
00000000 l    df *ABS*	00000000 s_copysign.c
00000000 l    df *ABS*	00000000 libgcc2.c
00000000 l    df *ABS*	00000000 fp-bit.c
000148d8 l     F .text	000001f4 _fpadd_parts
00000000 l    df *ABS*	00000000 fp-bit.c
00000000 l    df *ABS*	00000000 fp-bit.c
00000000 l    df *ABS*	00000000 fp-bit.c
00000000 l    df *ABS*	00000000 fp-bit.c
00000000 l    df *ABS*	00000000 fp-bit.c
00000000 l    df *ABS*	00000000 fp-bit.c
00000000 l    df *ABS*	00000000 fp-bit.c
00014fc8 l     F .text	00000354 _fpadd_parts
00000000 l    df *ABS*	00000000 fp-bit.c
00000000 l    df *ABS*	00000000 fp-bit.c
00000000 l    df *ABS*	00000000 fp-bit.c
00000000 l    df *ABS*	00000000 fp-bit.c
00000000 l    df *ABS*	00000000 fp-bit.c
00000000 l    df *ABS*	00000000 fp-bit.c
00000000 l    df *ABS*	00000000 fp-bit.c
00000000 l    df *ABS*	00000000 fp-bit.c
00000000 l    df *ABS*	00000000 fp-bit.c
00000000 l    df *ABS*	00000000 fp-bit.c
00000000 l    df *ABS*	00000000 fp-bit.c
00000000 l    df *ABS*	00000000 lib2-divmod.c
00015ce8 l     F .text	00000074 udivmodsi4
00000000 l    df *ABS*	00000000 libgcc2.c
00000000 l    df *ABS*	00000000 libgcc2.c
00000000 l    df *ABS*	00000000 fp-bit.c
00000000 l    df *ABS*	00000000 fp-bit.c
00000000 l    df *ABS*	00000000 fp-bit.c
00000000 l    df *ABS*	00000000 fp-bit.c
00000000 l    df *ABS*	00000000 fp-bit.c
00000000 l    df *ABS*	00000000 fp-bit.c
00000000 l    df *ABS*	00000000 libgcc2.c
00000000 l    df *ABS*	00000000 libgcc2.c
00000000 l    df *ABS*	00000000 libgcc2.c
00000000 l    df *ABS*	00000000 atoi.c
00000000 l    df *ABS*	00000000 memcpy.c
00000000 l    df *ABS*	00000000 memset.c
00000000 l    df *ABS*	00000000 printf.c
00000000 l    df *ABS*	00000000 putchar.c
00000000 l    df *ABS*	00000000 puts.c
00000000 l    df *ABS*	00000000 sprintf.c
00000000 l    df *ABS*	00000000 strchr.c
00000000 l    df *ABS*	00000000 strlen.c
00000000 l    df *ABS*	00000000 strstr.c
00000000 l    df *ABS*	00000000 strtol.c
00000000 l    df *ABS*	00000000 vfprintf.c
00000000 l    df *ABS*	00000000 ctype_.c
000190d1 l     O .rodata	00000180 _ctype_b
00000000 l    df *ABS*	00000000 fvwrite_small_dev.c
00000000 l    df *ABS*	00000000 fvwrite_small_str.c
00000000 l    df *ABS*	00000000 impure.c
00019550 l     O .rwdata	000000e0 impure_data
00000000 l    df *ABS*	00000000 memmove.c
00000000 l    df *ABS*	00000000 putc.c
00000000 l    df *ABS*	00000000 writer.c
00000000 l    df *ABS*	00000000 int_errno.c
00000000 l    df *ABS*	00000000 alt_exit.c
00000000 l    df *ABS*	00000000 alt_iic.c
00000000 l    df *ABS*	00000000 alt_iic_isr_register.c
00000000 l    df *ABS*	00000000 alt_irq_vars.c
00000000 l    df *ABS*	00000000 alt_load.c
000178d8 l     F .text	0000006c alt_load_section
00000000 l    df *ABS*	00000000 alt_main.c
00000000 l    df *ABS*	00000000 alt_write.c
00017a2c l     F .text	00000050 alt_get_errno
00000000 l    df *ABS*	00000000 alt_sys_init.c
00017b68 l     F .text	00000038 alt_dev_reg
00019630 l     O .rwdata	0000002c JTAG_UART
0001965c l     O .rwdata	0000002c UART
00019688 l     O .rwdata	0000002c uart_input
000196b4 l     O .rwdata	0000002c uart_output
00000000 l    df *ABS*	00000000 altera_avalon_jtag_uart_fd.c
00000000 l    df *ABS*	00000000 altera_avalon_jtag_uart_read.c
00000000 l    df *ABS*	00000000 altera_avalon_jtag_uart_write.c
00000000 l    df *ABS*	00000000 altera_avalon_uart_fd.c
00000000 l    df *ABS*	00000000 altera_avalon_uart_read.c
00017f38 l     F .text	00000050 alt_get_errno
00000000 l    df *ABS*	00000000 altera_avalon_uart_write.c
00018048 l     F .text	00000050 alt_get_errno
00000000 l    df *ABS*	00000000 alt_close.c
00018174 l     F .text	00000050 alt_get_errno
00000000 l    df *ABS*	00000000 alt_dcache_flush_all.c
00000000 l    df *ABS*	00000000 alt_dev.c
000182a8 l     F .text	0000002c alt_dev_null_write
00000000 l    df *ABS*	00000000 alt_dev_llist_insert.c
000182d4 l     F .text	00000050 alt_get_errno
00000000 l    df *ABS*	00000000 alt_errno.c
00000000 l    df *ABS*	00000000 alt_icache_flush_all.c
00000000 l    df *ABS*	00000000 alt_io_redirect.c
000183f4 l     F .text	000000c0 alt_open_fd
00000000 l    df *ABS*	00000000 alt_open.c
0001852c l     F .text	00000050 alt_get_errno
0001857c l     F .text	000000cc alt_file_locked
00000000 l    df *ABS*	00000000 alt_release_fd.c
00000000 l    df *ABS*	00000000 altera_nios2_qsys_irq.c
00000000 l    df *ABS*	00000000 alt_find_dev.c
00000000 l    df *ABS*	00000000 alt_find_file.c
00000000 l    df *ABS*	00000000 alt_get_fd.c
00000000 l    df *ABS*	00000000 alt_icache_flush.c
00000000 l    df *ABS*	00000000 memcmp.c
00000000 l    df *ABS*	00000000 
000166b4 g     F .text	0000001c putchar
000105bc g     F .text	00000154 AD9833_Write
000179c4 g     F .text	00000068 alt_main
00016580 g     F .text	00000044 __ashldi3
000166d0 g     F .text	00000080 _puts_r
0001a0a0 g     O .bss	00000100 alt_irq
000144a0 g     F .text	00000014 fabs
000198b8 g       *ABS*	00000000 __flash_rwdata_start
00015868 g     F .text	0000005c __eqdf2
00016660 g     F .text	0000004c printf
0001a004 g     O .bss	00000018 Result
000102d0 g     F .text	0000014c ReadAdRes
00014d00 g     F .text	0000013c __divsf3
00017450 g     F .text	0000005c memmove
00014ee0 g     F .text	000000a4 __fixsfsi
000158c4 g     F .text	00000064 __gtdf2
00000000  w      *UND*	00000000 __errno
00019ff0 g     O .bss	00000014 ReceiveMessage
0001737c g     F .text	000000d4 __sfvwrite_small_str
00010000 g     F .entry	0000001c __reset
00019fd8 g     O .bss	00000018 FInfo
00010020 g       *ABS*	00000000 __flash_exceptions_start
00019ec4 g     O .bss	00000004 errno
00015b34 g     F .text	00000038 __make_dp
000144b4 g     F .text	000001f0 floor
00016118 g     F .text	0000002c __make_fp
00019ed0 g     O .bss	00000004 alt_argv
00021888 g       *ABS*	00000000 _gp
00014b18 g     F .text	00000058 __subsf3
00019f58 g     O .bss	00000080 output
00019708 g     O .rwdata	00000180 alt_fd_list
000127c4 g     F .text	000007b8 __ieee754_rem_pio2
000166ac g     F .text	00000008 _putchar_r
00019470 g     O .rwdata	000000e0 uart_output
0001881c g     F .text	00000090 alt_find_dev
000165dc g     F .text	00000028 memcpy
00010558 g     F .text	0000002c AD9833_Init_GPIO
0001598c g     F .text	000000d4 __floatsidf
000184b4 g     F .text	00000078 alt_io_redirect
00016750 g     F .text	00000014 puts
00017cec g     F .text	000000f4 altera_avalon_jtag_uart_read
00016624 g     F .text	0000003c _printf_r
00015e08 g     F .text	00000008 __udivsi3
00012f7c g     F .text	000004a4 __kernel_cos
00014854 g     F .text	00000084 __fixunsdfsi
00018a74 g     F .text	0000008c alt_icache_flush
00019ed8 g     O .bss	00000080 input
000198b0 g     O .rwdata	00000004 alt_max_fd
00016368 g     F .text	00000104 __unpack_d
00011ad0 g     F .text	00000294 log_hex
000141cc g     F .text	000002d4 __kernel_sin
00014f84 g     F .text	00000044 __extendsfdf2
0001531c g     F .text	00000054 __adddf3
00011120 g     F .text	00000028 getBeginMessge
00019894 g     O .rwdata	00000004 _global_impure_ptr
0001a1a0 g       *ABS*	00000000 __bss_end
000177e8 g     F .text	000000f0 alt_iic_isr_register
00015bcc g     F .text	0000011c __floatunsidf
00019890 g     O .rwdata	00000004 __ctype_ptr
00010de0 g     F .text	00000340 FFT
0001779c g     F .text	0000004c alt_ic_irq_enabled
00016b90 g     F .text	00000024 strtol
00019ec8 g     O .bss	00000004 alt_irq_active
00010c20 g     F .text	000001c0 FFT_remap
000100ec g     F .exceptions	000000cc alt_irq_handler
000196e0 g     O .rwdata	00000028 alt_dev_null
00010958 g     F .text	00000088 Sub_Complex
00013420 g     F .text	00000dac __kernel_rem_pio2
00016050 g     F .text	000000c8 __unpack_f
0001828c g     F .text	0000001c alt_dcache_flush_all
00015a60 g     F .text	000000d4 __fixdfsi
000198b8 g       *ABS*	00000000 __ram_rwdata_end
000198a8 g     O .rwdata	00000008 alt_dev_list
00017a7c g     F .text	000000ec write
00017508 g     F .text	00000060 _putc_r
000192b0 g       *ABS*	00000000 __ram_rodata_end
0001653c g     F .text	00000044 __lshrdi3
00011148 g     F .text	000002d0 setDDSFre
00015e10 g     F .text	00000008 __umodsi3
0001a1a0 g       *ABS*	00000000 end
00015f24 g     F .text	0000012c __pack_f
000165d0 g     F .text	0000000c _atoi_r
00018098 g     F .text	000000dc altera_avalon_uart_write
0001cf08 g       *ABS*	00000000 __alt_stack_pointer
00017ed8 g     F .text	00000060 altera_avalon_uart_write_fd
00015e78 g     F .text	000000ac __clzsi2
0001041c g     F .text	0000013c computeAd
00017de0 g     F .text	00000098 altera_avalon_jtag_uart_write
000125e8 g     F .text	000000ec cos
00016bb4 g     F .text	000006c4 ___vfprintf_internal_r
00016764 g     F .text	00000068 _sprintf_r
00011418 g     F .text	00000028 testIsOver
000101b8 g     F .text	0000003c _start
000168c4 g     F .text	00000068 strstr
000126d4 g     F .text	000000f0 sin
00017bd4 g     F .text	00000058 alt_sys_init
00014e3c g     F .text	000000a4 __floatsisf
00011d64 g     F .text	00000054 getStartMessge
000192b0 g       *ABS*	00000000 __ram_rwdata_start
00018b48 g       *ABS*	00000000 __ram_rodata_start
00017c2c g     F .text	00000060 altera_avalon_jtag_uart_read_fd
000189c0 g     F .text	000000b4 alt_get_fd
0001646c g     F .text	000000d0 __fpcmp_parts_d
00018b00 g     F .text	00000048 memcmp
0001a1a0 g       *ABS*	00000000 __alt_stack_base
000116f0 g     F .text	00000060 init
000156b4 g     F .text	000001b4 __divdf3
00011db8 g     F .text	00000220 parseMessage
000153d0 g     F .text	000002e4 __muldf3
00018ea8 g     O .rodata	00000010 __thenan_sf
000188ac g     F .text	00000114 alt_find_file
00018324 g     F .text	000000a0 alt_dev_llist_insert
000101f4 g     F .text	000000dc parseAdData
0001729c g     F .text	000000e0 __sfvwrite_small_dev
00019ec0 g       *ABS*	00000000 __bss_start
00016604 g     F .text	00000020 memset
00011884 g     F .text	00000210 main
00010000 g       *ABS*	00000000 __alt_mem_RAM
00019ed4 g     O .bss	00000004 alt_envp
00017c8c g     F .text	00000060 altera_avalon_jtag_uart_write_fd
0001692c g     F .text	00000264 _strtol_r
00015b6c g     F .text	00000060 __truncdfsf2
000198b4 g     O .rwdata	00000004 alt_errno
000174ac g     F .text	0000005c putc
00015d5c g     F .text	00000050 __divsi3
00018eb8 g     O .rodata	00000014 __thenan_df
00014b70 g     F .text	00000190 __mulsf3
00018b48 g       *ABS*	00000000 __flash_rodata_start
00014838 g     F .text	0000001c copysign
00011a94 g     F .text	0000003c delay
000109e0 g     F .text	00000100 Multy_Complex
00017ba0 g     F .text	00000034 alt_irq_init
0001879c g     F .text	00000060 alt_release_fd
000167cc g     F .text	0000007c sprintf
00018ecc g     O .rodata	00000100 __clz_tab
00017568 g     F .text	0000006c _write_r
00019898 g     O .rwdata	00000004 _impure_ptr
00019ecc g     O .bss	00000004 alt_argc
00010ae0 g     F .text	00000140 getWN
000146a4 g     F .text	00000194 scalbn
00010020 g       .exceptions	00000000 alt_irq_entry
00019390 g     O .rwdata	000000e0 uart_input
000198a0 g     O .rwdata	00000008 alt_fs_list
000114ec g     F .text	000001bc sendMessage
00011750 g     F .text	0000002c show
0001a01c g     O .bss	00000041 outputData
00010020 g       *ABS*	00000000 __ram_exceptions_start
0001177c g     F .text	00000108 msg_proc
00017610 g     F .text	00000050 alt_ic_isr_register
000108d0 g     F .text	00000088 Add_Complex
000198b8 g       *ABS*	00000000 _edata
00017e78 g     F .text	00000060 altera_avalon_uart_read_fd
0001a1a0 g       *ABS*	00000000 _end
000101b8 g       *ABS*	00000000 __ram_exceptions_end
000176fc g     F .text	000000a0 alt_ic_irq_disable
000187fc g     F .text	00000020 altera_nios2_qsys_irq_init
000116a8 g     F .text	00000048 sampleIsReady
00015dac g     F .text	0000005c __modsi3
0001cf08 g       *ABS*	00000000 __alt_data_end
00010020 g     F .exceptions	00000000 alt_exception
000192b0 g     O .rwdata	000000e0 uart
000165c4 g     F .text	0000000c atoi
00018fd0 g     O .rodata	00000101 _ctype_
000175d4 g     F .text	0000003c _exit
00015e18 g     F .text	00000060 __muldi3
0001689c g     F .text	00000028 strlen
00018648 g     F .text	00000154 open
00015928 g     F .text	00000064 __gedf2
00011440 g     F .text	000000ac beginFFT
000183c4 g     F .text	00000030 alt_icache_flush_all
00016848 g     F .text	00000054 strchr
0001989c g     O .rwdata	00000004 alt_priority_mask
00017660 g     F .text	0000009c alt_ic_irq_enable
00010710 g     F .text	000001c0 AD9833_WaveSeting
00017278 g     F .text	00000024 __vfprintf_internal
00017f88 g     F .text	000000c0 altera_avalon_uart_read
00015370 g     F .text	00000060 __subdf3
0001a05d g     O .bss	00000041 inputData
000181c4 g     F .text	000000c8 close
00014acc g     F .text	0000004c __addsf3
00017944 g     F .text	00000080 alt_load
00016144 g     F .text	00000224 __pack_d
00019ec0 g     O .bss	00000004 value



Disassembly of section .entry:

00010000 <__reset>:
#if NIOS2_ICACHE_SIZE > 0 && defined(ALT_ALLOW_CODE_AT_RESET) && !defined(ALT_SIM_OPTIMIZE)
    /* Assume the instruction cache size is always a power of two. */
#if NIOS2_ICACHE_SIZE > 0x8000
    movhi r2, %hi(NIOS2_ICACHE_SIZE)
#else
    movui r2, NIOS2_ICACHE_SIZE
   10000:	00840014 	movui	r2,4096
#endif

0:
    initi r2
   10004:	1001483a 	initi	r2
    addi r2, r2, -NIOS2_ICACHE_LINE_SIZE
   10008:	10bff804 	addi	r2,r2,-32
    bgt r2, zero, 0b
   1000c:	00bffd16 	blt	zero,r2,10004 <__reset+0x4>
 * Jump to the _start entry point in the .text section if reset code
 * is allowed or if optimizing for RTL simulation.
 */
#if defined(ALT_ALLOW_CODE_AT_RESET) || defined(ALT_SIM_OPTIMIZE)
    /* Jump to the _start entry point in the .text section. */
    movhi r1, %hi(_start)
   10010:	00400074 	movhi	at,1
    ori r1, r1, %lo(_start)
   10014:	08406e14 	ori	at,at,440
    jmp r1
   10018:	0800683a 	jmp	at
   1001c:	00000000 	call	0 <__alt_mem_RAM-0x10000>

Disassembly of section .exceptions:

00010020 <alt_exception>:

#else /* ALT_EXCEPTION_STACK disabled */
        /* 
         * Reserve space on normal stack for registers about to be pushed.
         */
        addi  sp, sp, -76
   10020:	deffed04 	addi	sp,sp,-76
         * documentation for details).
         *
         * Leave a gap in the stack frame at 4(sp) for the muldiv handler to
         * store zero into.
         */
        stw   ra,  0(sp)
   10024:	dfc00015 	stw	ra,0(sp)
        stw   r1,   8(sp)
   10028:	d8400215 	stw	at,8(sp)
        stw   r2,  12(sp)
   1002c:	d8800315 	stw	r2,12(sp)
        stw   r3,  16(sp)
   10030:	d8c00415 	stw	r3,16(sp)
        stw   r4,  20(sp)
   10034:	d9000515 	stw	r4,20(sp)
        stw   r5,  24(sp)
   10038:	d9400615 	stw	r5,24(sp)
        stw   r6,  28(sp)
   1003c:	d9800715 	stw	r6,28(sp)
        stw   r7,  32(sp)
   10040:	d9c00815 	stw	r7,32(sp)
        rdctl r5, estatus   /* Read early to avoid usage stall */
   10044:	000b307a 	rdctl	r5,estatus
        stw   r8,  36(sp)
   10048:	da000915 	stw	r8,36(sp)
        stw   r9,  40(sp)
   1004c:	da400a15 	stw	r9,40(sp)
        stw   r10, 44(sp)
   10050:	da800b15 	stw	r10,44(sp)
        stw   r11, 48(sp)
   10054:	dac00c15 	stw	r11,48(sp)
        stw   r12, 52(sp)
   10058:	db000d15 	stw	r12,52(sp)
        stw   r13, 56(sp)
   1005c:	db400e15 	stw	r13,56(sp)
        stw   r14, 60(sp)
   10060:	db800f15 	stw	r14,60(sp)
        stw   r15, 64(sp)
   10064:	dbc01015 	stw	r15,64(sp)
        /*
         * ea-4 contains the address of the instruction being executed
         * when the exception occured. For interrupt exceptions, we will
         * will be re-issue the isntruction. Store it in 72(sp)
         */
        stw   r5,  68(sp)  /* estatus */
   10068:	d9401115 	stw	r5,68(sp)
        addi  r15, ea, -4  /* instruction that caused exception */
   1006c:	ebffff04 	addi	r15,ea,-4
        stw   r15,  72(sp)
   10070:	dbc01215 	stw	r15,72(sp)
#else
        /*
         * Test to see if the exception was a software exception or caused 
         * by an external interrupt, and vector accordingly.
         */
        rdctl r4, ipending
   10074:	0009313a 	rdctl	r4,ipending
        andi  r2, r5, 1
   10078:	2880004c 	andi	r2,r5,1
        beq   r2, zero, .Lnot_irq
   1007c:	10000326 	beq	r2,zero,1008c <alt_exception+0x6c>
        beq   r4, zero, .Lnot_irq
   10080:	20000226 	beq	r4,zero,1008c <alt_exception+0x6c>
        /*
         * Now that all necessary registers have been preserved, call 
         * alt_irq_handler() to process the interrupts.
         */

        call alt_irq_handler
   10084:	00100ec0 	call	100ec <alt_irq_handler>

        .section .exceptions.irqreturn, "xa"

        br    .Lexception_exit
   10088:	00000306 	br	10098 <alt_exception_unknown+0x4>
         * upon completion, so we write ea (address of instruction *after*
         * the one where the exception occured) into 72(sp). The actual
         * instruction that caused the exception is written in r2, which these
         * handlers will utilize.
         */
        stw   ea,  72(sp)  /* Don't re-issue */
   1008c:	df401215 	stw	ea,72(sp)
        ldw   r2, -4(ea)   /* Instruction that caused exception */
   10090:	e8bfff17 	ldw	r2,-4(ea)

00010094 <alt_exception_unknown>:
#ifdef NIOS2_HAS_DEBUG_STUB
       /*
        *  Either tell the user now (if there is a debugger attached) or go into
        *  the debug monitor which will loop until a debugger is attached.
        */
        break
   10094:	003da03a 	break	0
        /* 
         * Restore the saved registers, so that all general purpose registers 
         * have been restored to their state at the time the interrupt occured.
         */

        ldw   r5,  68(sp)
   10098:	d9401117 	ldw	r5,68(sp)
        ldw   ea,  72(sp)  /* This becomes the PC once eret is executed */
   1009c:	df401217 	ldw	ea,72(sp)
        ldw   ra,   0(sp)
   100a0:	dfc00017 	ldw	ra,0(sp)

        wrctl estatus, r5
   100a4:	2801707a 	wrctl	estatus,r5

        ldw   r1,   8(sp)
   100a8:	d8400217 	ldw	at,8(sp)
        ldw   r2,  12(sp)
   100ac:	d8800317 	ldw	r2,12(sp)
        ldw   r3,  16(sp)
   100b0:	d8c00417 	ldw	r3,16(sp)
        ldw   r4,  20(sp)
   100b4:	d9000517 	ldw	r4,20(sp)
        ldw   r5,  24(sp)
   100b8:	d9400617 	ldw	r5,24(sp)
        ldw   r6,  28(sp)
   100bc:	d9800717 	ldw	r6,28(sp)
        ldw   r7,  32(sp)
   100c0:	d9c00817 	ldw	r7,32(sp)

#if defined(ALT_EXCEPTION_STACK) && defined(ALT_STACK_CHECK)
        ldw   et, %gprel(alt_exception_old_stack_limit)(gp)
#endif

        ldw   r8,  36(sp)
   100c4:	da000917 	ldw	r8,36(sp)
        ldw   r9,  40(sp)
   100c8:	da400a17 	ldw	r9,40(sp)
        ldw   r10, 44(sp)
   100cc:	da800b17 	ldw	r10,44(sp)
        ldw   r11, 48(sp)
   100d0:	dac00c17 	ldw	r11,48(sp)
        ldw   r12, 52(sp)
   100d4:	db000d17 	ldw	r12,52(sp)
        ldw   r13, 56(sp)
   100d8:	db400e17 	ldw	r13,56(sp)
        ldw   r14, 60(sp)
   100dc:	db800f17 	ldw	r14,60(sp)
        ldw   r15, 64(sp)
   100e0:	dbc01017 	ldw	r15,64(sp)
        stw   et, %gprel(alt_stack_limit_value)(gp)
        stw   zero, %gprel(alt_exception_old_stack_limit)(gp)
#endif /* ALT_STACK_CHECK */
        ldw   sp,  76(sp)
#else /* ALT_EXCEPTION_STACK disabled */
        addi  sp, sp, 76
   100e4:	dec01304 	addi	sp,sp,76

        /*
         * Return to the interrupted instruction.
         */

        eret
   100e8:	ef80083a 	eret

000100ec <alt_irq_handler>:
 * instruction is present if the macro ALT_CI_INTERRUPT_VECTOR defined.
 */

void alt_irq_handler (void) __attribute__ ((section (".exceptions")));
void alt_irq_handler (void)
{
   100ec:	defff904 	addi	sp,sp,-28
   100f0:	dfc00615 	stw	ra,24(sp)
   100f4:	df000515 	stw	fp,20(sp)
   100f8:	df000504 	addi	fp,sp,20
  
  /*
   * Notify the operating system that we are at interrupt level.
   */ 
  
  ALT_OS_INT_ENTER();
   100fc:	0001883a 	nop
#ifndef NIOS2_EIC_PRESENT
static ALT_INLINE alt_u32 ALT_ALWAYS_INLINE alt_irq_pending (void)
{
  alt_u32 active;

  NIOS2_READ_IPENDING (active);
   10100:	0005313a 	rdctl	r2,ipending
   10104:	e0bffe15 	stw	r2,-8(fp)

  return active;
   10108:	e0bffe17 	ldw	r2,-8(fp)
   * Consider the case where the high priority interupt is asserted during
   * the interrupt entry sequence for a lower priority interrupt to see why
   * this is the case.
   */

  active = alt_irq_pending ();
   1010c:	e0bffb15 	stw	r2,-20(fp)

  do
  {
    i = 0;
   10110:	e03ffd15 	stw	zero,-12(fp)
    mask = 1;
   10114:	00800044 	movi	r2,1
   10118:	e0bffc15 	stw	r2,-16(fp)
     * called to clear the interrupt condition.
     */

    do
    {
      if (active & mask)
   1011c:	e0fffb17 	ldw	r3,-20(fp)
   10120:	e0bffc17 	ldw	r2,-16(fp)
   10124:	1884703a 	and	r2,r3,r2
   10128:	10001726 	beq	r2,zero,10188 <alt_irq_handler+0x9c>
      { 
#ifdef ALT_ENHANCED_INTERRUPT_API_PRESENT
        alt_irq[i].handler(alt_irq[i].context); 
   1012c:	00c000b4 	movhi	r3,2
   10130:	18e82804 	addi	r3,r3,-24416
   10134:	e0bffd17 	ldw	r2,-12(fp)
   10138:	100490fa 	slli	r2,r2,3
   1013c:	1885883a 	add	r2,r3,r2
   10140:	10c00017 	ldw	r3,0(r2)
   10144:	010000b4 	movhi	r4,2
   10148:	21282804 	addi	r4,r4,-24416
   1014c:	e0bffd17 	ldw	r2,-12(fp)
   10150:	100490fa 	slli	r2,r2,3
   10154:	2085883a 	add	r2,r4,r2
   10158:	10800104 	addi	r2,r2,4
   1015c:	10800017 	ldw	r2,0(r2)
   10160:	1009883a 	mov	r4,r2
   10164:	183ee83a 	callr	r3
#else
        alt_irq[i].handler(alt_irq[i].context, i); 
#endif
        break;
   10168:	0001883a 	nop
#ifndef NIOS2_EIC_PRESENT
static ALT_INLINE alt_u32 ALT_ALWAYS_INLINE alt_irq_pending (void)
{
  alt_u32 active;

  NIOS2_READ_IPENDING (active);
   1016c:	0005313a 	rdctl	r2,ipending
   10170:	e0bfff15 	stw	r2,-4(fp)

  return active;
   10174:	e0bfff17 	ldw	r2,-4(fp)
      mask <<= 1;
      i++;

    } while (1);

    active = alt_irq_pending ();
   10178:	e0bffb15 	stw	r2,-20(fp)
    
  } while (active);
   1017c:	e0bffb17 	ldw	r2,-20(fp)
   10180:	103fe31e 	bne	r2,zero,10110 <alt_irq_handler+0x24>

  /*
   * Notify the operating system that interrupt processing is complete.
   */ 

  ALT_OS_INT_EXIT();
   10184:	00000706 	br	101a4 <alt_irq_handler+0xb8>
#else
        alt_irq[i].handler(alt_irq[i].context, i); 
#endif
        break;
      }
      mask <<= 1;
   10188:	e0bffc17 	ldw	r2,-16(fp)
   1018c:	1085883a 	add	r2,r2,r2
   10190:	e0bffc15 	stw	r2,-16(fp)
      i++;
   10194:	e0bffd17 	ldw	r2,-12(fp)
   10198:	10800044 	addi	r2,r2,1
   1019c:	e0bffd15 	stw	r2,-12(fp)

    } while (1);
   101a0:	003fde06 	br	1011c <alt_irq_handler+0x30>
  /*
   * Notify the operating system that interrupt processing is complete.
   */ 

  ALT_OS_INT_EXIT();
}
   101a4:	e037883a 	mov	sp,fp
   101a8:	dfc00117 	ldw	ra,4(sp)
   101ac:	df000017 	ldw	fp,0(sp)
   101b0:	dec00204 	addi	sp,sp,8
   101b4:	f800283a 	ret

Disassembly of section .text:

000101b8 <_start>:

    /*
     * Now that the caches are initialized, set up the stack pointer and global pointer.
     * The values provided by the linker are assumed to be correctly aligned.
     */
    movhi sp, %hi(__alt_stack_pointer)
   101b8:	06c00074 	movhi	sp,1
    ori sp, sp, %lo(__alt_stack_pointer)
   101bc:	def3c214 	ori	sp,sp,53000
    movhi gp, %hi(_gp)
   101c0:	068000b4 	movhi	gp,2
    ori gp, gp, %lo(_gp)
   101c4:	d6862214 	ori	gp,gp,6280
 */
#ifndef ALT_SIM_OPTIMIZE
    /* Log that the BSS is about to be cleared. */
    ALT_LOG_PUTS(alt_log_msg_bss)

    movhi r2, %hi(__bss_start)
   101c8:	00800074 	movhi	r2,1
    ori r2, r2, %lo(__bss_start)
   101cc:	10a7b014 	ori	r2,r2,40640

    movhi r3, %hi(__bss_end)
   101d0:	00c00074 	movhi	r3,1
    ori r3, r3, %lo(__bss_end)
   101d4:	18e86814 	ori	r3,r3,41376

    beq r2, r3, 1f
   101d8:	10c00326 	beq	r2,r3,101e8 <_start+0x30>

0:
    stw zero, (r2)
   101dc:	10000015 	stw	zero,0(r2)
    addi r2, r2, 4
   101e0:	10800104 	addi	r2,r2,4
    bltu r2, r3, 0b
   101e4:	10fffd36 	bltu	r2,r3,101dc <_start+0x24>
     * section aren't defined until alt_load() has been called).
     */
    mov   et, zero
#endif

    call alt_load
   101e8:	00179440 	call	17944 <alt_load>

    /* Log that alt_main is about to be called. */
    ALT_LOG_PUTS(alt_log_msg_alt_main)

    /* Call the C entry point. It should never return. */
    call alt_main
   101ec:	00179c40 	call	179c4 <alt_main>

000101f0 <alt_after_alt_main>:

    /* Wait in infinite loop in case alt_main does return. */
alt_after_alt_main:
    br alt_after_alt_main
   101f0:	003fff06 	br	101f0 <alt_after_alt_main>

000101f4 <parseAdData>:

#include "ad.h"
#include "log.h"

void parseAdData(float *input, unsigned char * source)
{
   101f4:	defff704 	addi	sp,sp,-36
   101f8:	dfc00815 	stw	ra,32(sp)
   101fc:	df000715 	stw	fp,28(sp)
   10200:	dc000615 	stw	r16,24(sp)
   10204:	df000604 	addi	fp,sp,24
   10208:	e13ffe15 	stw	r4,-8(fp)
   1020c:	e17fff15 	stw	r5,-4(fp)
	int i;
	int j = 0;
   10210:	e03ffb15 	stw	zero,-20(fp)
//	int data = 0;
//	LOG_DEBUG("data:");
	for (i = 0; i < 32; i ++)
   10214:	e03ffa15 	stw	zero,-24(fp)
   10218:	00002406 	br	102ac <parseAdData+0xb8>
	{
		unsigned char low = source[j];
   1021c:	e0bffb17 	ldw	r2,-20(fp)
   10220:	e0ffff17 	ldw	r3,-4(fp)
   10224:	1885883a 	add	r2,r3,r2
   10228:	10800003 	ldbu	r2,0(r2)
   1022c:	e0bffc05 	stb	r2,-16(fp)
		unsigned char high = source[j+1];
   10230:	e0bffb17 	ldw	r2,-20(fp)
   10234:	10800044 	addi	r2,r2,1
   10238:	e0ffff17 	ldw	r3,-4(fp)
   1023c:	1885883a 	add	r2,r3,r2
   10240:	10800003 	ldbu	r2,0(r2)
   10244:	e0bffc45 	stb	r2,-15(fp)
		unsigned int result = high;
   10248:	e0bffc43 	ldbu	r2,-15(fp)
   1024c:	e0bffd15 	stw	r2,-12(fp)
		result = result << 8;
   10250:	e0bffd17 	ldw	r2,-12(fp)
   10254:	1004923a 	slli	r2,r2,8
   10258:	e0bffd15 	stw	r2,-12(fp)
		result = result | low;
   1025c:	e0bffc03 	ldbu	r2,-16(fp)
   10260:	e0fffd17 	ldw	r3,-12(fp)
   10264:	1884b03a 	or	r2,r3,r2
   10268:	e0bffd15 	stw	r2,-12(fp)
		input[i] = computeAd(result);
   1026c:	e0bffa17 	ldw	r2,-24(fp)
   10270:	1085883a 	add	r2,r2,r2
   10274:	1085883a 	add	r2,r2,r2
   10278:	e0fffe17 	ldw	r3,-8(fp)
   1027c:	18a1883a 	add	r16,r3,r2
   10280:	e0bffd17 	ldw	r2,-12(fp)
   10284:	1009883a 	mov	r4,r2
   10288:	001041c0 	call	1041c <computeAd>
   1028c:	1007883a 	mov	r3,r2
   10290:	80c00015 	stw	r3,0(r16)
		j += 2;
   10294:	e0bffb17 	ldw	r2,-20(fp)
   10298:	10800084 	addi	r2,r2,2
   1029c:	e0bffb15 	stw	r2,-20(fp)
{
	int i;
	int j = 0;
//	int data = 0;
//	LOG_DEBUG("data:");
	for (i = 0; i < 32; i ++)
   102a0:	e0bffa17 	ldw	r2,-24(fp)
   102a4:	10800044 	addi	r2,r2,1
   102a8:	e0bffa15 	stw	r2,-24(fp)
   102ac:	e0bffa17 	ldw	r2,-24(fp)
   102b0:	10800810 	cmplti	r2,r2,32
   102b4:	103fd91e 	bne	r2,zero,1021c <parseAdData+0x28>
		j += 2;
//		data = input[i] * 1000;
//		printf("%d ", data);
	}
//	printf("\r\n");
}
   102b8:	e037883a 	mov	sp,fp
   102bc:	dfc00217 	ldw	ra,8(sp)
   102c0:	df000117 	ldw	fp,4(sp)
   102c4:	dc000017 	ldw	r16,0(sp)
   102c8:	dec00304 	addi	sp,sp,12
   102cc:	f800283a 	ret

000102d0 <ReadAdRes>:
 * 调用函数可读取AD转换结果（二补数），并返回其真实值
 * 参数说明：
 * BASE为相应AD模块数据位链接的并行IO口的基地址
 */
float ReadAdRes(int BASE)
{
   102d0:	defffa04 	addi	sp,sp,-24
   102d4:	dfc00515 	stw	ra,20(sp)
   102d8:	df000415 	stw	fp,16(sp)
   102dc:	df000404 	addi	fp,sp,16
   102e0:	e13fff15 	stw	r4,-4(fp)
    float Res = 0;                              //待计算的AD结果
   102e4:	e03ffc15 	stw	zero,-16(fp)
	int databits = 0;                           //AD结果数值位
   102e8:	e03ffd15 	stw	zero,-12(fp)
	int DVolt = 0;                              //ADC得到二补数结果
   102ec:	e03ffe15 	stw	zero,-8(fp)
	DVolt = IORD_ALTERA_AVALON_PIO_DATA(BASE);
   102f0:	e0bfff17 	ldw	r2,-4(fp)
   102f4:	10800037 	ldwio	r2,0(r2)
   102f8:	e0bffe15 	stw	r2,-8(fp)
	databits = DVolt & 0x7FF;
   102fc:	e0bffe17 	ldw	r2,-8(fp)
   10300:	1081ffcc 	andi	r2,r2,2047
   10304:	e0bffd15 	stw	r2,-12(fp)
	if(0x800==(DVolt & 0x800))
   10308:	e0bffe17 	ldw	r2,-8(fp)
   1030c:	1082000c 	andi	r2,r2,2048
   10310:	10001f26 	beq	r2,zero,10390 <ReadAdRes+0xc0>
	{
		Res = (databits - 0x800)/4095.0*10;
   10314:	e0bffd17 	ldw	r2,-12(fp)
   10318:	10be0004 	addi	r2,r2,-2048
   1031c:	1009883a 	mov	r4,r2
   10320:	001598c0 	call	1598c <__floatsidf>
   10324:	100b883a 	mov	r5,r2
   10328:	180d883a 	mov	r6,r3
   1032c:	2809883a 	mov	r4,r5
   10330:	300b883a 	mov	r5,r6
   10334:	000d883a 	mov	r6,zero
   10338:	01d02c34 	movhi	r7,16560
   1033c:	39ff8004 	addi	r7,r7,-512
   10340:	00156b40 	call	156b4 <__divdf3>
   10344:	1009883a 	mov	r4,r2
   10348:	180b883a 	mov	r5,r3
   1034c:	2005883a 	mov	r2,r4
   10350:	2807883a 	mov	r3,r5
   10354:	1009883a 	mov	r4,r2
   10358:	180b883a 	mov	r5,r3
   1035c:	000d883a 	mov	r6,zero
   10360:	01d00934 	movhi	r7,16420
   10364:	00153d00 	call	153d0 <__muldf3>
   10368:	1009883a 	mov	r4,r2
   1036c:	180b883a 	mov	r5,r3
   10370:	2005883a 	mov	r2,r4
   10374:	2807883a 	mov	r3,r5
   10378:	1009883a 	mov	r4,r2
   1037c:	180b883a 	mov	r5,r3
   10380:	0015b6c0 	call	15b6c <__truncdfsf2>
   10384:	1007883a 	mov	r3,r2
   10388:	e0fffc15 	stw	r3,-16(fp)
   1038c:	00001c06 	br	10400 <ReadAdRes+0x130>
	}
	else
	{
		Res = (databits)/4095.0*10;
   10390:	e13ffd17 	ldw	r4,-12(fp)
   10394:	001598c0 	call	1598c <__floatsidf>
   10398:	100b883a 	mov	r5,r2
   1039c:	180d883a 	mov	r6,r3
   103a0:	2809883a 	mov	r4,r5
   103a4:	300b883a 	mov	r5,r6
   103a8:	000d883a 	mov	r6,zero
   103ac:	01d02c34 	movhi	r7,16560
   103b0:	39ff8004 	addi	r7,r7,-512
   103b4:	00156b40 	call	156b4 <__divdf3>
   103b8:	1009883a 	mov	r4,r2
   103bc:	180b883a 	mov	r5,r3
   103c0:	2005883a 	mov	r2,r4
   103c4:	2807883a 	mov	r3,r5
   103c8:	1009883a 	mov	r4,r2
   103cc:	180b883a 	mov	r5,r3
   103d0:	000d883a 	mov	r6,zero
   103d4:	01d00934 	movhi	r7,16420
   103d8:	00153d00 	call	153d0 <__muldf3>
   103dc:	1009883a 	mov	r4,r2
   103e0:	180b883a 	mov	r5,r3
   103e4:	2005883a 	mov	r2,r4
   103e8:	2807883a 	mov	r3,r5
   103ec:	1009883a 	mov	r4,r2
   103f0:	180b883a 	mov	r5,r3
   103f4:	0015b6c0 	call	15b6c <__truncdfsf2>
   103f8:	1007883a 	mov	r3,r2
   103fc:	e0fffc15 	stw	r3,-16(fp)
	}
	return Res;
   10400:	e0fffc17 	ldw	r3,-16(fp)
   10404:	1805883a 	mov	r2,r3
}
   10408:	e037883a 	mov	sp,fp
   1040c:	dfc00117 	ldw	ra,4(sp)
   10410:	df000017 	ldw	fp,0(sp)
   10414:	dec00204 	addi	sp,sp,8
   10418:	f800283a 	ret

0001041c <computeAd>:

float computeAd(int adValue)
{
   1041c:	defffb04 	addi	sp,sp,-20
   10420:	dfc00415 	stw	ra,16(sp)
   10424:	df000315 	stw	fp,12(sp)
   10428:	df000304 	addi	fp,sp,12
   1042c:	e13fff15 	stw	r4,-4(fp)
	float Res = 0;                              //待计算的AD结果
   10430:	e03ffd15 	stw	zero,-12(fp)
	int databits = 0;                           //AD结果数值位
   10434:	e03ffe15 	stw	zero,-8(fp)

	databits = adValue & 0x7FF;
   10438:	e0bfff17 	ldw	r2,-4(fp)
   1043c:	1081ffcc 	andi	r2,r2,2047
   10440:	e0bffe15 	stw	r2,-8(fp)
	if(0x800==(adValue & 0x800))
   10444:	e0bfff17 	ldw	r2,-4(fp)
   10448:	1082000c 	andi	r2,r2,2048
   1044c:	10001f26 	beq	r2,zero,104cc <computeAd+0xb0>
	{
		Res = (databits - 0x800)/4095.0*10;
   10450:	e0bffe17 	ldw	r2,-8(fp)
   10454:	10be0004 	addi	r2,r2,-2048
   10458:	1009883a 	mov	r4,r2
   1045c:	001598c0 	call	1598c <__floatsidf>
   10460:	100b883a 	mov	r5,r2
   10464:	180d883a 	mov	r6,r3
   10468:	2809883a 	mov	r4,r5
   1046c:	300b883a 	mov	r5,r6
   10470:	000d883a 	mov	r6,zero
   10474:	01d02c34 	movhi	r7,16560
   10478:	39ff8004 	addi	r7,r7,-512
   1047c:	00156b40 	call	156b4 <__divdf3>
   10480:	1009883a 	mov	r4,r2
   10484:	180b883a 	mov	r5,r3
   10488:	2005883a 	mov	r2,r4
   1048c:	2807883a 	mov	r3,r5
   10490:	1009883a 	mov	r4,r2
   10494:	180b883a 	mov	r5,r3
   10498:	000d883a 	mov	r6,zero
   1049c:	01d00934 	movhi	r7,16420
   104a0:	00153d00 	call	153d0 <__muldf3>
   104a4:	1009883a 	mov	r4,r2
   104a8:	180b883a 	mov	r5,r3
   104ac:	2005883a 	mov	r2,r4
   104b0:	2807883a 	mov	r3,r5
   104b4:	1009883a 	mov	r4,r2
   104b8:	180b883a 	mov	r5,r3
   104bc:	0015b6c0 	call	15b6c <__truncdfsf2>
   104c0:	1007883a 	mov	r3,r2
   104c4:	e0fffd15 	stw	r3,-12(fp)
   104c8:	00001c06 	br	1053c <computeAd+0x120>
	}
	else
	{
		Res = (databits)/4095.0*10;
   104cc:	e13ffe17 	ldw	r4,-8(fp)
   104d0:	001598c0 	call	1598c <__floatsidf>
   104d4:	100b883a 	mov	r5,r2
   104d8:	180d883a 	mov	r6,r3
   104dc:	2809883a 	mov	r4,r5
   104e0:	300b883a 	mov	r5,r6
   104e4:	000d883a 	mov	r6,zero
   104e8:	01d02c34 	movhi	r7,16560
   104ec:	39ff8004 	addi	r7,r7,-512
   104f0:	00156b40 	call	156b4 <__divdf3>
   104f4:	1009883a 	mov	r4,r2
   104f8:	180b883a 	mov	r5,r3
   104fc:	2005883a 	mov	r2,r4
   10500:	2807883a 	mov	r3,r5
   10504:	1009883a 	mov	r4,r2
   10508:	180b883a 	mov	r5,r3
   1050c:	000d883a 	mov	r6,zero
   10510:	01d00934 	movhi	r7,16420
   10514:	00153d00 	call	153d0 <__muldf3>
   10518:	1009883a 	mov	r4,r2
   1051c:	180b883a 	mov	r5,r3
   10520:	2005883a 	mov	r2,r4
   10524:	2807883a 	mov	r3,r5
   10528:	1009883a 	mov	r4,r2
   1052c:	180b883a 	mov	r5,r3
   10530:	0015b6c0 	call	15b6c <__truncdfsf2>
   10534:	1007883a 	mov	r3,r2
   10538:	e0fffd15 	stw	r3,-12(fp)
	}
	return Res;
   1053c:	e0fffd17 	ldw	r3,-12(fp)
   10540:	1805883a 	mov	r2,r3
}
   10544:	e037883a 	mov	sp,fp
   10548:	dfc00117 	ldw	ra,4(sp)
   1054c:	df000017 	ldw	fp,0(sp)
   10550:	dec00204 	addi	sp,sp,8
   10554:	f800283a 	ret

00010558 <AD9833_Init_GPIO>:
#define DAT_1()		value = value | 0b001; IOWR_ALTERA_AVALON_PIO_DATA(DDS_BASE, value )

//初始化AD9833 GPIO

void AD9833_Init_GPIO()
{
   10558:	deffff04 	addi	sp,sp,-4
   1055c:	df000015 	stw	fp,0(sp)
   10560:	d839883a 	mov	fp,sp
//    RCC_APB2PeriphClockCmd(RCC_APB2Periph_GPIOB, ENABLE);
//    GPIO_InitStructure.GPIO_Pin = PIN_FSYNC|PIN_SCK|PIN_DAT;
//    GPIO_InitStructure.GPIO_Speed = GPIO_Speed_50MHz;
//    GPIO_InitStructure.GPIO_Mode = GPIO_Mode_Out_PP;
//    GPIO_Init(PORT_SCK, &GPIO_InitStructure);
	IOWR_ALTERA_AVALON_PIO_DIRECTION(DDS_BASE, 0x0);
   10564:	0007883a 	mov	r3,zero
   10568:	008000b4 	movhi	r2,2
   1056c:	10841904 	addi	r2,r2,4196
   10570:	10c00035 	stwio	r3,0(r2)
}
   10574:	e037883a 	mov	sp,fp
   10578:	df000017 	ldw	fp,0(sp)
   1057c:	dec00104 	addi	sp,sp,4
   10580:	f800283a 	ret

00010584 <AD9833_Delay>:
*	形    参: 无
*	返 回 值: 无
*********************************************************************************************************
*/
static void AD9833_Delay(void)
{
   10584:	defffe04 	addi	sp,sp,-8
   10588:	df000115 	stw	fp,4(sp)
   1058c:	df000104 	addi	fp,sp,4
	int i;
	for (i = 0; i < 1; i++);
   10590:	e03fff15 	stw	zero,-4(fp)
   10594:	00000306 	br	105a4 <AD9833_Delay+0x20>
   10598:	e0bfff17 	ldw	r2,-4(fp)
   1059c:	10800044 	addi	r2,r2,1
   105a0:	e0bfff15 	stw	r2,-4(fp)
   105a4:	e0bfff17 	ldw	r2,-4(fp)
   105a8:	00bffb0e 	bge	zero,r2,10598 <AD9833_Delay+0x14>
}
   105ac:	e037883a 	mov	sp,fp
   105b0:	df000017 	ldw	fp,0(sp)
   105b4:	dec00104 	addi	sp,sp,4
   105b8:	f800283a 	ret

000105bc <AD9833_Write>:
*	形    参: TxData : 数据
*	返 回 值: 无
*********************************************************************************************************
*/
void AD9833_Write(unsigned int TxData)
{
   105bc:	defffc04 	addi	sp,sp,-16
   105c0:	dfc00315 	stw	ra,12(sp)
   105c4:	df000215 	stw	fp,8(sp)
   105c8:	df000204 	addi	fp,sp,8
   105cc:	e13fff15 	stw	r4,-4(fp)
	unsigned char i;

	SCK_1();
   105d0:	d0a18e17 	ldw	r2,-31176(gp)
   105d4:	10800094 	ori	r2,r2,2
   105d8:	d0a18e15 	stw	r2,-31176(gp)
   105dc:	d0e18e17 	ldw	r3,-31176(gp)
   105e0:	008000b4 	movhi	r2,2
   105e4:	10841804 	addi	r2,r2,4192
   105e8:	10c00035 	stwio	r3,0(r2)
	//AD9833_Delay();
	FSYNC_1();
   105ec:	d0a18e17 	ldw	r2,-31176(gp)
   105f0:	10800114 	ori	r2,r2,4
   105f4:	d0a18e15 	stw	r2,-31176(gp)
   105f8:	d0e18e17 	ldw	r3,-31176(gp)
   105fc:	008000b4 	movhi	r2,2
   10600:	10841804 	addi	r2,r2,4192
   10604:	10c00035 	stwio	r3,0(r2)
	AD9833_Delay();
   10608:	00105840 	call	10584 <AD9833_Delay>
	FSYNC_0();
   1060c:	d0a18e17 	ldw	r2,-31176(gp)
   10610:	108000cc 	andi	r2,r2,3
   10614:	d0a18e15 	stw	r2,-31176(gp)
   10618:	d0e18e17 	ldw	r3,-31176(gp)
   1061c:	008000b4 	movhi	r2,2
   10620:	10841804 	addi	r2,r2,4192
   10624:	10c00035 	stwio	r3,0(r2)
	AD9833_Delay();
   10628:	00105840 	call	10584 <AD9833_Delay>
	for(i = 0; i < 16; i++)
   1062c:	e03ffe05 	stb	zero,-8(fp)
   10630:	00002806 	br	106d4 <AD9833_Write+0x118>
	{
		if (TxData & 0x8000)
   10634:	e0bfff17 	ldw	r2,-4(fp)
   10638:	10a0000c 	andi	r2,r2,32768
   1063c:	10000826 	beq	r2,zero,10660 <AD9833_Write+0xa4>
		{
			DAT_1();
   10640:	d0a18e17 	ldw	r2,-31176(gp)
   10644:	10800054 	ori	r2,r2,1
   10648:	d0a18e15 	stw	r2,-31176(gp)
   1064c:	d0e18e17 	ldw	r3,-31176(gp)
   10650:	008000b4 	movhi	r2,2
   10654:	10841804 	addi	r2,r2,4192
   10658:	10c00035 	stwio	r3,0(r2)
   1065c:	00000706 	br	1067c <AD9833_Write+0xc0>
		}
		else
		{
			DAT_0();
   10660:	d0a18e17 	ldw	r2,-31176(gp)
   10664:	1080018c 	andi	r2,r2,6
   10668:	d0a18e15 	stw	r2,-31176(gp)
   1066c:	d0e18e17 	ldw	r3,-31176(gp)
   10670:	008000b4 	movhi	r2,2
   10674:	10841804 	addi	r2,r2,4192
   10678:	10c00035 	stwio	r3,0(r2)
		}

		AD9833_Delay();
   1067c:	00105840 	call	10584 <AD9833_Delay>
		SCK_0();
   10680:	d0a18e17 	ldw	r2,-31176(gp)
   10684:	1080014c 	andi	r2,r2,5
   10688:	d0a18e15 	stw	r2,-31176(gp)
   1068c:	d0e18e17 	ldw	r3,-31176(gp)
   10690:	008000b4 	movhi	r2,2
   10694:	10841804 	addi	r2,r2,4192
   10698:	10c00035 	stwio	r3,0(r2)
		AD9833_Delay();
   1069c:	00105840 	call	10584 <AD9833_Delay>
		SCK_1();
   106a0:	d0a18e17 	ldw	r2,-31176(gp)
   106a4:	10800094 	ori	r2,r2,2
   106a8:	d0a18e15 	stw	r2,-31176(gp)
   106ac:	d0e18e17 	ldw	r3,-31176(gp)
   106b0:	008000b4 	movhi	r2,2
   106b4:	10841804 	addi	r2,r2,4192
   106b8:	10c00035 	stwio	r3,0(r2)

		TxData <<= 1;
   106bc:	e0bfff17 	ldw	r2,-4(fp)
   106c0:	1085883a 	add	r2,r2,r2
   106c4:	e0bfff15 	stw	r2,-4(fp)
	//AD9833_Delay();
	FSYNC_1();
	AD9833_Delay();
	FSYNC_0();
	AD9833_Delay();
	for(i = 0; i < 16; i++)
   106c8:	e0bffe03 	ldbu	r2,-8(fp)
   106cc:	10800044 	addi	r2,r2,1
   106d0:	e0bffe05 	stb	r2,-8(fp)
   106d4:	e0bffe03 	ldbu	r2,-8(fp)
   106d8:	10800430 	cmpltui	r2,r2,16
   106dc:	103fd51e 	bne	r2,zero,10634 <AD9833_Write+0x78>
		AD9833_Delay();
		SCK_1();

		TxData <<= 1;
	}
	FSYNC_1();
   106e0:	d0a18e17 	ldw	r2,-31176(gp)
   106e4:	10800114 	ori	r2,r2,4
   106e8:	d0a18e15 	stw	r2,-31176(gp)
   106ec:	d0e18e17 	ldw	r3,-31176(gp)
   106f0:	008000b4 	movhi	r2,2
   106f4:	10841804 	addi	r2,r2,4192
   106f8:	10c00035 	stwio	r3,0(r2)

}
   106fc:	e037883a 	mov	sp,fp
   10700:	dfc00117 	ldw	ra,4(sp)
   10704:	df000017 	ldw	fp,0(sp)
   10708:	dec00204 	addi	sp,sp,8
   1070c:	f800283a 	ret

00010710 <AD9833_WaveSeting>:
			  4.Phase : 波形的初相位
*	返 回 值: 无
*********************************************************************************************************
*/
void AD9833_WaveSeting(double Freq,unsigned int Freq_SFR,unsigned int WaveMode,unsigned int Phase )
{
   10710:	defff204 	addi	sp,sp,-56
   10714:	dfc00d15 	stw	ra,52(sp)
   10718:	df000c15 	stw	fp,48(sp)
   1071c:	df000c04 	addi	fp,sp,48
   10720:	e13ffc15 	stw	r4,-16(fp)
   10724:	e17ffd15 	stw	r5,-12(fp)
   10728:	e1bffe15 	stw	r6,-8(fp)
   1072c:	e1ffff15 	stw	r7,-4(fp)
	int frequence_LSB,frequence_MSB,Phs_data;
	double   frequence_mid,frequence_DATA;
	long int frequence_hex;

	/*********************************计算频率的16进制值***********************************/
	frequence_mid=268435456/25;//适合25M晶振
   10730:	00900034 	movhi	r2,16384
   10734:	e0bff615 	stw	r2,-40(fp)
   10738:	00905934 	movhi	r2,16740
   1073c:	109eb844 	addi	r2,r2,31457
   10740:	e0bff715 	stw	r2,-36(fp)
	//如果时钟频率不为25MHZ，修改该处的频率值，单位MHz ，AD9833最大支持25MHz
	frequence_DATA=Freq;
   10744:	e0bffc17 	ldw	r2,-16(fp)
   10748:	e0bff815 	stw	r2,-32(fp)
   1074c:	e0bffd17 	ldw	r2,-12(fp)
   10750:	e0bff915 	stw	r2,-28(fp)
	frequence_DATA=frequence_DATA/1000000;
   10754:	e13ff817 	ldw	r4,-32(fp)
   10758:	e17ff917 	ldw	r5,-28(fp)
   1075c:	000d883a 	mov	r6,zero
   10760:	01d04bf4 	movhi	r7,16687
   10764:	39e12004 	addi	r7,r7,-31616
   10768:	00156b40 	call	156b4 <__divdf3>
   1076c:	1009883a 	mov	r4,r2
   10770:	180b883a 	mov	r5,r3
   10774:	e13ff815 	stw	r4,-32(fp)
   10778:	e17ff915 	stw	r5,-28(fp)
	frequence_DATA=frequence_DATA*frequence_mid;
   1077c:	e13ff817 	ldw	r4,-32(fp)
   10780:	e17ff917 	ldw	r5,-28(fp)
   10784:	e1bff617 	ldw	r6,-40(fp)
   10788:	e1fff717 	ldw	r7,-36(fp)
   1078c:	00153d00 	call	153d0 <__muldf3>
   10790:	1009883a 	mov	r4,r2
   10794:	180b883a 	mov	r5,r3
   10798:	e13ff815 	stw	r4,-32(fp)
   1079c:	e17ff915 	stw	r5,-28(fp)
	frequence_hex=frequence_DATA;  //这个frequence_hex的值是32位的一个很大的数字，需要拆分成两个14位进行处理；
   107a0:	e13ff817 	ldw	r4,-32(fp)
   107a4:	e17ff917 	ldw	r5,-28(fp)
   107a8:	0015a600 	call	15a60 <__fixdfsi>
   107ac:	e0bffa15 	stw	r2,-24(fp)
	frequence_LSB=frequence_hex; //frequence_hex低16位送给frequence_LSB
   107b0:	e0bffa17 	ldw	r2,-24(fp)
   107b4:	e0bff415 	stw	r2,-48(fp)
	frequence_LSB=frequence_LSB&0x3fff;//去除最高两位，16位数换去掉高位后变成了14位
   107b8:	e0bff417 	ldw	r2,-48(fp)
   107bc:	108fffcc 	andi	r2,r2,16383
   107c0:	e0bff415 	stw	r2,-48(fp)
	frequence_MSB=frequence_hex>>14; //frequence_hex高16位送给frequence_HSB
   107c4:	e0bffa17 	ldw	r2,-24(fp)
   107c8:	1005d3ba 	srai	r2,r2,14
   107cc:	e0bff515 	stw	r2,-44(fp)
	frequence_MSB=frequence_MSB&0x3fff;//去除最高两位，16位数换去掉高位后变成了14位
   107d0:	e0bff517 	ldw	r2,-44(fp)
   107d4:	108fffcc 	andi	r2,r2,16383
   107d8:	e0bff515 	stw	r2,-44(fp)

	Phs_data=Phase|0xC000;	//相位值
   107dc:	e0800217 	ldw	r2,8(fp)
   107e0:	10b00014 	ori	r2,r2,49152
   107e4:	e0bffb15 	stw	r2,-20(fp)
	AD9833_Write(0x0100); //复位AD9833,即RESET位为1
   107e8:	01004004 	movi	r4,256
   107ec:	00105bc0 	call	105bc <AD9833_Write>
	AD9833_Write(0x2100); //选择数据一次写入，B28位和RESET位为1
   107f0:	01084004 	movi	r4,8448
   107f4:	00105bc0 	call	105bc <AD9833_Write>

	if(Freq_SFR==0)				  //把数据设置到设置频率寄存器0
   107f8:	e0bffe17 	ldw	r2,-8(fp)
   107fc:	10000f1e 	bne	r2,zero,1083c <AD9833_WaveSeting+0x12c>
	{
		frequence_LSB=frequence_LSB|0x4000;
   10800:	e0bff417 	ldw	r2,-48(fp)
   10804:	10900014 	ori	r2,r2,16384
   10808:	e0bff415 	stw	r2,-48(fp)
		frequence_MSB=frequence_MSB|0x4000;
   1080c:	e0bff517 	ldw	r2,-44(fp)
   10810:	10900014 	ori	r2,r2,16384
   10814:	e0bff515 	stw	r2,-44(fp)
		 //使用频率寄存器0输出波形
		AD9833_Write(frequence_LSB); //L14，选择频率寄存器0的低14位数据输入
   10818:	e0bff417 	ldw	r2,-48(fp)
   1081c:	1009883a 	mov	r4,r2
   10820:	00105bc0 	call	105bc <AD9833_Write>
		AD9833_Write(frequence_MSB); //H14 频率寄存器的高14位数据输入
   10824:	e0bff517 	ldw	r2,-44(fp)
   10828:	1009883a 	mov	r4,r2
   1082c:	00105bc0 	call	105bc <AD9833_Write>
		AD9833_Write(Phs_data);	//设置相位
   10830:	e0bffb17 	ldw	r2,-20(fp)
   10834:	1009883a 	mov	r4,r2
   10838:	00105bc0 	call	105bc <AD9833_Write>
		//AD9833_Write(0x2000); /**设置FSELECT位为0，芯片进入工作状态,频率寄存器0输出波形**/
	}
	if(Freq_SFR==1)				//把数据设置到设置频率寄存器1
   1083c:	e0bffe17 	ldw	r2,-8(fp)
   10840:	10800058 	cmpnei	r2,r2,1
   10844:	10000f1e 	bne	r2,zero,10884 <AD9833_WaveSeting+0x174>
	{
		 frequence_LSB=frequence_LSB|0x8000;
   10848:	e0bff417 	ldw	r2,-48(fp)
   1084c:	10a00014 	ori	r2,r2,32768
   10850:	e0bff415 	stw	r2,-48(fp)
		 frequence_MSB=frequence_MSB|0x8000;
   10854:	e0bff517 	ldw	r2,-44(fp)
   10858:	10a00014 	ori	r2,r2,32768
   1085c:	e0bff515 	stw	r2,-44(fp)
		//使用频率寄存器1输出波形
		AD9833_Write(frequence_LSB); //L14，选择频率寄存器1的低14位输入
   10860:	e0bff417 	ldw	r2,-48(fp)
   10864:	1009883a 	mov	r4,r2
   10868:	00105bc0 	call	105bc <AD9833_Write>
		AD9833_Write(frequence_MSB); //H14 频率寄存器1为
   1086c:	e0bff517 	ldw	r2,-44(fp)
   10870:	1009883a 	mov	r4,r2
   10874:	00105bc0 	call	105bc <AD9833_Write>
		AD9833_Write(Phs_data);	//设置相位
   10878:	e0bffb17 	ldw	r2,-20(fp)
   1087c:	1009883a 	mov	r4,r2
   10880:	00105bc0 	call	105bc <AD9833_Write>
		//AD9833_Write(0x2800); /**设置FSELECT位为0，设置FSELECT位为1，即使用频率寄存器1的值，芯片进入工作状态,频率寄存器1输出波形**/
	}

	if(WaveMode==TRI_WAVE) //输出三角波波形
   10884:	e0bfff17 	ldw	r2,-4(fp)
   10888:	1000021e 	bne	r2,zero,10894 <AD9833_WaveSeting+0x184>
		AD9833_Write(0x2002);
   1088c:	01080084 	movi	r4,8194
   10890:	00105bc0 	call	105bc <AD9833_Write>
	if(WaveMode==SQU_WAVE)	//输出方波波形
   10894:	e0bfff17 	ldw	r2,-4(fp)
   10898:	10800098 	cmpnei	r2,r2,2
   1089c:	1000021e 	bne	r2,zero,108a8 <AD9833_WaveSeting+0x198>
		AD9833_Write(0x2028);
   108a0:	01080a04 	movi	r4,8232
   108a4:	00105bc0 	call	105bc <AD9833_Write>
	if(WaveMode==SIN_WAVE)	//输出正弦波形
   108a8:	e0bfff17 	ldw	r2,-4(fp)
   108ac:	10800058 	cmpnei	r2,r2,1
   108b0:	1000021e 	bne	r2,zero,108bc <AD9833_WaveSeting+0x1ac>
		AD9833_Write(0x2000);
   108b4:	01080004 	movi	r4,8192
   108b8:	00105bc0 	call	105bc <AD9833_Write>

}
   108bc:	e037883a 	mov	sp,fp
   108c0:	dfc00117 	ldw	ra,4(sp)
   108c4:	df000017 	ldw	fp,0(sp)
   108c8:	dec00204 	addi	sp,sp,8
   108cc:	f800283a 	ret

000108d0 <Add_Complex>:
////////////////////////////////////////////////////////////////////  
//璇叉唉椤椤т绘挎绘ㄩ搞椤璺ㄦ锝￠℃缂杈ㄥ浮楠妯硷拷瀚瑰┑舵缂骞锟///////////////////////////////////////////////////////////////////

////////////////////////////////////////////////////////////////////  
//璇叉唉椤椤т绘挎绘ㄩ搞椤璺ㄦ锝￠℃瑰嘲宥宕椤哥浣瑰х椤婊锋慨妤风达纭舵い甯缁绘寰ｎも缂浣介哺缁诲峰┑瀣规娲㈤浠姊洪稿海兼椿跺藉传璺ㄥ凤拷///////////////////////////////////////////////////////////////////
void Add_Complex(Complex * src1,Complex *src2,Complex *dst){  
   108d0:	defffb04 	addi	sp,sp,-20
   108d4:	dfc00415 	stw	ra,16(sp)
   108d8:	df000315 	stw	fp,12(sp)
   108dc:	df000304 	addi	fp,sp,12
   108e0:	e13ffd15 	stw	r4,-12(fp)
   108e4:	e17ffe15 	stw	r5,-8(fp)
   108e8:	e1bfff15 	stw	r6,-4(fp)
    dst->imagin=src1->imagin+src2->imagin;  
   108ec:	e0bffd17 	ldw	r2,-12(fp)
   108f0:	10c00117 	ldw	r3,4(r2)
   108f4:	e13ffe17 	ldw	r4,-8(fp)
   108f8:	20800117 	ldw	r2,4(r4)
   108fc:	1809883a 	mov	r4,r3
   10900:	100b883a 	mov	r5,r2
   10904:	0014acc0 	call	14acc <__addsf3>
   10908:	1009883a 	mov	r4,r2
   1090c:	2007883a 	mov	r3,r4
   10910:	e0bfff17 	ldw	r2,-4(fp)
   10914:	10c00115 	stw	r3,4(r2)
    dst->real=src1->real+src2->real;  
   10918:	e0bffd17 	ldw	r2,-12(fp)
   1091c:	10c00017 	ldw	r3,0(r2)
   10920:	e13ffe17 	ldw	r4,-8(fp)
   10924:	20800017 	ldw	r2,0(r4)
   10928:	1809883a 	mov	r4,r3
   1092c:	100b883a 	mov	r5,r2
   10930:	0014acc0 	call	14acc <__addsf3>
   10934:	1009883a 	mov	r4,r2
   10938:	2007883a 	mov	r3,r4
   1093c:	e0bfff17 	ldw	r2,-4(fp)
   10940:	10c00015 	stw	r3,0(r2)
}  
   10944:	e037883a 	mov	sp,fp
   10948:	dfc00117 	ldw	ra,4(sp)
   1094c:	df000017 	ldw	fp,0(sp)
   10950:	dec00204 	addi	sp,sp,8
   10954:	f800283a 	ret

00010958 <Sub_Complex>:
void Sub_Complex(Complex * src1,Complex *src2,Complex *dst){  
   10958:	defffb04 	addi	sp,sp,-20
   1095c:	dfc00415 	stw	ra,16(sp)
   10960:	df000315 	stw	fp,12(sp)
   10964:	df000304 	addi	fp,sp,12
   10968:	e13ffd15 	stw	r4,-12(fp)
   1096c:	e17ffe15 	stw	r5,-8(fp)
   10970:	e1bfff15 	stw	r6,-4(fp)
    dst->imagin=src1->imagin-src2->imagin;  
   10974:	e0bffd17 	ldw	r2,-12(fp)
   10978:	10c00117 	ldw	r3,4(r2)
   1097c:	e13ffe17 	ldw	r4,-8(fp)
   10980:	20800117 	ldw	r2,4(r4)
   10984:	1809883a 	mov	r4,r3
   10988:	100b883a 	mov	r5,r2
   1098c:	0014b180 	call	14b18 <__subsf3>
   10990:	1009883a 	mov	r4,r2
   10994:	2007883a 	mov	r3,r4
   10998:	e0bfff17 	ldw	r2,-4(fp)
   1099c:	10c00115 	stw	r3,4(r2)
    dst->real=src1->real-src2->real;  
   109a0:	e0bffd17 	ldw	r2,-12(fp)
   109a4:	10c00017 	ldw	r3,0(r2)
   109a8:	e13ffe17 	ldw	r4,-8(fp)
   109ac:	20800017 	ldw	r2,0(r4)
   109b0:	1809883a 	mov	r4,r3
   109b4:	100b883a 	mov	r5,r2
   109b8:	0014b180 	call	14b18 <__subsf3>
   109bc:	1009883a 	mov	r4,r2
   109c0:	2007883a 	mov	r3,r4
   109c4:	e0bfff17 	ldw	r2,-4(fp)
   109c8:	10c00015 	stw	r3,0(r2)
}  
   109cc:	e037883a 	mov	sp,fp
   109d0:	dfc00117 	ldw	ra,4(sp)
   109d4:	df000017 	ldw	fp,0(sp)
   109d8:	dec00204 	addi	sp,sp,8
   109dc:	f800283a 	ret

000109e0 <Multy_Complex>:
void Multy_Complex(Complex * src1,Complex *src2,Complex *dst){  
   109e0:	defff604 	addi	sp,sp,-40
   109e4:	dfc00915 	stw	ra,36(sp)
   109e8:	df000815 	stw	fp,32(sp)
   109ec:	dc000715 	stw	r16,28(sp)
   109f0:	df000704 	addi	fp,sp,28
   109f4:	e13ffd15 	stw	r4,-12(fp)
   109f8:	e17ffe15 	stw	r5,-8(fp)
   109fc:	e1bfff15 	stw	r6,-4(fp)
    float r1=0.0,r2=0.0;
   10a00:	e03ff915 	stw	zero,-28(fp)
   10a04:	e03ffa15 	stw	zero,-24(fp)
    float i1=0.0,i2=0.0;
   10a08:	e03ffb15 	stw	zero,-20(fp)
   10a0c:	e03ffc15 	stw	zero,-16(fp)
    r1=src1->real;  
   10a10:	e0bffd17 	ldw	r2,-12(fp)
   10a14:	10800017 	ldw	r2,0(r2)
   10a18:	e0bff915 	stw	r2,-28(fp)
    r2=src2->real;  
   10a1c:	e0bffe17 	ldw	r2,-8(fp)
   10a20:	10800017 	ldw	r2,0(r2)
   10a24:	e0bffa15 	stw	r2,-24(fp)
    i1=src1->imagin;  
   10a28:	e0bffd17 	ldw	r2,-12(fp)
   10a2c:	10800117 	ldw	r2,4(r2)
   10a30:	e0bffb15 	stw	r2,-20(fp)
    i2=src2->imagin;  
   10a34:	e0bffe17 	ldw	r2,-8(fp)
   10a38:	10800117 	ldw	r2,4(r2)
   10a3c:	e0bffc15 	stw	r2,-16(fp)
    dst->imagin=r1*i2+r2*i1;  
   10a40:	e13ff917 	ldw	r4,-28(fp)
   10a44:	e17ffc17 	ldw	r5,-16(fp)
   10a48:	0014b700 	call	14b70 <__mulsf3>
   10a4c:	1007883a 	mov	r3,r2
   10a50:	1821883a 	mov	r16,r3
   10a54:	e13ffa17 	ldw	r4,-24(fp)
   10a58:	e17ffb17 	ldw	r5,-20(fp)
   10a5c:	0014b700 	call	14b70 <__mulsf3>
   10a60:	1007883a 	mov	r3,r2
   10a64:	1805883a 	mov	r2,r3
   10a68:	8009883a 	mov	r4,r16
   10a6c:	100b883a 	mov	r5,r2
   10a70:	0014acc0 	call	14acc <__addsf3>
   10a74:	1009883a 	mov	r4,r2
   10a78:	2007883a 	mov	r3,r4
   10a7c:	e0bfff17 	ldw	r2,-4(fp)
   10a80:	10c00115 	stw	r3,4(r2)
    dst->real=r1*r2-i1*i2;  
   10a84:	e13ff917 	ldw	r4,-28(fp)
   10a88:	e17ffa17 	ldw	r5,-24(fp)
   10a8c:	0014b700 	call	14b70 <__mulsf3>
   10a90:	1007883a 	mov	r3,r2
   10a94:	1821883a 	mov	r16,r3
   10a98:	e13ffb17 	ldw	r4,-20(fp)
   10a9c:	e17ffc17 	ldw	r5,-16(fp)
   10aa0:	0014b700 	call	14b70 <__mulsf3>
   10aa4:	1007883a 	mov	r3,r2
   10aa8:	1805883a 	mov	r2,r3
   10aac:	8009883a 	mov	r4,r16
   10ab0:	100b883a 	mov	r5,r2
   10ab4:	0014b180 	call	14b18 <__subsf3>
   10ab8:	1009883a 	mov	r4,r2
   10abc:	2007883a 	mov	r3,r4
   10ac0:	e0bfff17 	ldw	r2,-4(fp)
   10ac4:	10c00015 	stw	r3,0(r2)
}  
   10ac8:	e037883a 	mov	sp,fp
   10acc:	dfc00217 	ldw	ra,8(sp)
   10ad0:	df000117 	ldw	fp,4(sp)
   10ad4:	dc000017 	ldw	r16,0(sp)
   10ad8:	dec00304 	addi	sp,sp,12
   10adc:	f800283a 	ret

00010ae0 <getWN>:
////////////////////////////////////////////////////////////////////  
//渚娼婚靛缁辩濠电村堕尖宕㈤澶垮ù锝婀遍绘ㄩ搞N浣圭归宀宕洪х鹃糕崇婢фユ″锟芥靛у伴宕妯渚娼荤煎韫娑绀妞ゆㄧ椤ㄥ┑告稿绱濡わ拷妾ㄧ殿椤㈡╅ｎ归浣告＄濠婵缁у锟界澶搁宄扳淬￠浼缍椤㈤抽宠妫濞姊洪甸瑰ゆ
///////////////////////////////////////////////////////////////////
void getWN(float n,float size_n,Complex * dst){
   10ae0:	defff804 	addi	sp,sp,-32
   10ae4:	dfc00715 	stw	ra,28(sp)
   10ae8:	df000615 	stw	fp,24(sp)
   10aec:	dc400515 	stw	r17,20(sp)
   10af0:	dc000415 	stw	r16,16(sp)
   10af4:	df000404 	addi	fp,sp,16
   10af8:	e13ffd15 	stw	r4,-12(fp)
   10afc:	e17ffe15 	stw	r5,-8(fp)
   10b00:	e1bfff15 	stw	r6,-4(fp)
    float x=2.0*M_PI*n/size_n;
   10b04:	e13ffd17 	ldw	r4,-12(fp)
   10b08:	0014f840 	call	14f84 <__extendsfdf2>
   10b0c:	100b883a 	mov	r5,r2
   10b10:	180d883a 	mov	r6,r3
   10b14:	2809883a 	mov	r4,r5
   10b18:	300b883a 	mov	r5,r6
   10b1c:	01951134 	movhi	r6,21572
   10b20:	318b4604 	addi	r6,r6,11544
   10b24:	01d00674 	movhi	r7,16409
   10b28:	39c87ec4 	addi	r7,r7,8699
   10b2c:	00153d00 	call	153d0 <__muldf3>
   10b30:	1009883a 	mov	r4,r2
   10b34:	180b883a 	mov	r5,r3
   10b38:	2021883a 	mov	r16,r4
   10b3c:	2823883a 	mov	r17,r5
   10b40:	e13ffe17 	ldw	r4,-8(fp)
   10b44:	0014f840 	call	14f84 <__extendsfdf2>
   10b48:	100f883a 	mov	r7,r2
   10b4c:	1811883a 	mov	r8,r3
   10b50:	8009883a 	mov	r4,r16
   10b54:	880b883a 	mov	r5,r17
   10b58:	380d883a 	mov	r6,r7
   10b5c:	400f883a 	mov	r7,r8
   10b60:	00156b40 	call	156b4 <__divdf3>
   10b64:	1009883a 	mov	r4,r2
   10b68:	180b883a 	mov	r5,r3
   10b6c:	2005883a 	mov	r2,r4
   10b70:	2807883a 	mov	r3,r5
   10b74:	1009883a 	mov	r4,r2
   10b78:	180b883a 	mov	r5,r3
   10b7c:	0015b6c0 	call	15b6c <__truncdfsf2>
   10b80:	1007883a 	mov	r3,r2
   10b84:	e0fffc15 	stw	r3,-16(fp)
    dst->imagin=-sin(x);  
   10b88:	e13ffc17 	ldw	r4,-16(fp)
   10b8c:	0014f840 	call	14f84 <__extendsfdf2>
   10b90:	100b883a 	mov	r5,r2
   10b94:	180d883a 	mov	r6,r3
   10b98:	2809883a 	mov	r4,r5
   10b9c:	300b883a 	mov	r5,r6
   10ba0:	00126d40 	call	126d4 <sin>
   10ba4:	100b883a 	mov	r5,r2
   10ba8:	180d883a 	mov	r6,r3
   10bac:	2809883a 	mov	r4,r5
   10bb0:	300b883a 	mov	r5,r6
   10bb4:	0015b6c0 	call	15b6c <__truncdfsf2>
   10bb8:	1007883a 	mov	r3,r2
   10bbc:	18e0003c 	xorhi	r3,r3,32768
   10bc0:	e0bfff17 	ldw	r2,-4(fp)
   10bc4:	10c00115 	stw	r3,4(r2)
    dst->real=cos(x);  
   10bc8:	e13ffc17 	ldw	r4,-16(fp)
   10bcc:	0014f840 	call	14f84 <__extendsfdf2>
   10bd0:	100b883a 	mov	r5,r2
   10bd4:	180d883a 	mov	r6,r3
   10bd8:	2809883a 	mov	r4,r5
   10bdc:	300b883a 	mov	r5,r6
   10be0:	00125e80 	call	125e8 <cos>
   10be4:	100b883a 	mov	r5,r2
   10be8:	180d883a 	mov	r6,r3
   10bec:	2809883a 	mov	r4,r5
   10bf0:	300b883a 	mov	r5,r6
   10bf4:	0015b6c0 	call	15b6c <__truncdfsf2>
   10bf8:	1007883a 	mov	r3,r2
   10bfc:	e0bfff17 	ldw	r2,-4(fp)
   10c00:	10c00015 	stw	r3,0(r2)
}  
   10c04:	e037883a 	mov	sp,fp
   10c08:	dfc00317 	ldw	ra,12(sp)
   10c0c:	df000217 	ldw	fp,8(sp)
   10c10:	dc400117 	ldw	r17,4(sp)
   10c14:	dc000017 	ldw	r16,0(sp)
   10c18:	dec00404 	addi	sp,sp,16
   10c1c:	f800283a 	ret

00010c20 <FFT_remap>:

////////////////////////////////////////////////////////////////////  
//璇叉唉椤椤т绘T浣圭归宀锟介割蹇搴绨绘いㄧ濞达椤ｈ╋拷捐绐轰礁绉舵锕妯濠电村堕搁濠电浣圭归宀锟介姹查绘х汇ユ瀵℃担版╃稻ｉ割ゅ娓锟藉堕ㄦ搁电х哄苯楠骞х娆圭款烽妤锟//////////////////////////////////////////////////////////////////
int FFT_remap(float * src,int size_n)
{
   10c20:	deffdb04 	addi	sp,sp,-148
   10c24:	dfc02415 	stw	ra,144(sp)
   10c28:	df002315 	stw	fp,140(sp)
   10c2c:	df002304 	addi	fp,sp,140
   10c30:	e13ffe15 	stw	r4,-8(fp)
   10c34:	e17fff15 	stw	r5,-4(fp)
	int i;
    float temp[32] = {0};
   10c38:	e0ffde04 	addi	r3,fp,-136
   10c3c:	00802004 	movi	r2,128
   10c40:	1809883a 	mov	r4,r3
   10c44:	000b883a 	mov	r5,zero
   10c48:	100d883a 	mov	r6,r2
   10c4c:	00166040 	call	16604 <memset>
    if(size_n == 1)
   10c50:	e0bfff17 	ldw	r2,-4(fp)
   10c54:	10800058 	cmpnei	r2,r2,1
   10c58:	1000021e 	bne	r2,zero,10c64 <FFT_remap+0x44>
    {
        return 0;
   10c5c:	0005883a 	mov	r2,zero
   10c60:	00005a06 	br	10dcc <FFT_remap+0x1ac>
    }
    for(i = 0; i < size_n; i++)
   10c64:	e03fdd15 	stw	zero,-140(fp)
   10c68:	00002906 	br	10d10 <FFT_remap+0xf0>
    {
        if(i % 2 == 0)
   10c6c:	e0bfdd17 	ldw	r2,-140(fp)
   10c70:	1080004c 	andi	r2,r2,1
   10c74:	1000111e 	bne	r2,zero,10cbc <FFT_remap+0x9c>
        {
            temp[i / 2] = src[i];
   10c78:	e0bfdd17 	ldw	r2,-140(fp)
   10c7c:	1006d7fa 	srli	r3,r2,31
   10c80:	1885883a 	add	r2,r3,r2
   10c84:	1005d07a 	srai	r2,r2,1
   10c88:	e0ffdd17 	ldw	r3,-140(fp)
   10c8c:	18c7883a 	add	r3,r3,r3
   10c90:	18c7883a 	add	r3,r3,r3
   10c94:	e13ffe17 	ldw	r4,-8(fp)
   10c98:	20c9883a 	add	r4,r4,r3
   10c9c:	20c00017 	ldw	r3,0(r4)
   10ca0:	1085883a 	add	r2,r2,r2
   10ca4:	1085883a 	add	r2,r2,r2
   10ca8:	e13fdd04 	addi	r4,fp,-140
   10cac:	2085883a 	add	r2,r4,r2
   10cb0:	10800104 	addi	r2,r2,4
   10cb4:	10c00015 	stw	r3,0(r2)
   10cb8:	00001206 	br	10d04 <FFT_remap+0xe4>
        }
        else  
        {
            temp[(size_n + i) / 2] = src[i];
   10cbc:	e0ffff17 	ldw	r3,-4(fp)
   10cc0:	e0bfdd17 	ldw	r2,-140(fp)
   10cc4:	1885883a 	add	r2,r3,r2
   10cc8:	1006d7fa 	srli	r3,r2,31
   10ccc:	1885883a 	add	r2,r3,r2
   10cd0:	1005d07a 	srai	r2,r2,1
   10cd4:	e0ffdd17 	ldw	r3,-140(fp)
   10cd8:	18c7883a 	add	r3,r3,r3
   10cdc:	18c7883a 	add	r3,r3,r3
   10ce0:	e13ffe17 	ldw	r4,-8(fp)
   10ce4:	20c9883a 	add	r4,r4,r3
   10ce8:	20c00017 	ldw	r3,0(r4)
   10cec:	1085883a 	add	r2,r2,r2
   10cf0:	1085883a 	add	r2,r2,r2
   10cf4:	e13fdd04 	addi	r4,fp,-140
   10cf8:	2085883a 	add	r2,r4,r2
   10cfc:	10800104 	addi	r2,r2,4
   10d00:	10c00015 	stw	r3,0(r2)
    float temp[32] = {0};
    if(size_n == 1)
    {
        return 0;
    }
    for(i = 0; i < size_n; i++)
   10d04:	e0bfdd17 	ldw	r2,-140(fp)
   10d08:	10800044 	addi	r2,r2,1
   10d0c:	e0bfdd15 	stw	r2,-140(fp)
   10d10:	e0ffdd17 	ldw	r3,-140(fp)
   10d14:	e0bfff17 	ldw	r2,-4(fp)
   10d18:	18bfd416 	blt	r3,r2,10c6c <FFT_remap+0x4c>
        else  
        {
            temp[(size_n + i) / 2] = src[i];
        }
    }
    for(i = 0; i < size_n; i++)
   10d1c:	e03fdd15 	stw	zero,-140(fp)
   10d20:	00001006 	br	10d64 <FFT_remap+0x144>
    {
        src[i] = temp[i];
   10d24:	e0bfdd17 	ldw	r2,-140(fp)
   10d28:	1085883a 	add	r2,r2,r2
   10d2c:	1085883a 	add	r2,r2,r2
   10d30:	e0fffe17 	ldw	r3,-8(fp)
   10d34:	1887883a 	add	r3,r3,r2
   10d38:	e0bfdd17 	ldw	r2,-140(fp)
   10d3c:	1085883a 	add	r2,r2,r2
   10d40:	1085883a 	add	r2,r2,r2
   10d44:	e13fdd04 	addi	r4,fp,-140
   10d48:	2085883a 	add	r2,r4,r2
   10d4c:	11000104 	addi	r4,r2,4
   10d50:	20800017 	ldw	r2,0(r4)
   10d54:	18800015 	stw	r2,0(r3)
        else  
        {
            temp[(size_n + i) / 2] = src[i];
        }
    }
    for(i = 0; i < size_n; i++)
   10d58:	e0bfdd17 	ldw	r2,-140(fp)
   10d5c:	10800044 	addi	r2,r2,1
   10d60:	e0bfdd15 	stw	r2,-140(fp)
   10d64:	e0ffdd17 	ldw	r3,-140(fp)
   10d68:	e0bfff17 	ldw	r2,-4(fp)
   10d6c:	18bfed16 	blt	r3,r2,10d24 <FFT_remap+0x104>
    {
        src[i] = temp[i];
    }
    FFT_remap(src, size_n/2);  
   10d70:	e0bfff17 	ldw	r2,-4(fp)
   10d74:	1006d7fa 	srli	r3,r2,31
   10d78:	1885883a 	add	r2,r3,r2
   10d7c:	1005d07a 	srai	r2,r2,1
   10d80:	e13ffe17 	ldw	r4,-8(fp)
   10d84:	100b883a 	mov	r5,r2
   10d88:	0010c200 	call	10c20 <FFT_remap>
    FFT_remap(src+size_n/2, size_n/2);  
   10d8c:	e0bfff17 	ldw	r2,-4(fp)
   10d90:	1006d7fa 	srli	r3,r2,31
   10d94:	1885883a 	add	r2,r3,r2
   10d98:	1005d07a 	srai	r2,r2,1
   10d9c:	1085883a 	add	r2,r2,r2
   10da0:	1085883a 	add	r2,r2,r2
   10da4:	e0fffe17 	ldw	r3,-8(fp)
   10da8:	1887883a 	add	r3,r3,r2
   10dac:	e0bfff17 	ldw	r2,-4(fp)
   10db0:	1008d7fa 	srli	r4,r2,31
   10db4:	2085883a 	add	r2,r4,r2
   10db8:	1005d07a 	srai	r2,r2,1
   10dbc:	1809883a 	mov	r4,r3
   10dc0:	100b883a 	mov	r5,r2
   10dc4:	0010c200 	call	10c20 <FFT_remap>
    return 1;  
   10dc8:	00800044 	movi	r2,1
}  
   10dcc:	e037883a 	mov	sp,fp
   10dd0:	dfc00117 	ldw	ra,4(sp)
   10dd4:	df000017 	ldw	fp,0(sp)
   10dd8:	dec00204 	addi	sp,sp,8
   10ddc:	f800283a 	ret

00010de0 <FFT>:

////////////////////////////////////////////////////////////////////  
//璇叉唉椤椤т绘T浣瑰х椤茬圭垮╂刊规靛诲寒缁辨╅颁焦缂缁㈠兼晶搴ㄥ纰锋俊妞块浠姊洪稿海哄瀵妯煎婵靛Тょ博绢界靛垮遍淇椤姘兼缂肩ゆい蹇瀚婵姊洪濠绗婵☆ｆ⒒峰㈤搴㈢缁绮告ㄥ锋ャュ洪轰礁绉舵锕婢跺寒瑰┑差婵浼村绢癸拷濞达灏ㄩ风芥ｉ婵澶介锛锟介搁
///////////////////////////////////////////////////////////////////  
void FFT(float * src, Complex * dst, int size_n)
{
   10de0:	deffb104 	addi	sp,sp,-316
   10de4:	dfc04e15 	stw	ra,312(sp)
   10de8:	df004d15 	stw	fp,308(sp)
   10dec:	dc004c15 	stw	r16,304(sp)
   10df0:	df004c04 	addi	fp,sp,304
   10df4:	e13ffd15 	stw	r4,-12(fp)
   10df8:	e17ffe15 	stw	r5,-8(fp)
   10dfc:	e1bfff15 	stw	r6,-4(fp)
	int i,j;
	int k=size_n;
   10e00:	e0bfff17 	ldw	r2,-4(fp)
   10e04:	e0bfb615 	stw	r2,-296(fp)
	int z=0;
   10e08:	e03fb715 	stw	zero,-292(fp)
    FFT_remap(src, size_n); 
   10e0c:	e13ffd17 	ldw	r4,-12(fp)
   10e10:	e17fff17 	ldw	r5,-4(fp)
   10e14:	0010c200 	call	10c20 <FFT_remap>

    while (k/=2)
   10e18:	00000306 	br	10e28 <FFT+0x48>
    {
        z++;  
   10e1c:	e0bfb717 	ldw	r2,-292(fp)
   10e20:	10800044 	addi	r2,r2,1
   10e24:	e0bfb715 	stw	r2,-292(fp)
	int i,j;
	int k=size_n;
	int z=0;
    FFT_remap(src, size_n); 

    while (k/=2)
   10e28:	e0bfb617 	ldw	r2,-296(fp)
   10e2c:	1006d7fa 	srli	r3,r2,31
   10e30:	1885883a 	add	r2,r3,r2
   10e34:	1005d07a 	srai	r2,r2,1
   10e38:	e0bfb615 	stw	r2,-296(fp)
   10e3c:	e0bfb617 	ldw	r2,-296(fp)
   10e40:	103ff61e 	bne	r2,zero,10e1c <FFT+0x3c>
    {
        z++;  
    }  
    k=z;  
   10e44:	e0bfb717 	ldw	r2,-292(fp)
   10e48:	e0bfb615 	stw	r2,-296(fp)
    if(size_n!=(1<<k))
   10e4c:	00c00044 	movi	r3,1
   10e50:	e0bfb617 	ldw	r2,-296(fp)
   10e54:	1886983a 	sll	r3,r3,r2
   10e58:	e0bfff17 	ldw	r2,-4(fp)
   10e5c:	18800226 	beq	r3,r2,10e68 <FFT+0x88>
    {
        exit(0);  
   10e60:	0009883a 	mov	r4,zero
   10e64:	00175d40 	call	175d4 <_exit>
    Complex src_com[32];
    if(src_com==NULL)  
    {
        exit(0);
    }
    for(i=0;i<size_n;i++)
   10e68:	e03fb415 	stw	zero,-304(fp)
   10e6c:	00001506 	br	10ec4 <FFT+0xe4>
    {
        src_com[i].real=src[i];  
   10e70:	e0bfb417 	ldw	r2,-304(fp)
   10e74:	1085883a 	add	r2,r2,r2
   10e78:	1085883a 	add	r2,r2,r2
   10e7c:	e0fffd17 	ldw	r3,-12(fp)
   10e80:	1885883a 	add	r2,r3,r2
   10e84:	10c00017 	ldw	r3,0(r2)
   10e88:	e0bfb417 	ldw	r2,-304(fp)
   10e8c:	100490fa 	slli	r2,r2,3
   10e90:	e13fb404 	addi	r4,fp,-304
   10e94:	2085883a 	add	r2,r4,r2
   10e98:	10800504 	addi	r2,r2,20
   10e9c:	10c00015 	stw	r3,0(r2)
        src_com[i].imagin=0;  
   10ea0:	e0bfb417 	ldw	r2,-304(fp)
   10ea4:	100490fa 	slli	r2,r2,3
   10ea8:	e0ffb404 	addi	r3,fp,-304
   10eac:	1885883a 	add	r2,r3,r2
   10eb0:	10800604 	addi	r2,r2,24
   10eb4:	10000015 	stw	zero,0(r2)
    Complex src_com[32];
    if(src_com==NULL)  
    {
        exit(0);
    }
    for(i=0;i<size_n;i++)
   10eb8:	e0bfb417 	ldw	r2,-304(fp)
   10ebc:	10800044 	addi	r2,r2,1
   10ec0:	e0bfb415 	stw	r2,-304(fp)
   10ec4:	e0ffb417 	ldw	r3,-304(fp)
   10ec8:	e0bfff17 	ldw	r2,-4(fp)
   10ecc:	18bfe816 	blt	r3,r2,10e70 <FFT+0x90>
    {
        src_com[i].real=src[i];  
        src_com[i].imagin=0;  
    }
    for(i=0;i<k;i++)
   10ed0:	e03fb415 	stw	zero,-304(fp)
   10ed4:	00006b06 	br	11084 <FFT+0x2a4>
    {
        z=0;  
   10ed8:	e03fb715 	stw	zero,-292(fp)
        for(j=0;j<size_n;j++)
   10edc:	e03fb515 	stw	zero,-300(fp)
   10ee0:	00006206 	br	1106c <FFT+0x28c>
        {
            if((j/(1<<i))%2==1)
   10ee4:	00c00044 	movi	r3,1
   10ee8:	e0bfb417 	ldw	r2,-304(fp)
   10eec:	1884983a 	sll	r2,r3,r2
   10ef0:	e13fb517 	ldw	r4,-300(fp)
   10ef4:	100b883a 	mov	r5,r2
   10ef8:	0015d5c0 	call	15d5c <__divsi3>
   10efc:	1007883a 	mov	r3,r2
   10f00:	00a00034 	movhi	r2,32768
   10f04:	10800044 	addi	r2,r2,1
   10f08:	1884703a 	and	r2,r3,r2
   10f0c:	1000040e 	bge	r2,zero,10f20 <FFT+0x140>
   10f10:	10bfffc4 	addi	r2,r2,-1
   10f14:	00ffff84 	movi	r3,-2
   10f18:	10c4b03a 	or	r2,r2,r3
   10f1c:	10800044 	addi	r2,r2,1
   10f20:	10800058 	cmpnei	r2,r2,1
   10f24:	10004d1e 	bne	r2,zero,1105c <FFT+0x27c>
            {
                Complex wn;  
                getWN(z, size_n, &wn);  
   10f28:	e13fb717 	ldw	r4,-292(fp)
   10f2c:	0014e3c0 	call	14e3c <__floatsisf>
   10f30:	1021883a 	mov	r16,r2
   10f34:	e13fff17 	ldw	r4,-4(fp)
   10f38:	0014e3c0 	call	14e3c <__floatsisf>
   10f3c:	1007883a 	mov	r3,r2
   10f40:	e0bff904 	addi	r2,fp,-28
   10f44:	8009883a 	mov	r4,r16
   10f48:	180b883a 	mov	r5,r3
   10f4c:	100d883a 	mov	r6,r2
   10f50:	0010ae00 	call	10ae0 <getWN>
                Multy_Complex(&src_com[j], &wn,&src_com[j]);  
   10f54:	e0ffb904 	addi	r3,fp,-284
   10f58:	e0bfb517 	ldw	r2,-300(fp)
   10f5c:	100490fa 	slli	r2,r2,3
   10f60:	1889883a 	add	r4,r3,r2
   10f64:	e0ffb904 	addi	r3,fp,-284
   10f68:	e0bfb517 	ldw	r2,-300(fp)
   10f6c:	100490fa 	slli	r2,r2,3
   10f70:	1885883a 	add	r2,r3,r2
   10f74:	e0fff904 	addi	r3,fp,-28
   10f78:	180b883a 	mov	r5,r3
   10f7c:	100d883a 	mov	r6,r2
   10f80:	00109e00 	call	109e0 <Multy_Complex>
                z+=1<<(k-i-1);  
   10f84:	e0ffb617 	ldw	r3,-296(fp)
   10f88:	e0bfb417 	ldw	r2,-304(fp)
   10f8c:	1885c83a 	sub	r2,r3,r2
   10f90:	10bfffc4 	addi	r2,r2,-1
   10f94:	00c00044 	movi	r3,1
   10f98:	1884983a 	sll	r2,r3,r2
   10f9c:	e0ffb717 	ldw	r3,-292(fp)
   10fa0:	1885883a 	add	r2,r3,r2
   10fa4:	e0bfb715 	stw	r2,-292(fp)
                Complex temp;  
                int neighbour=j-(1<<(i));  
   10fa8:	00c00044 	movi	r3,1
   10fac:	e0bfb417 	ldw	r2,-304(fp)
   10fb0:	1884983a 	sll	r2,r3,r2
   10fb4:	e0ffb517 	ldw	r3,-300(fp)
   10fb8:	1885c83a 	sub	r2,r3,r2
   10fbc:	e0bfb815 	stw	r2,-288(fp)
                temp.real=src_com[neighbour].real;  
   10fc0:	e0bfb817 	ldw	r2,-288(fp)
   10fc4:	100490fa 	slli	r2,r2,3
   10fc8:	e13fb404 	addi	r4,fp,-304
   10fcc:	2085883a 	add	r2,r4,r2
   10fd0:	10c00504 	addi	r3,r2,20
   10fd4:	18800017 	ldw	r2,0(r3)
   10fd8:	e0bffb15 	stw	r2,-20(fp)
                temp.imagin=src_com[neighbour].imagin;  
   10fdc:	e0bfb817 	ldw	r2,-288(fp)
   10fe0:	100490fa 	slli	r2,r2,3
   10fe4:	e0ffb404 	addi	r3,fp,-304
   10fe8:	1885883a 	add	r2,r3,r2
   10fec:	10c00604 	addi	r3,r2,24
   10ff0:	18800017 	ldw	r2,0(r3)
   10ff4:	e0bffc15 	stw	r2,-16(fp)
                Add_Complex(&temp, &src_com[j], &src_com[neighbour]);  
   10ff8:	e0ffb904 	addi	r3,fp,-284
   10ffc:	e0bfb517 	ldw	r2,-300(fp)
   11000:	100490fa 	slli	r2,r2,3
   11004:	1887883a 	add	r3,r3,r2
   11008:	e13fb904 	addi	r4,fp,-284
   1100c:	e0bfb817 	ldw	r2,-288(fp)
   11010:	100490fa 	slli	r2,r2,3
   11014:	2085883a 	add	r2,r4,r2
   11018:	e13ffb04 	addi	r4,fp,-20
   1101c:	180b883a 	mov	r5,r3
   11020:	100d883a 	mov	r6,r2
   11024:	00108d00 	call	108d0 <Add_Complex>
                Sub_Complex(&temp, &src_com[j], &src_com[j]);  
   11028:	e0ffb904 	addi	r3,fp,-284
   1102c:	e0bfb517 	ldw	r2,-300(fp)
   11030:	100490fa 	slli	r2,r2,3
   11034:	1887883a 	add	r3,r3,r2
   11038:	e13fb904 	addi	r4,fp,-284
   1103c:	e0bfb517 	ldw	r2,-300(fp)
   11040:	100490fa 	slli	r2,r2,3
   11044:	2085883a 	add	r2,r4,r2
   11048:	e13ffb04 	addi	r4,fp,-20
   1104c:	180b883a 	mov	r5,r3
   11050:	100d883a 	mov	r6,r2
   11054:	00109580 	call	10958 <Sub_Complex>
   11058:	00000106 	br	11060 <FFT+0x280>
            }  
            else  
            {
                z=0;
   1105c:	e03fb715 	stw	zero,-292(fp)
        src_com[i].imagin=0;  
    }
    for(i=0;i<k;i++)
    {
        z=0;  
        for(j=0;j<size_n;j++)
   11060:	e0bfb517 	ldw	r2,-300(fp)
   11064:	10800044 	addi	r2,r2,1
   11068:	e0bfb515 	stw	r2,-300(fp)
   1106c:	e0ffb517 	ldw	r3,-300(fp)
   11070:	e0bfff17 	ldw	r2,-4(fp)
   11074:	18bf9b16 	blt	r3,r2,10ee4 <FFT+0x104>
    for(i=0;i<size_n;i++)
    {
        src_com[i].real=src[i];  
        src_com[i].imagin=0;  
    }
    for(i=0;i<k;i++)
   11078:	e0bfb417 	ldw	r2,-304(fp)
   1107c:	10800044 	addi	r2,r2,1
   11080:	e0bfb415 	stw	r2,-304(fp)
   11084:	e0ffb417 	ldw	r3,-304(fp)
   11088:	e0bfb617 	ldw	r2,-296(fp)
   1108c:	18bf9216 	blt	r3,r2,10ed8 <FFT+0xf8>
//        }
//        else
//            printf("%d%dj\n",(int)(src_com[i].real * 1000000),(int)(src_com[i].imagin * 1000000));
//   }
//    LOG_DEBUG("fft result:");
    for(i=0 ; i < size_n; i++)
   11090:	e03fb415 	stw	zero,-304(fp)
   11094:	00001906 	br	110fc <FFT+0x31c>
    {
        dst[i].imagin = src_com[i].imagin;
   11098:	e0bfb417 	ldw	r2,-304(fp)
   1109c:	100490fa 	slli	r2,r2,3
   110a0:	e0fffe17 	ldw	r3,-8(fp)
   110a4:	1885883a 	add	r2,r3,r2
   110a8:	e0ffb417 	ldw	r3,-304(fp)
   110ac:	180690fa 	slli	r3,r3,3
   110b0:	e13fb404 	addi	r4,fp,-304
   110b4:	20c7883a 	add	r3,r4,r3
   110b8:	19000604 	addi	r4,r3,24
   110bc:	20c00017 	ldw	r3,0(r4)
   110c0:	10c00115 	stw	r3,4(r2)
        dst[i].real = src_com[i].real;
   110c4:	e0bfb417 	ldw	r2,-304(fp)
   110c8:	100490fa 	slli	r2,r2,3
   110cc:	e0fffe17 	ldw	r3,-8(fp)
   110d0:	1885883a 	add	r2,r3,r2
   110d4:	e0ffb417 	ldw	r3,-304(fp)
   110d8:	180690fa 	slli	r3,r3,3
   110dc:	e13fb404 	addi	r4,fp,-304
   110e0:	20c7883a 	add	r3,r4,r3
   110e4:	19000504 	addi	r4,r3,20
   110e8:	20c00017 	ldw	r3,0(r4)
   110ec:	10c00015 	stw	r3,0(r2)
//        }
//        else
//            printf("%d%dj\n",(int)(src_com[i].real * 1000000),(int)(src_com[i].imagin * 1000000));
//   }
//    LOG_DEBUG("fft result:");
    for(i=0 ; i < size_n; i++)
   110f0:	e0bfb417 	ldw	r2,-304(fp)
   110f4:	10800044 	addi	r2,r2,1
   110f8:	e0bfb415 	stw	r2,-304(fp)
   110fc:	e0ffb417 	ldw	r3,-304(fp)
   11100:	e0bfff17 	ldw	r2,-4(fp)
   11104:	18bfe416 	blt	r3,r2,11098 <FFT+0x2b8>
    {
        dst[i].imagin = src_com[i].imagin;
        dst[i].real = src_com[i].real;
//        printf("%d + %d i\r\n", dst[i].real, dst[i].imagin);
    }
}
   11108:	e037883a 	mov	sp,fp
   1110c:	dfc00217 	ldw	ra,8(sp)
   11110:	df000117 	ldw	fp,4(sp)
   11114:	dc000017 	ldw	r16,0(sp)
   11118:	dec00304 	addi	sp,sp,12
   1111c:	f800283a 	ret

00011120 <getBeginMessge>:
FreInfo FInfo = {0,0,0,0};
TestMessage ReceiveMessage = {0,0,0,0,0};
OutputMessage Result = {0};

int getBeginMessge()
{
   11120:	deffff04 	addi	sp,sp,-4
   11124:	df000015 	stw	fp,0(sp)
   11128:	d839883a 	mov	fp,sp
//	return 0;
//	return 1;
	return ReceiveMessage.getMessege;
   1112c:	008000b4 	movhi	r2,2
   11130:	10a7fc04 	addi	r2,r2,-24592
   11134:	10800417 	ldw	r2,16(r2)
}
   11138:	e037883a 	mov	sp,fp
   1113c:	df000017 	ldw	fp,0(sp)
   11140:	dec00104 	addi	sp,sp,4
   11144:	f800283a 	ret

00011148 <setDDSFre>:

void setDDSFre()
{
   11148:	defffd04 	addi	sp,sp,-12
   1114c:	dfc00215 	stw	ra,8(sp)
   11150:	df000115 	stw	fp,4(sp)
   11154:	df000104 	addi	fp,sp,4
	AD9833_WaveSeting(FInfo.CurFre, 0, SIN_WAVE, 0);
   11158:	010000b4 	movhi	r4,2
   1115c:	2127f604 	addi	r4,r4,-24616
   11160:	20800017 	ldw	r2,0(r4)
   11164:	20c00117 	ldw	r3,4(r4)
   11168:	d8000015 	stw	zero,0(sp)
   1116c:	1009883a 	mov	r4,r2
   11170:	180b883a 	mov	r5,r3
   11174:	000d883a 	mov	r6,zero
   11178:	01c00044 	movi	r7,1
   1117c:	00107100 	call	10710 <AD9833_WaveSeting>
	IOWR_ALTERA_AVALON_PIO_DATA(PIO_INPUT_BASE, FInfo.divideFre);
   11180:	008000b4 	movhi	r2,2
   11184:	10a7f604 	addi	r2,r2,-24616
   11188:	10c00417 	ldw	r3,16(r2)
   1118c:	008000b4 	movhi	r2,2
   11190:	10841c04 	addi	r2,r2,4208
   11194:	10c00035 	stwio	r3,0(r2)
	IOWR_ALTERA_AVALON_PIO_DATA(PIO_OUTPUT_BASE, FInfo.divideFre);
   11198:	008000b4 	movhi	r2,2
   1119c:	10a7f604 	addi	r2,r2,-24616
   111a0:	10c00417 	ldw	r3,16(r2)
   111a4:	008000b4 	movhi	r2,2
   111a8:	10842004 	addi	r2,r2,4224
   111ac:	10c00035 	stwio	r3,0(r2)

	IOWR_ALTERA_AVALON_PIO_DATA(PIO_RST_BASE,0);
   111b0:	0007883a 	mov	r3,zero
   111b4:	008000b4 	movhi	r2,2
   111b8:	10842804 	addi	r2,r2,4256
   111bc:	10c00035 	stwio	r3,0(r2)
	delay();
   111c0:	0011a940 	call	11a94 <delay>
	IOWR_ALTERA_AVALON_PIO_DATA(PIO_RST_BASE,1);
   111c4:	00c00044 	movi	r3,1
   111c8:	008000b4 	movhi	r2,2
   111cc:	10842804 	addi	r2,r2,4256
   111d0:	10c00035 	stwio	r3,0(r2)
	IOWR_ALTERA_AVALON_PIO_DATA(PIO_START_BASE,1);
   111d4:	00c00044 	movi	r3,1
   111d8:	008000b4 	movhi	r2,2
   111dc:	10842404 	addi	r2,r2,4240
   111e0:	10c00035 	stwio	r3,0(r2)

	if (FInfo.divideFre <= 100000 && FInfo.divideFre > 10000) {
   111e4:	008000b4 	movhi	r2,2
   111e8:	10a7f604 	addi	r2,r2,-24616
   111ec:	10800417 	ldw	r2,16(r2)
   111f0:	00c000b4 	movhi	r3,2
   111f4:	18e1a804 	addi	r3,r3,-31072
   111f8:	18800d16 	blt	r3,r2,11230 <setDDSFre+0xe8>
   111fc:	008000b4 	movhi	r2,2
   11200:	10a7f604 	addi	r2,r2,-24616
   11204:	10800417 	ldw	r2,16(r2)
   11208:	1089c450 	cmplti	r2,r2,10001
   1120c:	1000081e 	bne	r2,zero,11230 <setDDSFre+0xe8>
		FInfo.divideFre = FInfo.divideFre - 1000;
   11210:	008000b4 	movhi	r2,2
   11214:	10a7f604 	addi	r2,r2,-24616
   11218:	10800417 	ldw	r2,16(r2)
   1121c:	10ff0604 	addi	r3,r2,-1000
   11220:	008000b4 	movhi	r2,2
   11224:	10a7f604 	addi	r2,r2,-24616
   11228:	10c00415 	stw	r3,16(r2)
   1122c:	00004706 	br	1134c <setDDSFre+0x204>
	}
	else if (FInfo.divideFre <= 10000 && FInfo.divideFre > 1000) {
   11230:	008000b4 	movhi	r2,2
   11234:	10a7f604 	addi	r2,r2,-24616
   11238:	10800417 	ldw	r2,16(r2)
   1123c:	1089c448 	cmpgei	r2,r2,10001
   11240:	10000d1e 	bne	r2,zero,11278 <setDDSFre+0x130>
   11244:	008000b4 	movhi	r2,2
   11248:	10a7f604 	addi	r2,r2,-24616
   1124c:	10800417 	ldw	r2,16(r2)
   11250:	1080fa50 	cmplti	r2,r2,1001
   11254:	1000081e 	bne	r2,zero,11278 <setDDSFre+0x130>
		FInfo.divideFre = FInfo.divideFre - 100;
   11258:	008000b4 	movhi	r2,2
   1125c:	10a7f604 	addi	r2,r2,-24616
   11260:	10800417 	ldw	r2,16(r2)
   11264:	10ffe704 	addi	r3,r2,-100
   11268:	008000b4 	movhi	r2,2
   1126c:	10a7f604 	addi	r2,r2,-24616
   11270:	10c00415 	stw	r3,16(r2)
   11274:	00003506 	br	1134c <setDDSFre+0x204>
	}
	else if (FInfo.divideFre <= 1000 && FInfo.divideFre > 100) {
   11278:	008000b4 	movhi	r2,2
   1127c:	10a7f604 	addi	r2,r2,-24616
   11280:	10800417 	ldw	r2,16(r2)
   11284:	1080fa48 	cmpgei	r2,r2,1001
   11288:	10000d1e 	bne	r2,zero,112c0 <setDDSFre+0x178>
   1128c:	008000b4 	movhi	r2,2
   11290:	10a7f604 	addi	r2,r2,-24616
   11294:	10800417 	ldw	r2,16(r2)
   11298:	10801950 	cmplti	r2,r2,101
   1129c:	1000081e 	bne	r2,zero,112c0 <setDDSFre+0x178>
		FInfo.divideFre = FInfo.divideFre - 10;
   112a0:	008000b4 	movhi	r2,2
   112a4:	10a7f604 	addi	r2,r2,-24616
   112a8:	10800417 	ldw	r2,16(r2)
   112ac:	10fffd84 	addi	r3,r2,-10
   112b0:	008000b4 	movhi	r2,2
   112b4:	10a7f604 	addi	r2,r2,-24616
   112b8:	10c00415 	stw	r3,16(r2)
   112bc:	00002306 	br	1134c <setDDSFre+0x204>
	}
	else if (FInfo.divideFre <= 100 && FInfo.divideFre > 10) {
   112c0:	008000b4 	movhi	r2,2
   112c4:	10a7f604 	addi	r2,r2,-24616
   112c8:	10800417 	ldw	r2,16(r2)
   112cc:	10801948 	cmpgei	r2,r2,101
   112d0:	10000d1e 	bne	r2,zero,11308 <setDDSFre+0x1c0>
   112d4:	008000b4 	movhi	r2,2
   112d8:	10a7f604 	addi	r2,r2,-24616
   112dc:	10800417 	ldw	r2,16(r2)
   112e0:	108002d0 	cmplti	r2,r2,11
   112e4:	1000081e 	bne	r2,zero,11308 <setDDSFre+0x1c0>
		FInfo.divideFre = FInfo.divideFre - 1;
   112e8:	008000b4 	movhi	r2,2
   112ec:	10a7f604 	addi	r2,r2,-24616
   112f0:	10800417 	ldw	r2,16(r2)
   112f4:	10ffffc4 	addi	r3,r2,-1
   112f8:	008000b4 	movhi	r2,2
   112fc:	10a7f604 	addi	r2,r2,-24616
   11300:	10c00415 	stw	r3,16(r2)
   11304:	00001106 	br	1134c <setDDSFre+0x204>
	}
	else if (FInfo.divideFre <= 10 && FInfo.divideFre > 1) {
   11308:	008000b4 	movhi	r2,2
   1130c:	10a7f604 	addi	r2,r2,-24616
   11310:	10800417 	ldw	r2,16(r2)
   11314:	108002c8 	cmpgei	r2,r2,11
   11318:	10000c1e 	bne	r2,zero,1134c <setDDSFre+0x204>
   1131c:	008000b4 	movhi	r2,2
   11320:	10a7f604 	addi	r2,r2,-24616
   11324:	10800417 	ldw	r2,16(r2)
   11328:	10800090 	cmplti	r2,r2,2
   1132c:	1000071e 	bne	r2,zero,1134c <setDDSFre+0x204>
		FInfo.divideFre = FInfo.divideFre - 1;
   11330:	008000b4 	movhi	r2,2
   11334:	10a7f604 	addi	r2,r2,-24616
   11338:	10800417 	ldw	r2,16(r2)
   1133c:	10ffffc4 	addi	r3,r2,-1
   11340:	008000b4 	movhi	r2,2
   11344:	10a7f604 	addi	r2,r2,-24616
   11348:	10c00415 	stw	r3,16(r2)
	}

	FInfo.CurFre = 1562500 / (float)FInfo.divideFre;
   1134c:	008000b4 	movhi	r2,2
   11350:	10a7f604 	addi	r2,r2,-24616
   11354:	10800417 	ldw	r2,16(r2)
   11358:	1009883a 	mov	r4,r2
   1135c:	0014e3c0 	call	14e3c <__floatsisf>
   11360:	1007883a 	mov	r3,r2
   11364:	01126ff4 	movhi	r4,18879
   11368:	212f0804 	addi	r4,r4,-17376
   1136c:	180b883a 	mov	r5,r3
   11370:	0014d000 	call	14d00 <__divsf3>
   11374:	1007883a 	mov	r3,r2
   11378:	1805883a 	mov	r2,r3
   1137c:	1009883a 	mov	r4,r2
   11380:	0014f840 	call	14f84 <__extendsfdf2>
   11384:	1009883a 	mov	r4,r2
   11388:	180b883a 	mov	r5,r3
   1138c:	008000b4 	movhi	r2,2
   11390:	10a7f604 	addi	r2,r2,-24616
   11394:	11000015 	stw	r4,0(r2)
   11398:	11400115 	stw	r5,4(r2)

//	LOG_DEBUG("next fre %d", (int)(FInfo.CurFre));
//	LOG_DEBUG("next num %d", FInfo.divideFre);
	if(FInfo.divideFre <= 3) {
   1139c:	008000b4 	movhi	r2,2
   113a0:	10a7f604 	addi	r2,r2,-24616
   113a4:	10800417 	ldw	r2,16(r2)
   113a8:	10800108 	cmpgei	r2,r2,4
   113ac:	10000f1e 	bne	r2,zero,113ec <setDDSFre+0x2a4>
		FInfo.endTest = 1;
   113b0:	008000b4 	movhi	r2,2
   113b4:	10a7f604 	addi	r2,r2,-24616
   113b8:	00c00044 	movi	r3,1
   113bc:	10c00515 	stw	r3,20(r2)
		LOG_DEBUG("end test ");
   113c0:	010000b4 	movhi	r4,2
   113c4:	2122d204 	addi	r4,r4,-29880
   113c8:	014000b4 	movhi	r5,2
   113cc:	2962d804 	addi	r5,r5,-29856
   113d0:	01801544 	movi	r6,85
   113d4:	01c000b4 	movhi	r7,2
   113d8:	39e31404 	addi	r7,r7,-29616
   113dc:	00166600 	call	16660 <printf>
   113e0:	010000b4 	movhi	r4,2
   113e4:	2122dc04 	addi	r4,r4,-29840
   113e8:	00167500 	call	16750 <puts>
	}

	uart_input.receive_flag = 0;
   113ec:	008000b4 	movhi	r2,2
   113f0:	10a4e404 	addi	r2,r2,-27760
   113f4:	10000015 	stw	zero,0(r2)
	uart_output.receive_flag = 0;
   113f8:	008000b4 	movhi	r2,2
   113fc:	10a51c04 	addi	r2,r2,-27536
   11400:	10000015 	stw	zero,0(r2)
}
   11404:	e037883a 	mov	sp,fp
   11408:	dfc00117 	ldw	ra,4(sp)
   1140c:	df000017 	ldw	fp,0(sp)
   11410:	dec00204 	addi	sp,sp,8
   11414:	f800283a 	ret

00011418 <testIsOver>:

int testIsOver()
{
   11418:	deffff04 	addi	sp,sp,-4
   1141c:	df000015 	stw	fp,0(sp)
   11420:	d839883a 	mov	fp,sp
//	return 0;
	return FInfo.endTest;
   11424:	008000b4 	movhi	r2,2
   11428:	10a7f604 	addi	r2,r2,-24616
   1142c:	10800517 	ldw	r2,20(r2)
}
   11430:	e037883a 	mov	sp,fp
   11434:	df000017 	ldw	fp,0(sp)
   11438:	dec00104 	addi	sp,sp,4
   1143c:	f800283a 	ret

00011440 <beginFFT>:

void beginFFT()
{
   11440:	deffbe04 	addi	sp,sp,-264
   11444:	dfc04115 	stw	ra,260(sp)
   11448:	df004015 	stw	fp,256(sp)
   1144c:	df004004 	addi	fp,sp,256
	Complex result[SIZE];
	FFT(input,result,SIZE);
   11450:	010000b4 	movhi	r4,2
   11454:	2127b604 	addi	r4,r4,-24872
   11458:	e17fc004 	addi	r5,fp,-256
   1145c:	01800804 	movi	r6,32
   11460:	0010de00 	call	10de0 <FFT>

	Result.inputIm = result[1].imagin;
   11464:	e0ffc317 	ldw	r3,-244(fp)
   11468:	008000b4 	movhi	r2,2
   1146c:	10a80104 	addi	r2,r2,-24572
   11470:	10c00115 	stw	r3,4(r2)
	Result.inputRe = result[1].real;
   11474:	e0ffc217 	ldw	r3,-248(fp)
   11478:	008000b4 	movhi	r2,2
   1147c:	10a80104 	addi	r2,r2,-24572
   11480:	10c00015 	stw	r3,0(r2)
//	LOG_DEBUG("OK");
//	printf("complex(%d, %d),\r\n", (int)(Result.inputRe * 10000), (int)(Result.inputIm * 10000));

	FFT(output,result,SIZE);
   11484:	010000b4 	movhi	r4,2
   11488:	2127d604 	addi	r4,r4,-24744
   1148c:	e17fc004 	addi	r5,fp,-256
   11490:	01800804 	movi	r6,32
   11494:	0010de00 	call	10de0 <FFT>
	Result.outIm = result[1].imagin;
   11498:	e0ffc317 	ldw	r3,-244(fp)
   1149c:	008000b4 	movhi	r2,2
   114a0:	10a80104 	addi	r2,r2,-24572
   114a4:	10c00315 	stw	r3,12(r2)
	Result.outRe = result[1].real;
   114a8:	e0ffc217 	ldw	r3,-248(fp)
   114ac:	008000b4 	movhi	r2,2
   114b0:	10a80104 	addi	r2,r2,-24572
   114b4:	10c00215 	stw	r3,8(r2)


	Result.fre = FInfo.CurFre;
   114b8:	010000b4 	movhi	r4,2
   114bc:	2127f604 	addi	r4,r4,-24616
   114c0:	20800017 	ldw	r2,0(r4)
   114c4:	20c00117 	ldw	r3,4(r4)
   114c8:	010000b4 	movhi	r4,2
   114cc:	21280104 	addi	r4,r4,-24572
   114d0:	20800415 	stw	r2,16(r4)
   114d4:	20c00515 	stw	r3,20(r4)
}
   114d8:	e037883a 	mov	sp,fp
   114dc:	dfc00117 	ldw	ra,4(sp)
   114e0:	df000017 	ldw	fp,0(sp)
   114e4:	dec00204 	addi	sp,sp,8
   114e8:	f800283a 	ret

000114ec <sendMessage>:

void sendMessage()
{
   114ec:	deffd104 	addi	sp,sp,-188
   114f0:	dfc02e15 	stw	ra,184(sp)
   114f4:	df002d15 	stw	fp,180(sp)
   114f8:	dcc02c15 	stw	r19,176(sp)
   114fc:	dc802b15 	stw	r18,172(sp)
   11500:	dc402a15 	stw	r17,168(sp)
   11504:	dc002915 	stw	r16,164(sp)
   11508:	df002904 	addi	fp,sp,164
	unsigned char str[150] = {0};
   1150c:	e0ffda04 	addi	r3,fp,-152
   11510:	00802584 	movi	r2,150
   11514:	1809883a 	mov	r4,r3
   11518:	000b883a 	mov	r5,zero
   1151c:	100d883a 	mov	r6,r2
   11520:	00166040 	call	16604 <memset>

	sprintf(str,"{\"start\":\"data\",\"inRe\":%d,\"inIm\":%d,\"outRe\":%d,\"outIm\":%d,\"fre\":%u,\"end\":\"end\"}\n",
			(int)(Result.inputRe * 100000),(int)(Result.inputIm * 100000),(int)(Result.outRe * 100000),
   11524:	00c000b4 	movhi	r3,2
   11528:	18e80104 	addi	r3,r3,-24572
   1152c:	18800017 	ldw	r2,0(r3)
   11530:	1009883a 	mov	r4,r2
   11534:	0151f0f4 	movhi	r5,18371
   11538:	29540004 	addi	r5,r5,20480
   1153c:	0014b700 	call	14b70 <__mulsf3>
   11540:	1007883a 	mov	r3,r2
   11544:	1805883a 	mov	r2,r3

void sendMessage()
{
	unsigned char str[150] = {0};

	sprintf(str,"{\"start\":\"data\",\"inRe\":%d,\"inIm\":%d,\"outRe\":%d,\"outIm\":%d,\"fre\":%u,\"end\":\"end\"}\n",
   11548:	1009883a 	mov	r4,r2
   1154c:	0014ee00 	call	14ee0 <__fixsfsi>
   11550:	1023883a 	mov	r17,r2
			(int)(Result.inputRe * 100000),(int)(Result.inputIm * 100000),(int)(Result.outRe * 100000),
   11554:	00c000b4 	movhi	r3,2
   11558:	18e80104 	addi	r3,r3,-24572
   1155c:	18800117 	ldw	r2,4(r3)
   11560:	1009883a 	mov	r4,r2
   11564:	0151f0f4 	movhi	r5,18371
   11568:	29540004 	addi	r5,r5,20480
   1156c:	0014b700 	call	14b70 <__mulsf3>
   11570:	1007883a 	mov	r3,r2
   11574:	1805883a 	mov	r2,r3

void sendMessage()
{
	unsigned char str[150] = {0};

	sprintf(str,"{\"start\":\"data\",\"inRe\":%d,\"inIm\":%d,\"outRe\":%d,\"outIm\":%d,\"fre\":%u,\"end\":\"end\"}\n",
   11578:	1009883a 	mov	r4,r2
   1157c:	0014ee00 	call	14ee0 <__fixsfsi>
   11580:	1021883a 	mov	r16,r2
			(int)(Result.inputRe * 100000),(int)(Result.inputIm * 100000),(int)(Result.outRe * 100000),
   11584:	00c000b4 	movhi	r3,2
   11588:	18e80104 	addi	r3,r3,-24572
   1158c:	18800217 	ldw	r2,8(r3)
   11590:	1009883a 	mov	r4,r2
   11594:	0151f0f4 	movhi	r5,18371
   11598:	29540004 	addi	r5,r5,20480
   1159c:	0014b700 	call	14b70 <__mulsf3>
   115a0:	1007883a 	mov	r3,r2
   115a4:	1805883a 	mov	r2,r3

void sendMessage()
{
	unsigned char str[150] = {0};

	sprintf(str,"{\"start\":\"data\",\"inRe\":%d,\"inIm\":%d,\"outRe\":%d,\"outIm\":%d,\"fre\":%u,\"end\":\"end\"}\n",
   115a8:	1009883a 	mov	r4,r2
   115ac:	0014ee00 	call	14ee0 <__fixsfsi>
   115b0:	1027883a 	mov	r19,r2
			(int)(Result.inputRe * 100000),(int)(Result.inputIm * 100000),(int)(Result.outRe * 100000),
			(int)(Result.outIm * 100000),(unsigned int)(Result.fre * 100000));
   115b4:	00c000b4 	movhi	r3,2
   115b8:	18e80104 	addi	r3,r3,-24572
   115bc:	18800317 	ldw	r2,12(r3)
   115c0:	1009883a 	mov	r4,r2
   115c4:	0151f0f4 	movhi	r5,18371
   115c8:	29540004 	addi	r5,r5,20480
   115cc:	0014b700 	call	14b70 <__mulsf3>
   115d0:	1007883a 	mov	r3,r2
   115d4:	1805883a 	mov	r2,r3

void sendMessage()
{
	unsigned char str[150] = {0};

	sprintf(str,"{\"start\":\"data\",\"inRe\":%d,\"inIm\":%d,\"outRe\":%d,\"outIm\":%d,\"fre\":%u,\"end\":\"end\"}\n",
   115d8:	1009883a 	mov	r4,r2
   115dc:	0014ee00 	call	14ee0 <__fixsfsi>
   115e0:	1025883a 	mov	r18,r2
			(int)(Result.inputRe * 100000),(int)(Result.inputIm * 100000),(int)(Result.outRe * 100000),
			(int)(Result.outIm * 100000),(unsigned int)(Result.fre * 100000));
   115e4:	010000b4 	movhi	r4,2
   115e8:	21280104 	addi	r4,r4,-24572
   115ec:	20800417 	ldw	r2,16(r4)
   115f0:	20c00517 	ldw	r3,20(r4)
   115f4:	1009883a 	mov	r4,r2
   115f8:	180b883a 	mov	r5,r3
   115fc:	000d883a 	mov	r6,zero
   11600:	01d03e34 	movhi	r7,16632
   11604:	39da8004 	addi	r7,r7,27136
   11608:	00153d00 	call	153d0 <__muldf3>
   1160c:	1009883a 	mov	r4,r2
   11610:	180b883a 	mov	r5,r3
   11614:	2005883a 	mov	r2,r4
   11618:	2807883a 	mov	r3,r5

void sendMessage()
{
	unsigned char str[150] = {0};

	sprintf(str,"{\"start\":\"data\",\"inRe\":%d,\"inIm\":%d,\"outRe\":%d,\"outIm\":%d,\"fre\":%u,\"end\":\"end\"}\n",
   1161c:	1009883a 	mov	r4,r2
   11620:	180b883a 	mov	r5,r3
   11624:	00148540 	call	14854 <__fixunsdfsi>
   11628:	dcc00015 	stw	r19,0(sp)
   1162c:	dc800115 	stw	r18,4(sp)
   11630:	d8800215 	stw	r2,8(sp)
   11634:	e13fda04 	addi	r4,fp,-152
   11638:	014000b4 	movhi	r5,2
   1163c:	2962dd04 	addi	r5,r5,-29836
   11640:	880d883a 	mov	r6,r17
   11644:	800f883a 	mov	r7,r16
   11648:	00167cc0 	call	167cc <sprintf>
			(int)(Result.inputRe * 100000),(int)(Result.inputIm * 100000),(int)(Result.outRe * 100000),
			(int)(Result.outIm * 100000),(unsigned int)(Result.fre * 100000));
	log_hex(str,strlen(str));
   1164c:	e13fda04 	addi	r4,fp,-152
   11650:	001689c0 	call	1689c <strlen>
   11654:	e13fda04 	addi	r4,fp,-152
   11658:	100b883a 	mov	r5,r2
   1165c:	0011ad00 	call	11ad0 <log_hex>
	uart.send_string(strlen(str),str);
   11660:	008000b4 	movhi	r2,2
   11664:	10a4ac04 	addi	r2,r2,-27984
   11668:	14003517 	ldw	r16,212(r2)
   1166c:	e13fda04 	addi	r4,fp,-152
   11670:	001689c0 	call	1689c <strlen>
   11674:	1009883a 	mov	r4,r2
   11678:	e17fda04 	addi	r5,fp,-152
   1167c:	803ee83a 	callr	r16
	delay();
   11680:	0011a940 	call	11a94 <delay>
}
   11684:	e037883a 	mov	sp,fp
   11688:	dfc00517 	ldw	ra,20(sp)
   1168c:	df000417 	ldw	fp,16(sp)
   11690:	dcc00317 	ldw	r19,12(sp)
   11694:	dc800217 	ldw	r18,8(sp)
   11698:	dc400117 	ldw	r17,4(sp)
   1169c:	dc000017 	ldw	r16,0(sp)
   116a0:	dec00604 	addi	sp,sp,24
   116a4:	f800283a 	ret

000116a8 <sampleIsReady>:

int sampleIsReady()
{
   116a8:	deffff04 	addi	sp,sp,-4
   116ac:	df000015 	stw	fp,0(sp)
   116b0:	d839883a 	mov	fp,sp
//	return 1;
	return uart_input.receive_flag && uart_output.receive_flag;
   116b4:	008000b4 	movhi	r2,2
   116b8:	10a4e404 	addi	r2,r2,-27760
   116bc:	10800017 	ldw	r2,0(r2)
   116c0:	10000626 	beq	r2,zero,116dc <sampleIsReady+0x34>
   116c4:	008000b4 	movhi	r2,2
   116c8:	10a51c04 	addi	r2,r2,-27536
   116cc:	10800017 	ldw	r2,0(r2)
   116d0:	10000226 	beq	r2,zero,116dc <sampleIsReady+0x34>
   116d4:	00800044 	movi	r2,1
   116d8:	00000106 	br	116e0 <sampleIsReady+0x38>
   116dc:	0005883a 	mov	r2,zero
//	return uart_input.receive_flag;
}
   116e0:	e037883a 	mov	sp,fp
   116e4:	df000017 	ldw	fp,0(sp)
   116e8:	dec00104 	addi	sp,sp,4
   116ec:	f800283a 	ret

000116f0 <init>:

void init()
{
   116f0:	defffe04 	addi	sp,sp,-8
   116f4:	dfc00115 	stw	ra,4(sp)
   116f8:	df000015 	stw	fp,0(sp)
   116fc:	d839883a 	mov	fp,sp
	memset(&FInfo, 0, sizeof(FInfo));
   11700:	010000b4 	movhi	r4,2
   11704:	2127f604 	addi	r4,r4,-24616
   11708:	000b883a 	mov	r5,zero
   1170c:	01800604 	movi	r6,24
   11710:	00166040 	call	16604 <memset>
	memset(&ReceiveMessage, 0, sizeof(ReceiveMessage));
   11714:	010000b4 	movhi	r4,2
   11718:	2127fc04 	addi	r4,r4,-24592
   1171c:	000b883a 	mov	r5,zero
   11720:	01800504 	movi	r6,20
   11724:	00166040 	call	16604 <memset>
	memset(&Result, 0, sizeof(Result));
   11728:	010000b4 	movhi	r4,2
   1172c:	21280104 	addi	r4,r4,-24572
   11730:	000b883a 	mov	r5,zero
   11734:	01800604 	movi	r6,24
   11738:	00166040 	call	16604 <memset>
}
   1173c:	e037883a 	mov	sp,fp
   11740:	dfc00117 	ldw	ra,4(sp)
   11744:	df000017 	ldw	fp,0(sp)
   11748:	dec00204 	addi	sp,sp,8
   1174c:	f800283a 	ret

00011750 <show>:

void show(OutputMessage Result) {
   11750:	defffb04 	addi	sp,sp,-20
   11754:	df000015 	stw	fp,0(sp)
   11758:	d839883a 	mov	fp,sp
   1175c:	e1000115 	stw	r4,4(fp)
   11760:	e1400215 	stw	r5,8(fp)
   11764:	e1800315 	stw	r6,12(fp)
   11768:	e1c00415 	stw	r7,16(fp)
//	LOG_DEBUG("inputRe: %d", (int)(Result.inputRe));
//	LOG_DEBUG("inputIm: %d", (int)(Result.inputIm));
//	LOG_DEBUG("outRe: %d", (int)(Result.outRe));
//	LOG_DEBUG("outIm: %d", (int)(Result.outIm));
//	LOG_DEBUG("fre: %d", (int)(Result.fre));
}
   1176c:	e037883a 	mov	sp,fp
   11770:	df000017 	ldw	fp,0(sp)
   11774:	dec00504 	addi	sp,sp,20
   11778:	f800283a 	ret

0001177c <msg_proc>:

int msg_proc(unsigned char *data, int length)
{
   1177c:	defffc04 	addi	sp,sp,-16
   11780:	dfc00315 	stw	ra,12(sp)
   11784:	df000215 	stw	fp,8(sp)
   11788:	df000204 	addi	fp,sp,8
   1178c:	e13ffe15 	stw	r4,-8(fp)
   11790:	e17fff15 	stw	r5,-4(fp)
	if(NULL != strstr(data, "S f"))
   11794:	e13ffe17 	ldw	r4,-8(fp)
   11798:	014000b4 	movhi	r5,2
   1179c:	2962f204 	addi	r5,r5,-29752
   117a0:	00168c40 	call	168c4 <strstr>
   117a4:	10001e26 	beq	r2,zero,11820 <msg_proc+0xa4>
	{
		ReceiveMessage.getMessege = 1;
   117a8:	008000b4 	movhi	r2,2
   117ac:	10a7fc04 	addi	r2,r2,-24592
   117b0:	00c00044 	movi	r3,1
   117b4:	10c00415 	stw	r3,16(r2)
		FInfo.CurFre = 15.625;
   117b8:	008000b4 	movhi	r2,2
   117bc:	10a7f604 	addi	r2,r2,-24616
   117c0:	10000015 	stw	zero,0(r2)
   117c4:	00d00bf4 	movhi	r3,16431
   117c8:	18d00004 	addi	r3,r3,16384
   117cc:	10c00115 	stw	r3,4(r2)
		FInfo.divideFre = 100000;
   117d0:	008000b4 	movhi	r2,2
   117d4:	10a7f604 	addi	r2,r2,-24616
   117d8:	00c000b4 	movhi	r3,2
   117dc:	18e1a804 	addi	r3,r3,-31072
   117e0:	10c00415 	stw	r3,16(r2)
		FInfo.endTest = 0;
   117e4:	008000b4 	movhi	r2,2
   117e8:	10a7f604 	addi	r2,r2,-24616
   117ec:	10000515 	stw	zero,20(r2)

		LOG_DEBUG("start");
   117f0:	010000b4 	movhi	r4,2
   117f4:	2122f304 	addi	r4,r4,-29748
   117f8:	014000b4 	movhi	r5,2
   117fc:	2962d804 	addi	r5,r5,-29856
   11800:	018027c4 	movi	r6,159
   11804:	01c000b4 	movhi	r7,2
   11808:	39e31104 	addi	r7,r7,-29628
   1180c:	00166600 	call	16660 <printf>
   11810:	010000b4 	movhi	r4,2
   11814:	2122dc04 	addi	r4,r4,-29840
   11818:	00167500 	call	16750 <puts>
   1181c:	00001306 	br	1186c <msg_proc+0xf0>
	}
	else if(NULL != strstr(data, "stop"))
   11820:	e13ffe17 	ldw	r4,-8(fp)
   11824:	014000b4 	movhi	r5,2
   11828:	2962f804 	addi	r5,r5,-29728
   1182c:	00168c40 	call	168c4 <strstr>
   11830:	10000e26 	beq	r2,zero,1186c <msg_proc+0xf0>
	{
		ReceiveMessage.getMessege = 0;
   11834:	008000b4 	movhi	r2,2
   11838:	10a7fc04 	addi	r2,r2,-24592
   1183c:	10000415 	stw	zero,16(r2)
		LOG_DEBUG("end");
   11840:	010000b4 	movhi	r4,2
   11844:	2122fa04 	addi	r4,r4,-29720
   11848:	014000b4 	movhi	r5,2
   1184c:	2962d804 	addi	r5,r5,-29856
   11850:	01802904 	movi	r6,164
   11854:	01c000b4 	movhi	r7,2
   11858:	39e31104 	addi	r7,r7,-29628
   1185c:	00166600 	call	16660 <printf>
   11860:	010000b4 	movhi	r4,2
   11864:	2122dc04 	addi	r4,r4,-29840
   11868:	00167500 	call	16750 <puts>
	}
	return 0;
   1186c:	0005883a 	mov	r2,zero
}
   11870:	e037883a 	mov	sp,fp
   11874:	dfc00117 	ldw	ra,4(sp)
   11878:	df000017 	ldw	fp,0(sp)
   1187c:	dec00204 	addi	sp,sp,8
   11880:	f800283a 	ret

00011884 <main>:

extern unsigned char inputData[64];
extern unsigned char outputData[64];

int main()
{
   11884:	defffb04 	addi	sp,sp,-20
   11888:	dfc00415 	stw	ra,16(sp)
   1188c:	df000315 	stw	fp,12(sp)
   11890:	df000304 	addi	fp,sp,12
	LOG_DEBUG("Hello from Nios II!");
   11894:	010000b4 	movhi	r4,2
   11898:	2122ff04 	addi	r4,r4,-29700
   1189c:	014000b4 	movhi	r5,2
   118a0:	2962d804 	addi	r5,r5,-29856
   118a4:	01802b84 	movi	r6,174
   118a8:	d1e00004 	addi	r7,gp,-32768
   118ac:	00166600 	call	16660 <printf>
   118b0:	010000b4 	movhi	r4,2
   118b4:	2122dc04 	addi	r4,r4,-29840
   118b8:	00167500 	call	16750 <puts>
	int i = 0,j = 0;
   118bc:	e03ffe15 	stw	zero,-8(fp)
   118c0:	e03fff15 	stw	zero,-4(fp)
	uart.init();
   118c4:	008000b4 	movhi	r2,2
   118c8:	10a4ac04 	addi	r2,r2,-27984
   118cc:	10803617 	ldw	r2,216(r2)
   118d0:	103ee83a 	callr	r2
	uart_input.init();
   118d4:	008000b4 	movhi	r2,2
   118d8:	10a4e404 	addi	r2,r2,-27760
   118dc:	10803617 	ldw	r2,216(r2)
   118e0:	103ee83a 	callr	r2
	uart_output.init();
   118e4:	008000b4 	movhi	r2,2
   118e8:	10a51c04 	addi	r2,r2,-27536
   118ec:	10803617 	ldw	r2,216(r2)
   118f0:	103ee83a 	callr	r2

	init();
   118f4:	00116f00 	call	116f0 <init>
	FInfo.CurFre = 15.625;
   118f8:	008000b4 	movhi	r2,2
   118fc:	10a7f604 	addi	r2,r2,-24616
   11900:	10000015 	stw	zero,0(r2)
   11904:	00d00bf4 	movhi	r3,16431
   11908:	18d00004 	addi	r3,r3,16384
   1190c:	10c00115 	stw	r3,4(r2)
	FInfo.divideFre = 100000;
   11910:	008000b4 	movhi	r2,2
   11914:	10a7f604 	addi	r2,r2,-24616
   11918:	00c000b4 	movhi	r3,2
   1191c:	18e1a804 	addi	r3,r3,-31072
   11920:	10c00415 	stw	r3,16(r2)
	FInfo.endTest = 0;
   11924:	008000b4 	movhi	r2,2
   11928:	10a7f604 	addi	r2,r2,-24616
   1192c:	10000515 	stw	zero,20(r2)

	for(i = 0; ;i++)
   11930:	e03ffe15 	stw	zero,-8(fp)
	{
		if(uart.receive_flag == 1)
   11934:	008000b4 	movhi	r2,2
   11938:	10a4ac04 	addi	r2,r2,-27984
   1193c:	10800017 	ldw	r2,0(r2)
   11940:	10800058 	cmpnei	r2,r2,1
   11944:	1000051e 	bne	r2,zero,1195c <main+0xd8>
		{
			j = 1;
   11948:	00800044 	movi	r2,1
   1194c:	e0bfff15 	stw	r2,-4(fp)
			uart.receive_flag = 0;
   11950:	008000b4 	movhi	r2,2
   11954:	10a4ac04 	addi	r2,r2,-27984
   11958:	10000015 	stw	zero,0(r2)
		}
		if(j != 0)
   1195c:	e0bfff17 	ldw	r2,-4(fp)
   11960:	10002626 	beq	r2,zero,119fc <main+0x178>
		{
			j++;
   11964:	e0bfff17 	ldw	r2,-4(fp)
   11968:	10800044 	addi	r2,r2,1
   1196c:	e0bfff15 	stw	r2,-4(fp)
			if(j > 1000)
   11970:	e0bfff17 	ldw	r2,-4(fp)
   11974:	1080fa50 	cmplti	r2,r2,1001
   11978:	1000201e 	bne	r2,zero,119fc <main+0x178>
			{
				LOG_DEBUG("wifi recieve %d data:", uart.receive_count);
   1197c:	008000b4 	movhi	r2,2
   11980:	10a4ac04 	addi	r2,r2,-27984
   11984:	10800117 	ldw	r2,4(r2)
   11988:	d8800015 	stw	r2,0(sp)
   1198c:	010000b4 	movhi	r4,2
   11990:	21230804 	addi	r4,r4,-29664
   11994:	014000b4 	movhi	r5,2
   11998:	2962d804 	addi	r5,r5,-29856
   1199c:	01803144 	movi	r6,197
   119a0:	d1e00004 	addi	r7,gp,-32768
   119a4:	00166600 	call	16660 <printf>
   119a8:	010000b4 	movhi	r4,2
   119ac:	2122dc04 	addi	r4,r4,-29840
   119b0:	00167500 	call	16750 <puts>
				log_hex(uart.receive_buffer, uart.receive_count);
   119b4:	008000b4 	movhi	r2,2
   119b8:	10a4ac04 	addi	r2,r2,-27984
   119bc:	10800117 	ldw	r2,4(r2)
   119c0:	010000b4 	movhi	r4,2
   119c4:	2124ae04 	addi	r4,r4,-27976
   119c8:	100b883a 	mov	r5,r2
   119cc:	0011ad00 	call	11ad0 <log_hex>
				msg_proc(uart.receive_buffer, uart.receive_count);
   119d0:	008000b4 	movhi	r2,2
   119d4:	10a4ac04 	addi	r2,r2,-27984
   119d8:	10800117 	ldw	r2,4(r2)
   119dc:	010000b4 	movhi	r4,2
   119e0:	2124ae04 	addi	r4,r4,-27976
   119e4:	100b883a 	mov	r5,r2
   119e8:	001177c0 	call	1177c <msg_proc>
				uart.receive_count = 0;
   119ec:	008000b4 	movhi	r2,2
   119f0:	10a4ac04 	addi	r2,r2,-27984
   119f4:	10000115 	stw	zero,4(r2)
				j = 0;
   119f8:	e03fff15 	stw	zero,-4(fp)
			}
		}

		if(!getBeginMessge() || testIsOver())
   119fc:	00111200 	call	11120 <getBeginMessge>
   11a00:	10001f26 	beq	r2,zero,11a80 <main+0x1fc>
   11a04:	00114180 	call	11418 <testIsOver>
   11a08:	10001d1e 	bne	r2,zero,11a80 <main+0x1fc>
//			delay();
//			delay();
			continue;
		}

		setDDSFre();
   11a0c:	00111480 	call	11148 <setDDSFre>
		while(!sampleIsReady());
   11a10:	0001883a 	nop
   11a14:	00116a80 	call	116a8 <sampleIsReady>
   11a18:	103ffe26 	beq	r2,zero,11a14 <main+0x190>
		parseAdData(input, uart_input.receive_buffer);
   11a1c:	010000b4 	movhi	r4,2
   11a20:	2127b604 	addi	r4,r4,-24872
   11a24:	014000b4 	movhi	r5,2
   11a28:	2964e604 	addi	r5,r5,-27752
   11a2c:	00101f40 	call	101f4 <parseAdData>
		parseAdData(output, uart_output.receive_buffer);
   11a30:	010000b4 	movhi	r4,2
   11a34:	2127d604 	addi	r4,r4,-24744
   11a38:	014000b4 	movhi	r5,2
   11a3c:	29651e04 	addi	r5,r5,-27528
   11a40:	00101f40 	call	101f4 <parseAdData>
		beginFFT();
   11a44:	00114400 	call	11440 <beginFFT>
		IOWR_ALTERA_AVALON_PIO_DATA(PIO_START_BASE,0);
   11a48:	0007883a 	mov	r3,zero
   11a4c:	008000b4 	movhi	r2,2
   11a50:	10842404 	addi	r2,r2,4240
   11a54:	10c00035 	stwio	r3,0(r2)
		IOWR_ALTERA_AVALON_PIO_DATA(PIO_RST_BASE,0);
   11a58:	0007883a 	mov	r3,zero
   11a5c:	008000b4 	movhi	r2,2
   11a60:	10842804 	addi	r2,r2,4256
   11a64:	10c00035 	stwio	r3,0(r2)
		sendMessage();
   11a68:	00114ec0 	call	114ec <sendMessage>
		if(j > 0)
   11a6c:	e0bfff17 	ldw	r2,-4(fp)
   11a70:	0080040e 	bge	zero,r2,11a84 <main+0x200>
		{
			j = 1000;
   11a74:	0080fa04 	movi	r2,1000
   11a78:	e0bfff15 	stw	r2,-4(fp)
   11a7c:	00000106 	br	11a84 <main+0x200>
//			delay();
//			delay();
//			delay();
//			delay();
//			delay();
			continue;
   11a80:	0001883a 	nop
	init();
	FInfo.CurFre = 15.625;
	FInfo.divideFre = 100000;
	FInfo.endTest = 0;

	for(i = 0; ;i++)
   11a84:	e0bffe17 	ldw	r2,-8(fp)
   11a88:	10800044 	addi	r2,r2,1
   11a8c:	e0bffe15 	stw	r2,-8(fp)
		if(j > 0)
		{
			j = 1000;
		}
//		show(Result);
	}
   11a90:	003fa806 	br	11934 <main+0xb0>

00011a94 <delay>:
	LOG_DEBUG("end main");
	return 0;
}

void delay() {
   11a94:	defffe04 	addi	sp,sp,-8
   11a98:	df000115 	stw	fp,4(sp)
   11a9c:	df000104 	addi	fp,sp,4
	int i = 0;
   11aa0:	e03fff15 	stw	zero,-4(fp)
	for(; i < 100; i ++);
   11aa4:	00000306 	br	11ab4 <delay+0x20>
   11aa8:	e0bfff17 	ldw	r2,-4(fp)
   11aac:	10800044 	addi	r2,r2,1
   11ab0:	e0bfff15 	stw	r2,-4(fp)
   11ab4:	e0bfff17 	ldw	r2,-4(fp)
   11ab8:	10801910 	cmplti	r2,r2,100
   11abc:	103ffa1e 	bne	r2,zero,11aa8 <delay+0x14>
}
   11ac0:	e037883a 	mov	sp,fp
   11ac4:	df000017 	ldw	fp,0(sp)
   11ac8:	dec00104 	addi	sp,sp,4
   11acc:	f800283a 	ret

00011ad0 <log_hex>:
 * 02  30 34 39 30 31 36 38 30 00 00 00 00 00 00 00 00     04901680........
 * 03  00 00 00 00 00 00 00 00 00 00 00 00                 ............
 *
 */
void log_hex(const char* data, int length)
{
   11ad0:	defffa04 	addi	sp,sp,-24
   11ad4:	dfc00515 	stw	ra,20(sp)
   11ad8:	df000415 	stw	fp,16(sp)
   11adc:	df000404 	addi	fp,sp,16
   11ae0:	e13ffe15 	stw	r4,-8(fp)
   11ae4:	e17fff15 	stw	r5,-4(fp)
    int i = 0, j = 0;
   11ae8:	e03ffc15 	stw	zero,-16(fp)
   11aec:	e03ffd15 	stw	zero,-12(fp)

    printf("    ");
   11af0:	010000b4 	movhi	r4,2
   11af4:	21231704 	addi	r4,r4,-29604
   11af8:	00166600 	call	16660 <printf>
    for (i  = 0; i < 16; i++)
   11afc:	e03ffc15 	stw	zero,-16(fp)
   11b00:	00000706 	br	11b20 <log_hex+0x50>
    {
        printf("%X  ", i);
   11b04:	010000b4 	movhi	r4,2
   11b08:	21231904 	addi	r4,r4,-29596
   11b0c:	e17ffc17 	ldw	r5,-16(fp)
   11b10:	00166600 	call	16660 <printf>
void log_hex(const char* data, int length)
{
    int i = 0, j = 0;

    printf("    ");
    for (i  = 0; i < 16; i++)
   11b14:	e0bffc17 	ldw	r2,-16(fp)
   11b18:	10800044 	addi	r2,r2,1
   11b1c:	e0bffc15 	stw	r2,-16(fp)
   11b20:	e0bffc17 	ldw	r2,-16(fp)
   11b24:	10800410 	cmplti	r2,r2,16
   11b28:	103ff61e 	bne	r2,zero,11b04 <log_hex+0x34>
    {
        printf("%X  ", i);
    }
    printf("    ");
   11b2c:	010000b4 	movhi	r4,2
   11b30:	21231704 	addi	r4,r4,-29604
   11b34:	00166600 	call	16660 <printf>
    for (i = 0; i < 16; i++)
   11b38:	e03ffc15 	stw	zero,-16(fp)
   11b3c:	00000706 	br	11b5c <log_hex+0x8c>
    {
        printf("%X", i);
   11b40:	010000b4 	movhi	r4,2
   11b44:	21231b04 	addi	r4,r4,-29588
   11b48:	e17ffc17 	ldw	r5,-16(fp)
   11b4c:	00166600 	call	16660 <printf>
    for (i  = 0; i < 16; i++)
    {
        printf("%X  ", i);
    }
    printf("    ");
    for (i = 0; i < 16; i++)
   11b50:	e0bffc17 	ldw	r2,-16(fp)
   11b54:	10800044 	addi	r2,r2,1
   11b58:	e0bffc15 	stw	r2,-16(fp)
   11b5c:	e0bffc17 	ldw	r2,-16(fp)
   11b60:	10800410 	cmplti	r2,r2,16
   11b64:	103ff61e 	bne	r2,zero,11b40 <log_hex+0x70>
    {
        printf("%X", i);
    }

    printf("\r\n");
   11b68:	010000b4 	movhi	r4,2
   11b6c:	21231c04 	addi	r4,r4,-29584
   11b70:	00167500 	call	16750 <puts>

    for (i = 0; i < length; i += 16)
   11b74:	e03ffc15 	stw	zero,-16(fp)
   11b78:	00007206 	br	11d44 <log_hex+0x274>
    {
        printf("%02d  ", i / 16 + 1);
   11b7c:	e0bffc17 	ldw	r2,-16(fp)
   11b80:	1000010e 	bge	r2,zero,11b88 <log_hex+0xb8>
   11b84:	108003c4 	addi	r2,r2,15
   11b88:	1005d13a 	srai	r2,r2,4
   11b8c:	10800044 	addi	r2,r2,1
   11b90:	010000b4 	movhi	r4,2
   11b94:	21231d04 	addi	r4,r4,-29580
   11b98:	100b883a 	mov	r5,r2
   11b9c:	00166600 	call	16660 <printf>
        for (j = i; j < i + 16 && j < length; j++)
   11ba0:	e0bffc17 	ldw	r2,-16(fp)
   11ba4:	e0bffd15 	stw	r2,-12(fp)
   11ba8:	00000f06 	br	11be8 <log_hex+0x118>
        {
            printf("%02x ", data[j] & 0xff);
   11bac:	e0bffd17 	ldw	r2,-12(fp)
   11bb0:	e0fffe17 	ldw	r3,-8(fp)
   11bb4:	1885883a 	add	r2,r3,r2
   11bb8:	10800003 	ldbu	r2,0(r2)
   11bbc:	10803fcc 	andi	r2,r2,255
   11bc0:	1080201c 	xori	r2,r2,128
   11bc4:	10bfe004 	addi	r2,r2,-128
   11bc8:	10803fcc 	andi	r2,r2,255
   11bcc:	010000b4 	movhi	r4,2
   11bd0:	21231f04 	addi	r4,r4,-29572
   11bd4:	100b883a 	mov	r5,r2
   11bd8:	00166600 	call	16660 <printf>
    printf("\r\n");

    for (i = 0; i < length; i += 16)
    {
        printf("%02d  ", i / 16 + 1);
        for (j = i; j < i + 16 && j < length; j++)
   11bdc:	e0bffd17 	ldw	r2,-12(fp)
   11be0:	10800044 	addi	r2,r2,1
   11be4:	e0bffd15 	stw	r2,-12(fp)
   11be8:	e0bffc17 	ldw	r2,-16(fp)
   11bec:	10800404 	addi	r2,r2,16
   11bf0:	e0fffd17 	ldw	r3,-12(fp)
   11bf4:	1880030e 	bge	r3,r2,11c04 <log_hex+0x134>
   11bf8:	e0fffd17 	ldw	r3,-12(fp)
   11bfc:	e0bfff17 	ldw	r2,-4(fp)
   11c00:	18bfea16 	blt	r3,r2,11bac <log_hex+0xdc>
        {
            printf("%02x ", data[j] & 0xff);
        }
        if (j == length && length % 16)
   11c04:	e0fffd17 	ldw	r3,-12(fp)
   11c08:	e0bfff17 	ldw	r2,-4(fp)
   11c0c:	1880181e 	bne	r3,r2,11c70 <log_hex+0x1a0>
   11c10:	e0bfff17 	ldw	r2,-4(fp)
   11c14:	108003cc 	andi	r2,r2,15
   11c18:	10001526 	beq	r2,zero,11c70 <log_hex+0x1a0>
        {
            for (j = 0; j < (16 - length % 16); j++)
   11c1c:	e03ffd15 	stw	zero,-12(fp)
   11c20:	00000606 	br	11c3c <log_hex+0x16c>
            {
                printf("   ");
   11c24:	010000b4 	movhi	r4,2
   11c28:	21232104 	addi	r4,r4,-29564
   11c2c:	00166600 	call	16660 <printf>
        {
            printf("%02x ", data[j] & 0xff);
        }
        if (j == length && length % 16)
        {
            for (j = 0; j < (16 - length % 16); j++)
   11c30:	e0bffd17 	ldw	r2,-12(fp)
   11c34:	10800044 	addi	r2,r2,1
   11c38:	e0bffd15 	stw	r2,-12(fp)
   11c3c:	e0ffff17 	ldw	r3,-4(fp)
   11c40:	00a00034 	movhi	r2,32768
   11c44:	108003c4 	addi	r2,r2,15
   11c48:	1884703a 	and	r2,r3,r2
   11c4c:	1000040e 	bge	r2,zero,11c60 <log_hex+0x190>
   11c50:	10bfffc4 	addi	r2,r2,-1
   11c54:	00fffc04 	movi	r3,-16
   11c58:	10c4b03a 	or	r2,r2,r3
   11c5c:	10800044 	addi	r2,r2,1
   11c60:	00c00404 	movi	r3,16
   11c64:	1885c83a 	sub	r2,r3,r2
   11c68:	e0fffd17 	ldw	r3,-12(fp)
   11c6c:	18bfed16 	blt	r3,r2,11c24 <log_hex+0x154>
            {
                printf("   ");
            }
        }
        printf("    ");
   11c70:	010000b4 	movhi	r4,2
   11c74:	21231704 	addi	r4,r4,-29604
   11c78:	00166600 	call	16660 <printf>
        for (j = i; j < i + 16 && j < length; j++)
   11c7c:	e0bffc17 	ldw	r2,-16(fp)
   11c80:	e0bffd15 	stw	r2,-12(fp)
   11c84:	00002206 	br	11d10 <log_hex+0x240>
        {
            if (data[j] < 32 || data[j] >= 127)
   11c88:	e0bffd17 	ldw	r2,-12(fp)
   11c8c:	e0fffe17 	ldw	r3,-8(fp)
   11c90:	1885883a 	add	r2,r3,r2
   11c94:	10800003 	ldbu	r2,0(r2)
   11c98:	10803fcc 	andi	r2,r2,255
   11c9c:	1080201c 	xori	r2,r2,128
   11ca0:	10bfe004 	addi	r2,r2,-128
   11ca4:	10800810 	cmplti	r2,r2,32
   11ca8:	1000091e 	bne	r2,zero,11cd0 <log_hex+0x200>
   11cac:	e0bffd17 	ldw	r2,-12(fp)
   11cb0:	e0fffe17 	ldw	r3,-8(fp)
   11cb4:	1885883a 	add	r2,r3,r2
   11cb8:	10800003 	ldbu	r2,0(r2)
   11cbc:	10803fcc 	andi	r2,r2,255
   11cc0:	1080201c 	xori	r2,r2,128
   11cc4:	10bfe004 	addi	r2,r2,-128
   11cc8:	10801fd8 	cmpnei	r2,r2,127
   11ccc:	1000031e 	bne	r2,zero,11cdc <log_hex+0x20c>
            {
                printf(".");
   11cd0:	01000b84 	movi	r4,46
   11cd4:	00166b40 	call	166b4 <putchar>
   11cd8:	00000a06 	br	11d04 <log_hex+0x234>
            }
            else
            {
                printf("%c", data[j] & 0xff);
   11cdc:	e0bffd17 	ldw	r2,-12(fp)
   11ce0:	e0fffe17 	ldw	r3,-8(fp)
   11ce4:	1885883a 	add	r2,r3,r2
   11ce8:	10800003 	ldbu	r2,0(r2)
   11cec:	10803fcc 	andi	r2,r2,255
   11cf0:	1080201c 	xori	r2,r2,128
   11cf4:	10bfe004 	addi	r2,r2,-128
   11cf8:	10803fcc 	andi	r2,r2,255
   11cfc:	1009883a 	mov	r4,r2
   11d00:	00166b40 	call	166b4 <putchar>
            {
                printf("   ");
            }
        }
        printf("    ");
        for (j = i; j < i + 16 && j < length; j++)
   11d04:	e0bffd17 	ldw	r2,-12(fp)
   11d08:	10800044 	addi	r2,r2,1
   11d0c:	e0bffd15 	stw	r2,-12(fp)
   11d10:	e0bffc17 	ldw	r2,-16(fp)
   11d14:	10800404 	addi	r2,r2,16
   11d18:	e0fffd17 	ldw	r3,-12(fp)
   11d1c:	1880030e 	bge	r3,r2,11d2c <log_hex+0x25c>
   11d20:	e0fffd17 	ldw	r3,-12(fp)
   11d24:	e0bfff17 	ldw	r2,-4(fp)
   11d28:	18bfd716 	blt	r3,r2,11c88 <log_hex+0x1b8>
            {
                printf("%c", data[j] & 0xff);
            }
        }

        printf("\r\n");
   11d2c:	010000b4 	movhi	r4,2
   11d30:	21231c04 	addi	r4,r4,-29584
   11d34:	00167500 	call	16750 <puts>
        printf("%X", i);
    }

    printf("\r\n");

    for (i = 0; i < length; i += 16)
   11d38:	e0bffc17 	ldw	r2,-16(fp)
   11d3c:	10800404 	addi	r2,r2,16
   11d40:	e0bffc15 	stw	r2,-16(fp)
   11d44:	e0fffc17 	ldw	r3,-16(fp)
   11d48:	e0bfff17 	ldw	r2,-4(fp)
   11d4c:	18bf8b16 	blt	r3,r2,11b7c <log_hex+0xac>
            }
        }

        printf("\r\n");
    }
}
   11d50:	e037883a 	mov	sp,fp
   11d54:	dfc00117 	ldw	ra,4(sp)
   11d58:	df000017 	ldw	fp,0(sp)
   11d5c:	dec00204 	addi	sp,sp,8
   11d60:	f800283a 	ret

00011d64 <getStartMessge>:
 */

#include "message.h"

int getStartMessge(char* message)
{
   11d64:	defffd04 	addi	sp,sp,-12
   11d68:	dfc00215 	stw	ra,8(sp)
   11d6c:	df000115 	stw	fp,4(sp)
   11d70:	df000104 	addi	fp,sp,4
   11d74:	e13fff15 	stw	r4,-4(fp)
    return NULL != strchr(message,'S') && NULL != strchr(message,'E');
   11d78:	e13fff17 	ldw	r4,-4(fp)
   11d7c:	014014c4 	movi	r5,83
   11d80:	00168480 	call	16848 <strchr>
   11d84:	10000626 	beq	r2,zero,11da0 <getStartMessge+0x3c>
   11d88:	e13fff17 	ldw	r4,-4(fp)
   11d8c:	01401144 	movi	r5,69
   11d90:	00168480 	call	16848 <strchr>
   11d94:	10000226 	beq	r2,zero,11da0 <getStartMessge+0x3c>
   11d98:	00800044 	movi	r2,1
   11d9c:	00000106 	br	11da4 <getStartMessge+0x40>
   11da0:	0005883a 	mov	r2,zero
}
   11da4:	e037883a 	mov	sp,fp
   11da8:	dfc00117 	ldw	ra,4(sp)
   11dac:	df000017 	ldw	fp,0(sp)
   11db0:	dec00204 	addi	sp,sp,8
   11db4:	f800283a 	ret

00011db8 <parseMessage>:

void parseMessage(char* result, TestMessage* message)
{
   11db8:	defff804 	addi	sp,sp,-32
   11dbc:	dfc00715 	stw	ra,28(sp)
   11dc0:	df000615 	stw	fp,24(sp)
   11dc4:	df000604 	addi	fp,sp,24
   11dc8:	e13ffe15 	stw	r4,-8(fp)
   11dcc:	e17fff15 	stw	r5,-4(fp)
    char temp[8] = {0};
   11dd0:	e03ffc15 	stw	zero,-16(fp)
   11dd4:	e03ffd15 	stw	zero,-12(fp)

    //get start fre
    printf("message %s \n",result);
   11dd8:	010000b4 	movhi	r4,2
   11ddc:	21232204 	addi	r4,r4,-29560
   11de0:	e17ffe17 	ldw	r5,-8(fp)
   11de4:	00166600 	call	16660 <printf>

    char *cur = strchr(result, 'f') + 2;
   11de8:	e13ffe17 	ldw	r4,-8(fp)
   11dec:	01401984 	movi	r5,102
   11df0:	00168480 	call	16848 <strchr>
   11df4:	10800084 	addi	r2,r2,2
   11df8:	e0bffa15 	stw	r2,-24(fp)
    char *space = strchr(cur, ' ');
   11dfc:	e13ffa17 	ldw	r4,-24(fp)
   11e00:	01400804 	movi	r5,32
   11e04:	00168480 	call	16848 <strchr>
   11e08:	e0bffb15 	stw	r2,-20(fp)
    memcpy(temp,cur, space - cur);
   11e0c:	e0fffb17 	ldw	r3,-20(fp)
   11e10:	e0bffa17 	ldw	r2,-24(fp)
   11e14:	1885c83a 	sub	r2,r3,r2
   11e18:	e0fffc04 	addi	r3,fp,-16
   11e1c:	1809883a 	mov	r4,r3
   11e20:	e17ffa17 	ldw	r5,-24(fp)
   11e24:	100d883a 	mov	r6,r2
   11e28:	00165dc0 	call	165dc <memcpy>
    message->startFre = atoi(temp);
   11e2c:	e0bffc04 	addi	r2,fp,-16
   11e30:	1009883a 	mov	r4,r2
   11e34:	00165c40 	call	165c4 <atoi>
   11e38:	e0ffff17 	ldw	r3,-4(fp)
   11e3c:	18800015 	stw	r2,0(r3)
    printf("start fre %d \n", message->startFre);
   11e40:	e0bfff17 	ldw	r2,-4(fp)
   11e44:	10800017 	ldw	r2,0(r2)
   11e48:	010000b4 	movhi	r4,2
   11e4c:	21232604 	addi	r4,r4,-29544
   11e50:	100b883a 	mov	r5,r2
   11e54:	00166600 	call	16660 <printf>

    //get end fre
    cur = space + 1;
   11e58:	e0bffb17 	ldw	r2,-20(fp)
   11e5c:	10800044 	addi	r2,r2,1
   11e60:	e0bffa15 	stw	r2,-24(fp)
    space = strchr(cur, ' ');
   11e64:	e13ffa17 	ldw	r4,-24(fp)
   11e68:	01400804 	movi	r5,32
   11e6c:	00168480 	call	16848 <strchr>
   11e70:	e0bffb15 	stw	r2,-20(fp)
    memset(temp, 0, 8);
   11e74:	e0bffc04 	addi	r2,fp,-16
   11e78:	1009883a 	mov	r4,r2
   11e7c:	000b883a 	mov	r5,zero
   11e80:	01800204 	movi	r6,8
   11e84:	00166040 	call	16604 <memset>
    memcpy(temp,cur, space - cur);
   11e88:	e0fffb17 	ldw	r3,-20(fp)
   11e8c:	e0bffa17 	ldw	r2,-24(fp)
   11e90:	1885c83a 	sub	r2,r3,r2
   11e94:	e0fffc04 	addi	r3,fp,-16
   11e98:	1809883a 	mov	r4,r3
   11e9c:	e17ffa17 	ldw	r5,-24(fp)
   11ea0:	100d883a 	mov	r6,r2
   11ea4:	00165dc0 	call	165dc <memcpy>
    message->endFre = atoi(temp);
   11ea8:	e0bffc04 	addi	r2,fp,-16
   11eac:	1009883a 	mov	r4,r2
   11eb0:	00165c40 	call	165c4 <atoi>
   11eb4:	e0ffff17 	ldw	r3,-4(fp)
   11eb8:	18800115 	stw	r2,4(r3)
    printf("end fre %d \n",message->endFre);
   11ebc:	e0bfff17 	ldw	r2,-4(fp)
   11ec0:	10800117 	ldw	r2,4(r2)
   11ec4:	010000b4 	movhi	r4,2
   11ec8:	21232a04 	addi	r4,r4,-29528
   11ecc:	100b883a 	mov	r5,r2
   11ed0:	00166600 	call	16660 <printf>

    //get num
    cur = strchr(cur, 'N') + 2;
   11ed4:	e13ffa17 	ldw	r4,-24(fp)
   11ed8:	01401384 	movi	r5,78
   11edc:	00168480 	call	16848 <strchr>
   11ee0:	10800084 	addi	r2,r2,2
   11ee4:	e0bffa15 	stw	r2,-24(fp)
    space = strchr(cur, ' ');
   11ee8:	e13ffa17 	ldw	r4,-24(fp)
   11eec:	01400804 	movi	r5,32
   11ef0:	00168480 	call	16848 <strchr>
   11ef4:	e0bffb15 	stw	r2,-20(fp)
    memset(temp, 0, 8);
   11ef8:	e0bffc04 	addi	r2,fp,-16
   11efc:	1009883a 	mov	r4,r2
   11f00:	000b883a 	mov	r5,zero
   11f04:	01800204 	movi	r6,8
   11f08:	00166040 	call	16604 <memset>
    memcpy(temp,cur, space - cur);
   11f0c:	e0fffb17 	ldw	r3,-20(fp)
   11f10:	e0bffa17 	ldw	r2,-24(fp)
   11f14:	1885c83a 	sub	r2,r3,r2
   11f18:	e0fffc04 	addi	r3,fp,-16
   11f1c:	1809883a 	mov	r4,r3
   11f20:	e17ffa17 	ldw	r5,-24(fp)
   11f24:	100d883a 	mov	r6,r2
   11f28:	00165dc0 	call	165dc <memcpy>
    message->sweepNum = atoi(temp);
   11f2c:	e0bffc04 	addi	r2,fp,-16
   11f30:	1009883a 	mov	r4,r2
   11f34:	00165c40 	call	165c4 <atoi>
   11f38:	e0ffff17 	ldw	r3,-4(fp)
   11f3c:	18800215 	stw	r2,8(r3)
    printf("num %d \n",message->sweepNum);
   11f40:	e0bfff17 	ldw	r2,-4(fp)
   11f44:	10800217 	ldw	r2,8(r2)
   11f48:	010000b4 	movhi	r4,2
   11f4c:	21232e04 	addi	r4,r4,-29512
   11f50:	100b883a 	mov	r5,r2
   11f54:	00166600 	call	16660 <printf>

    //get form
    cur = strchr(cur, 'F') + 2;
   11f58:	e13ffa17 	ldw	r4,-24(fp)
   11f5c:	01401184 	movi	r5,70
   11f60:	00168480 	call	16848 <strchr>
   11f64:	10800084 	addi	r2,r2,2
   11f68:	e0bffa15 	stw	r2,-24(fp)
    memset(temp, 0, 8);
   11f6c:	e0bffc04 	addi	r2,fp,-16
   11f70:	1009883a 	mov	r4,r2
   11f74:	000b883a 	mov	r5,zero
   11f78:	01800204 	movi	r6,8
   11f7c:	00166040 	call	16604 <memset>
    memcpy(temp,cur, 1);
   11f80:	e0bffa17 	ldw	r2,-24(fp)
   11f84:	10800003 	ldbu	r2,0(r2)
   11f88:	e0bffc05 	stb	r2,-16(fp)
    message->showForm = atoi(temp);
   11f8c:	e0bffc04 	addi	r2,fp,-16
   11f90:	1009883a 	mov	r4,r2
   11f94:	00165c40 	call	165c4 <atoi>
   11f98:	e0ffff17 	ldw	r3,-4(fp)
   11f9c:	18800315 	stw	r2,12(r3)
    printf("form %d \n",message->showForm);
   11fa0:	e0bfff17 	ldw	r2,-4(fp)
   11fa4:	10800317 	ldw	r2,12(r2)
   11fa8:	010000b4 	movhi	r4,2
   11fac:	21233104 	addi	r4,r4,-29500
   11fb0:	100b883a 	mov	r5,r2
   11fb4:	00166600 	call	16660 <printf>

    message->getMessege = 1;
   11fb8:	e0bfff17 	ldw	r2,-4(fp)
   11fbc:	00c00044 	movi	r3,1
   11fc0:	10c00415 	stw	r3,16(r2)
}
   11fc4:	e037883a 	mov	sp,fp
   11fc8:	dfc00117 	ldw	ra,4(sp)
   11fcc:	df000017 	ldw	fp,0(sp)
   11fd0:	dec00204 	addi	sp,sp,8
   11fd4:	f800283a 	ret

00011fd8 <uart_send_byte>:
 *  * Description: 发送一个Byte
 *  * ======================================================================
 *  */

int uart_send_byte(unsigned char data)
{
   11fd8:	defffe04 	addi	sp,sp,-8
   11fdc:	df000115 	stw	fp,4(sp)
   11fe0:	df000104 	addi	fp,sp,4
   11fe4:	2005883a 	mov	r2,r4
   11fe8:	e0bfff05 	stb	r2,-4(fp)
	UART->TXDATA.BITS.TRANSMIT_DATA = data;
   11fec:	008000b4 	movhi	r2,2
   11ff0:	10840004 	addi	r2,r2,4096
   11ff4:	e0ffff03 	ldbu	r3,-4(fp)
   11ff8:	10c00105 	stb	r3,4(r2)
	while(!UART->STATUS.BITS.TRDY);
   11ffc:	0001883a 	nop
   12000:	008000b4 	movhi	r2,2
   12004:	10840004 	addi	r2,r2,4096
   12008:	10800217 	ldw	r2,8(r2)
   1200c:	1080100c 	andi	r2,r2,64
   12010:	103ffb26 	beq	r2,zero,12000 <uart_send_byte+0x28>
	return 0;
   12014:	0005883a 	mov	r2,zero
}
   12018:	e037883a 	mov	sp,fp
   1201c:	df000017 	ldw	fp,0(sp)
   12020:	dec00104 	addi	sp,sp,4
   12024:	f800283a 	ret

00012028 <uart_send_string>:
 * Description: 串口发送函数 *
 * ======================================================================
 * */

void uart_send_string(unsigned int len, unsigned char *str)
{
   12028:	defffc04 	addi	sp,sp,-16
   1202c:	dfc00315 	stw	ra,12(sp)
   12030:	df000215 	stw	fp,8(sp)
   12034:	df000204 	addi	fp,sp,8
   12038:	e13ffe15 	stw	r4,-8(fp)
   1203c:	e17fff15 	stw	r5,-4(fp)
	while(len--)
   12040:	00000806 	br	12064 <uart_send_string+0x3c>
	{
		uart_send_byte(*str++);
   12044:	e0bfff17 	ldw	r2,-4(fp)
   12048:	10800003 	ldbu	r2,0(r2)
   1204c:	10803fcc 	andi	r2,r2,255
   12050:	e0ffff17 	ldw	r3,-4(fp)
   12054:	18c00044 	addi	r3,r3,1
   12058:	e0ffff15 	stw	r3,-4(fp)
   1205c:	1009883a 	mov	r4,r2
   12060:	0011fd80 	call	11fd8 <uart_send_byte>
 * ======================================================================
 * */

void uart_send_string(unsigned int len, unsigned char *str)
{
	while(len--)
   12064:	e0bffe17 	ldw	r2,-8(fp)
   12068:	1004c03a 	cmpne	r2,r2,zero
   1206c:	e0fffe17 	ldw	r3,-8(fp)
   12070:	18ffffc4 	addi	r3,r3,-1
   12074:	e0fffe15 	stw	r3,-8(fp)
   12078:	10803fcc 	andi	r2,r2,255
   1207c:	103ff11e 	bne	r2,zero,12044 <uart_send_string+0x1c>
	{
		uart_send_byte(*str++);
	}
}
   12080:	e037883a 	mov	sp,fp
   12084:	dfc00117 	ldw	ra,4(sp)
   12088:	df000017 	ldw	fp,0(sp)
   1208c:	dec00204 	addi	sp,sp,8
   12090:	f800283a 	ret

00012094 <uart_init>:
 * Description: 串口初始化 *
 * ======================================================================
 */

int uart_init(void)
{
   12094:	defffd04 	addi	sp,sp,-12
   12098:	dfc00215 	stw	ra,8(sp)
   1209c:	df000115 	stw	fp,4(sp)
   120a0:	df000104 	addi	fp,sp,4
	set_baudrate(57600);
   120a4:	01384014 	movui	r4,57600
   120a8:	00124380 	call	12438 <set_baudrate>
	UART->CONTROL.BITS.IRRDY=1;
   120ac:	008000b4 	movhi	r2,2
   120b0:	10840004 	addi	r2,r2,4096
   120b4:	10c00317 	ldw	r3,12(r2)
   120b8:	18c02014 	ori	r3,r3,128
   120bc:	10c00315 	stw	r3,12(r2)
	UART->STATUS.WORD=0;
   120c0:	008000b4 	movhi	r2,2
   120c4:	10840004 	addi	r2,r2,4096
   120c8:	10000215 	stw	zero,8(r2)
	alt_ic_isr_register(UART_IRQ_INTERRUPT_CONTROLLER_ID,UART_IRQ,uart_ISR,NULL,0x0);
   120cc:	d8000015 	stw	zero,0(sp)
   120d0:	0009883a 	mov	r4,zero
   120d4:	01400044 	movi	r5,1
   120d8:	01800074 	movhi	r6,1
   120dc:	31887804 	addi	r6,r6,8672
   120e0:	000f883a 	mov	r7,zero
   120e4:	00176100 	call	17610 <alt_ic_isr_register>
	return 0;
   120e8:	0005883a 	mov	r2,zero
}
   120ec:	e037883a 	mov	sp,fp
   120f0:	dfc00117 	ldw	ra,4(sp)
   120f4:	df000017 	ldw	fp,0(sp)
   120f8:	dec00204 	addi	sp,sp,8
   120fc:	f800283a 	ret

00012100 <uart_input_init>:

int uart_input_init(void) {
   12100:	defffd04 	addi	sp,sp,-12
   12104:	dfc00215 	stw	ra,8(sp)
   12108:	df000115 	stw	fp,4(sp)
   1210c:	df000104 	addi	fp,sp,4
	set_baudrate_input(115200);
   12110:	010000b4 	movhi	r4,2
   12114:	21308004 	addi	r4,r4,-15872
   12118:	00124c80 	call	124c8 <set_baudrate_input>
	UART_INPUT->CONTROL.BITS.IRRDY=1;
   1211c:	008000b4 	movhi	r2,2
   12120:	10840804 	addi	r2,r2,4128
   12124:	10c00317 	ldw	r3,12(r2)
   12128:	18c02014 	ori	r3,r3,128
   1212c:	10c00315 	stw	r3,12(r2)
	UART_INPUT->STATUS.WORD=0;
   12130:	008000b4 	movhi	r2,2
   12134:	10840804 	addi	r2,r2,4128
   12138:	10000215 	stw	zero,8(r2)
	alt_ic_isr_register(UART_INPUT_IRQ_INTERRUPT_CONTROLLER_ID,UART_INPUT_IRQ,uart_input_ISR,NULL,0x0);
   1213c:	d8000015 	stw	zero,0(sp)
   12140:	0009883a 	mov	r4,zero
   12144:	01400084 	movi	r5,2
   12148:	01800074 	movhi	r6,1
   1214c:	31889a04 	addi	r6,r6,8808
   12150:	000f883a 	mov	r7,zero
   12154:	00176100 	call	17610 <alt_ic_isr_register>
	return 0;
   12158:	0005883a 	mov	r2,zero
}
   1215c:	e037883a 	mov	sp,fp
   12160:	dfc00117 	ldw	ra,4(sp)
   12164:	df000017 	ldw	fp,0(sp)
   12168:	dec00204 	addi	sp,sp,8
   1216c:	f800283a 	ret

00012170 <uart_output_init>:

int uart_output_init(void) {
   12170:	defffd04 	addi	sp,sp,-12
   12174:	dfc00215 	stw	ra,8(sp)
   12178:	df000115 	stw	fp,4(sp)
   1217c:	df000104 	addi	fp,sp,4
	set_baudrate_output(115200);
   12180:	010000b4 	movhi	r4,2
   12184:	21308004 	addi	r4,r4,-15872
   12188:	00125580 	call	12558 <set_baudrate_output>
	UART_OUTPUT->CONTROL.BITS.IRRDY=1;
   1218c:	008000b4 	movhi	r2,2
   12190:	10841004 	addi	r2,r2,4160
   12194:	10c00317 	ldw	r3,12(r2)
   12198:	18c02014 	ori	r3,r3,128
   1219c:	10c00315 	stw	r3,12(r2)
	UART_OUTPUT->STATUS.WORD=0;
   121a0:	008000b4 	movhi	r2,2
   121a4:	10841004 	addi	r2,r2,4160
   121a8:	10000215 	stw	zero,8(r2)
	alt_ic_isr_register(UART_OUTPUT_IRQ_INTERRUPT_CONTROLLER_ID,UART_OUTPUT_IRQ,uart_output_ISR,NULL,0x0);
   121ac:	d8000015 	stw	zero,0(sp)
   121b0:	0009883a 	mov	r4,zero
   121b4:	014000c4 	movi	r5,3
   121b8:	01800074 	movhi	r6,1
   121bc:	3188d404 	addi	r6,r6,9040
   121c0:	000f883a 	mov	r7,zero
   121c4:	00176100 	call	17610 <alt_ic_isr_register>
	return 0;
   121c8:	0005883a 	mov	r2,zero
}
   121cc:	e037883a 	mov	sp,fp
   121d0:	dfc00117 	ldw	ra,4(sp)
   121d4:	df000017 	ldw	fp,0(sp)
   121d8:	dec00204 	addi	sp,sp,8
   121dc:	f800283a 	ret

000121e0 <uart_ISR>:
 * Description: 串口中断服务函数 *
 * ======================================================================
 * */

static void uart_ISR(void *context)
{
   121e0:	defffe04 	addi	sp,sp,-8
   121e4:	df000115 	stw	fp,4(sp)
   121e8:	df000104 	addi	fp,sp,4
   121ec:	e13fff15 	stw	r4,-4(fp)
	//等待状态寄存器RRDY置1，当RRDY为1时表示接收的数据已经传输到RXDATA中
//	LOG_DEBUG("uart interrupt");
	while(!(UART->STATUS.BITS.RRDY));
   121f0:	0001883a 	nop
   121f4:	008000b4 	movhi	r2,2
   121f8:	10840004 	addi	r2,r2,4096
   121fc:	10800217 	ldw	r2,8(r2)
   12200:	1080200c 	andi	r2,r2,128
   12204:	103ffb26 	beq	r2,zero,121f4 <uart_ISR+0x14>
	uart.receive_buffer[uart.receive_count++] = UART->RXDATA.BITS.RECEIVE_DATA;
   12208:	008000b4 	movhi	r2,2
   1220c:	10a4ac04 	addi	r2,r2,-27984
   12210:	10800117 	ldw	r2,4(r2)
   12214:	00c000b4 	movhi	r3,2
   12218:	18c40004 	addi	r3,r3,4096
   1221c:	18c00003 	ldbu	r3,0(r3)
   12220:	1809883a 	mov	r4,r3
   12224:	00c000b4 	movhi	r3,2
   12228:	18e4ac04 	addi	r3,r3,-27984
   1222c:	1887883a 	add	r3,r3,r2
   12230:	18c00204 	addi	r3,r3,8
   12234:	19000005 	stb	r4,0(r3)
   12238:	10c00044 	addi	r3,r2,1
   1223c:	008000b4 	movhi	r2,2
   12240:	10a4ac04 	addi	r2,r2,-27984
   12244:	10c00115 	stw	r3,4(r2)
	uart.receive_flag = 1;
   12248:	008000b4 	movhi	r2,2
   1224c:	10a4ac04 	addi	r2,r2,-27984
   12250:	00c00044 	movi	r3,1
   12254:	10c00015 	stw	r3,0(r2)
//		FInfo.log = 1;
//		uart.receive_buffer[uart.receive_count]='\0';
//		uart.receive_count=0;
//		uart.receive_flag=1;
//	}
}
   12258:	e037883a 	mov	sp,fp
   1225c:	df000017 	ldw	fp,0(sp)
   12260:	dec00104 	addi	sp,sp,4
   12264:	f800283a 	ret

00012268 <uart_input_ISR>:

unsigned char inputData[65];

static void uart_input_ISR(void *context) {
   12268:	defffd04 	addi	sp,sp,-12
   1226c:	dfc00215 	stw	ra,8(sp)
   12270:	df000115 	stw	fp,4(sp)
   12274:	df000104 	addi	fp,sp,4
   12278:	e13fff15 	stw	r4,-4(fp)
	//等待状态寄存器RRDY置1，当RRDY为1时表示接收的数据已经传输到RXDATA中
//	LOG_DEBUG("uart_input interrupt");
	while(!(UART_INPUT->STATUS.BITS.RRDY));
   1227c:	0001883a 	nop
   12280:	008000b4 	movhi	r2,2
   12284:	10840804 	addi	r2,r2,4128
   12288:	10800217 	ldw	r2,8(r2)
   1228c:	1080200c 	andi	r2,r2,128
   12290:	103ffb26 	beq	r2,zero,12280 <uart_input_ISR+0x18>
	uart_input.receive_buffer[uart_input.receive_count++] = UART_INPUT->RXDATA.BITS.RECEIVE_DATA;
   12294:	008000b4 	movhi	r2,2
   12298:	10a4e404 	addi	r2,r2,-27760
   1229c:	10800117 	ldw	r2,4(r2)
   122a0:	00c000b4 	movhi	r3,2
   122a4:	18c40804 	addi	r3,r3,4128
   122a8:	18c00003 	ldbu	r3,0(r3)
   122ac:	1809883a 	mov	r4,r3
   122b0:	00c000b4 	movhi	r3,2
   122b4:	18e4e404 	addi	r3,r3,-27760
   122b8:	1887883a 	add	r3,r3,r2
   122bc:	18c00204 	addi	r3,r3,8
   122c0:	19000005 	stb	r4,0(r3)
   122c4:	10c00044 	addi	r3,r2,1
   122c8:	008000b4 	movhi	r2,2
   122cc:	10a4e404 	addi	r2,r2,-27760
   122d0:	10c00115 	stw	r3,4(r2)
	if(uart_input.receive_count == 64){
   122d4:	008000b4 	movhi	r2,2
   122d8:	10a4e404 	addi	r2,r2,-27760
   122dc:	10800117 	ldw	r2,4(r2)
   122e0:	10801018 	cmpnei	r2,r2,64
   122e4:	1000151e 	bne	r2,zero,1233c <uart_input_ISR+0xd4>
		uart_input.receive_buffer[uart_input.receive_count]='\0';
   122e8:	008000b4 	movhi	r2,2
   122ec:	10a4e404 	addi	r2,r2,-27760
   122f0:	10800117 	ldw	r2,4(r2)
   122f4:	00c000b4 	movhi	r3,2
   122f8:	18e4e404 	addi	r3,r3,-27760
   122fc:	1885883a 	add	r2,r3,r2
   12300:	10800204 	addi	r2,r2,8
   12304:	10000005 	stb	zero,0(r2)
		memcpy(inputData, uart_input.receive_buffer, 64);
   12308:	010000b4 	movhi	r4,2
   1230c:	21281744 	addi	r4,r4,-24483
   12310:	014000b4 	movhi	r5,2
   12314:	2964e604 	addi	r5,r5,-27752
   12318:	01801004 	movi	r6,64
   1231c:	00165dc0 	call	165dc <memcpy>
//		LOG_DEBUG("uart input data:");
//		log_hex(inputData, 64);
		uart_input.receive_count=0;
   12320:	008000b4 	movhi	r2,2
   12324:	10a4e404 	addi	r2,r2,-27760
   12328:	10000115 	stw	zero,4(r2)
		uart_input.receive_flag=1;
   1232c:	008000b4 	movhi	r2,2
   12330:	10a4e404 	addi	r2,r2,-27760
   12334:	00c00044 	movi	r3,1
   12338:	10c00015 	stw	r3,0(r2)
	}
}
   1233c:	e037883a 	mov	sp,fp
   12340:	dfc00117 	ldw	ra,4(sp)
   12344:	df000017 	ldw	fp,0(sp)
   12348:	dec00204 	addi	sp,sp,8
   1234c:	f800283a 	ret

00012350 <uart_output_ISR>:

unsigned char outputData[65];

static void uart_output_ISR(void *context) {
   12350:	defffd04 	addi	sp,sp,-12
   12354:	dfc00215 	stw	ra,8(sp)
   12358:	df000115 	stw	fp,4(sp)
   1235c:	df000104 	addi	fp,sp,4
   12360:	e13fff15 	stw	r4,-4(fp)
//	LOG_DEBUG("uart_output interrupt");
	while(!(UART_OUTPUT->STATUS.BITS.RRDY));
   12364:	0001883a 	nop
   12368:	008000b4 	movhi	r2,2
   1236c:	10841004 	addi	r2,r2,4160
   12370:	10800217 	ldw	r2,8(r2)
   12374:	1080200c 	andi	r2,r2,128
   12378:	103ffb26 	beq	r2,zero,12368 <uart_output_ISR+0x18>
	uart_output.receive_buffer[uart_output.receive_count++] = UART_OUTPUT->RXDATA.BITS.RECEIVE_DATA;
   1237c:	008000b4 	movhi	r2,2
   12380:	10a51c04 	addi	r2,r2,-27536
   12384:	10800117 	ldw	r2,4(r2)
   12388:	00c000b4 	movhi	r3,2
   1238c:	18c41004 	addi	r3,r3,4160
   12390:	18c00003 	ldbu	r3,0(r3)
   12394:	1809883a 	mov	r4,r3
   12398:	00c000b4 	movhi	r3,2
   1239c:	18e51c04 	addi	r3,r3,-27536
   123a0:	1887883a 	add	r3,r3,r2
   123a4:	18c00204 	addi	r3,r3,8
   123a8:	19000005 	stb	r4,0(r3)
   123ac:	10c00044 	addi	r3,r2,1
   123b0:	008000b4 	movhi	r2,2
   123b4:	10a51c04 	addi	r2,r2,-27536
   123b8:	10c00115 	stw	r3,4(r2)
	if(uart_output.receive_count == 64){
   123bc:	008000b4 	movhi	r2,2
   123c0:	10a51c04 	addi	r2,r2,-27536
   123c4:	10800117 	ldw	r2,4(r2)
   123c8:	10801018 	cmpnei	r2,r2,64
   123cc:	1000151e 	bne	r2,zero,12424 <uart_output_ISR+0xd4>
		uart_output.receive_buffer[uart_output.receive_count]='\0';
   123d0:	008000b4 	movhi	r2,2
   123d4:	10a51c04 	addi	r2,r2,-27536
   123d8:	10800117 	ldw	r2,4(r2)
   123dc:	00c000b4 	movhi	r3,2
   123e0:	18e51c04 	addi	r3,r3,-27536
   123e4:	1885883a 	add	r2,r3,r2
   123e8:	10800204 	addi	r2,r2,8
   123ec:	10000005 	stb	zero,0(r2)
		memcpy(outputData, uart_output.receive_buffer, 64);
   123f0:	010000b4 	movhi	r4,2
   123f4:	21280704 	addi	r4,r4,-24548
   123f8:	014000b4 	movhi	r5,2
   123fc:	29651e04 	addi	r5,r5,-27528
   12400:	01801004 	movi	r6,64
   12404:	00165dc0 	call	165dc <memcpy>
//		LOG_DEBUG("uart output data:");
//		log_hex(outputData, 64);
		uart_output.receive_count=0;
   12408:	008000b4 	movhi	r2,2
   1240c:	10a51c04 	addi	r2,r2,-27536
   12410:	10000115 	stw	zero,4(r2)
		uart_output.receive_flag=1;
   12414:	008000b4 	movhi	r2,2
   12418:	10a51c04 	addi	r2,r2,-27536
   1241c:	00c00044 	movi	r3,1
   12420:	10c00015 	stw	r3,0(r2)
	}
}
   12424:	e037883a 	mov	sp,fp
   12428:	dfc00117 	ldw	ra,4(sp)
   1242c:	df000017 	ldw	fp,0(sp)
   12430:	dec00204 	addi	sp,sp,8
   12434:	f800283a 	ret

00012438 <set_baudrate>:

int set_baudrate(unsigned int baudrate)
{
   12438:	defffc04 	addi	sp,sp,-16
   1243c:	dfc00315 	stw	ra,12(sp)
   12440:	df000215 	stw	fp,8(sp)
   12444:	dc000115 	stw	r16,4(sp)
   12448:	df000104 	addi	fp,sp,4
   1244c:	e13fff15 	stw	r4,-4(fp)
	UART->DIVISOR.WORD=(unsigned int)(ALT_CPU_FREQ/baudrate+0.5);
   12450:	040000b4 	movhi	r16,2
   12454:	84040004 	addi	r16,r16,4096
   12458:	0100bef4 	movhi	r4,763
   1245c:	213c2004 	addi	r4,r4,-3968
   12460:	e17fff17 	ldw	r5,-4(fp)
   12464:	0015e080 	call	15e08 <__udivsi3>
   12468:	1009883a 	mov	r4,r2
   1246c:	0015bcc0 	call	15bcc <__floatunsidf>
   12470:	100b883a 	mov	r5,r2
   12474:	180d883a 	mov	r6,r3
   12478:	2809883a 	mov	r4,r5
   1247c:	300b883a 	mov	r5,r6
   12480:	000d883a 	mov	r6,zero
   12484:	01cff834 	movhi	r7,16352
   12488:	001531c0 	call	1531c <__adddf3>
   1248c:	1009883a 	mov	r4,r2
   12490:	180b883a 	mov	r5,r3
   12494:	2005883a 	mov	r2,r4
   12498:	2807883a 	mov	r3,r5
   1249c:	1009883a 	mov	r4,r2
   124a0:	180b883a 	mov	r5,r3
   124a4:	00148540 	call	14854 <__fixunsdfsi>
   124a8:	80800415 	stw	r2,16(r16)
	return 0;
   124ac:	0005883a 	mov	r2,zero
}
   124b0:	e037883a 	mov	sp,fp
   124b4:	dfc00217 	ldw	ra,8(sp)
   124b8:	df000117 	ldw	fp,4(sp)
   124bc:	dc000017 	ldw	r16,0(sp)
   124c0:	dec00304 	addi	sp,sp,12
   124c4:	f800283a 	ret

000124c8 <set_baudrate_input>:

int set_baudrate_input(unsigned int baudrate) {
   124c8:	defffc04 	addi	sp,sp,-16
   124cc:	dfc00315 	stw	ra,12(sp)
   124d0:	df000215 	stw	fp,8(sp)
   124d4:	dc000115 	stw	r16,4(sp)
   124d8:	df000104 	addi	fp,sp,4
   124dc:	e13fff15 	stw	r4,-4(fp)
	UART_INPUT->DIVISOR.WORD=(unsigned int)(ALT_CPU_FREQ/baudrate+0.5);
   124e0:	040000b4 	movhi	r16,2
   124e4:	84040804 	addi	r16,r16,4128
   124e8:	0100bef4 	movhi	r4,763
   124ec:	213c2004 	addi	r4,r4,-3968
   124f0:	e17fff17 	ldw	r5,-4(fp)
   124f4:	0015e080 	call	15e08 <__udivsi3>
   124f8:	1009883a 	mov	r4,r2
   124fc:	0015bcc0 	call	15bcc <__floatunsidf>
   12500:	100b883a 	mov	r5,r2
   12504:	180d883a 	mov	r6,r3
   12508:	2809883a 	mov	r4,r5
   1250c:	300b883a 	mov	r5,r6
   12510:	000d883a 	mov	r6,zero
   12514:	01cff834 	movhi	r7,16352
   12518:	001531c0 	call	1531c <__adddf3>
   1251c:	1009883a 	mov	r4,r2
   12520:	180b883a 	mov	r5,r3
   12524:	2005883a 	mov	r2,r4
   12528:	2807883a 	mov	r3,r5
   1252c:	1009883a 	mov	r4,r2
   12530:	180b883a 	mov	r5,r3
   12534:	00148540 	call	14854 <__fixunsdfsi>
   12538:	80800415 	stw	r2,16(r16)
	return 0;
   1253c:	0005883a 	mov	r2,zero
}
   12540:	e037883a 	mov	sp,fp
   12544:	dfc00217 	ldw	ra,8(sp)
   12548:	df000117 	ldw	fp,4(sp)
   1254c:	dc000017 	ldw	r16,0(sp)
   12550:	dec00304 	addi	sp,sp,12
   12554:	f800283a 	ret

00012558 <set_baudrate_output>:

int set_baudrate_output(unsigned int baudrate) {
   12558:	defffc04 	addi	sp,sp,-16
   1255c:	dfc00315 	stw	ra,12(sp)
   12560:	df000215 	stw	fp,8(sp)
   12564:	dc000115 	stw	r16,4(sp)
   12568:	df000104 	addi	fp,sp,4
   1256c:	e13fff15 	stw	r4,-4(fp)
	UART_OUTPUT->DIVISOR.WORD=(unsigned int)(ALT_CPU_FREQ/baudrate+0.5);
   12570:	040000b4 	movhi	r16,2
   12574:	84041004 	addi	r16,r16,4160
   12578:	0100bef4 	movhi	r4,763
   1257c:	213c2004 	addi	r4,r4,-3968
   12580:	e17fff17 	ldw	r5,-4(fp)
   12584:	0015e080 	call	15e08 <__udivsi3>
   12588:	1009883a 	mov	r4,r2
   1258c:	0015bcc0 	call	15bcc <__floatunsidf>
   12590:	100b883a 	mov	r5,r2
   12594:	180d883a 	mov	r6,r3
   12598:	2809883a 	mov	r4,r5
   1259c:	300b883a 	mov	r5,r6
   125a0:	000d883a 	mov	r6,zero
   125a4:	01cff834 	movhi	r7,16352
   125a8:	001531c0 	call	1531c <__adddf3>
   125ac:	1009883a 	mov	r4,r2
   125b0:	180b883a 	mov	r5,r3
   125b4:	2005883a 	mov	r2,r4
   125b8:	2807883a 	mov	r3,r5
   125bc:	1009883a 	mov	r4,r2
   125c0:	180b883a 	mov	r5,r3
   125c4:	00148540 	call	14854 <__fixunsdfsi>
   125c8:	80800415 	stw	r2,16(r16)
	return 0;
   125cc:	0005883a 	mov	r2,zero
}
   125d0:	e037883a 	mov	sp,fp
   125d4:	dfc00217 	ldw	ra,8(sp)
   125d8:	df000117 	ldw	fp,4(sp)
   125dc:	dc000017 	ldw	r16,0(sp)
   125e0:	dec00304 	addi	sp,sp,12
   125e4:	f800283a 	ret

000125e8 <cos>:
   125e8:	defffa04 	addi	sp,sp,-24
   125ec:	00a00034 	movhi	r2,32768
   125f0:	10bfffc4 	addi	r2,r2,-1
   125f4:	dfc00515 	stw	ra,20(sp)
   125f8:	2884703a 	and	r2,r5,r2
   125fc:	00cffa74 	movhi	r3,16361
   12600:	18c87ec4 	addi	r3,r3,8699
   12604:	280f883a 	mov	r7,r5
   12608:	200d883a 	mov	r6,r4
   1260c:	1880150e 	bge	r3,r2,12664 <cos+0x7c>
   12610:	00dffc34 	movhi	r3,32752
   12614:	18ffffc4 	addi	r3,r3,-1
   12618:	1880040e 	bge	r3,r2,1262c <cos+0x44>
   1261c:	00153700 	call	15370 <__subdf3>
   12620:	dfc00517 	ldw	ra,20(sp)
   12624:	dec00604 	addi	sp,sp,24
   12628:	f800283a 	ret
   1262c:	d9800104 	addi	r6,sp,4
   12630:	00127c40 	call	127c4 <__ieee754_rem_pio2>
   12634:	108000cc 	andi	r2,r2,3
   12638:	00c00044 	movi	r3,1
   1263c:	10c01626 	beq	r2,r3,12698 <cos+0xb0>
   12640:	01000084 	movi	r4,2
   12644:	11000d26 	beq	r2,r4,1267c <cos+0x94>
   12648:	10001b1e 	bne	r2,zero,126b8 <cos+0xd0>
   1264c:	d9000117 	ldw	r4,4(sp)
   12650:	d9400217 	ldw	r5,8(sp)
   12654:	d9800317 	ldw	r6,12(sp)
   12658:	d9c00417 	ldw	r7,16(sp)
   1265c:	0012f7c0 	call	12f7c <__kernel_cos>
   12660:	003fef06 	br	12620 <cos+0x38>
   12664:	000d883a 	mov	r6,zero
   12668:	000f883a 	mov	r7,zero
   1266c:	0012f7c0 	call	12f7c <__kernel_cos>
   12670:	dfc00517 	ldw	ra,20(sp)
   12674:	dec00604 	addi	sp,sp,24
   12678:	f800283a 	ret
   1267c:	d9000117 	ldw	r4,4(sp)
   12680:	d9400217 	ldw	r5,8(sp)
   12684:	d9800317 	ldw	r6,12(sp)
   12688:	d9c00417 	ldw	r7,16(sp)
   1268c:	0012f7c0 	call	12f7c <__kernel_cos>
   12690:	18e0003c 	xorhi	r3,r3,32768
   12694:	003fe206 	br	12620 <cos+0x38>
   12698:	d9000117 	ldw	r4,4(sp)
   1269c:	d9400217 	ldw	r5,8(sp)
   126a0:	d9800317 	ldw	r6,12(sp)
   126a4:	d9c00417 	ldw	r7,16(sp)
   126a8:	d8800015 	stw	r2,0(sp)
   126ac:	00141cc0 	call	141cc <__kernel_sin>
   126b0:	18e0003c 	xorhi	r3,r3,32768
   126b4:	003fda06 	br	12620 <cos+0x38>
   126b8:	d9000117 	ldw	r4,4(sp)
   126bc:	d9400217 	ldw	r5,8(sp)
   126c0:	d9800317 	ldw	r6,12(sp)
   126c4:	d9c00417 	ldw	r7,16(sp)
   126c8:	d8c00015 	stw	r3,0(sp)
   126cc:	00141cc0 	call	141cc <__kernel_sin>
   126d0:	003fd306 	br	12620 <cos+0x38>

000126d4 <sin>:
   126d4:	defffa04 	addi	sp,sp,-24
   126d8:	00a00034 	movhi	r2,32768
   126dc:	10bfffc4 	addi	r2,r2,-1
   126e0:	dfc00515 	stw	ra,20(sp)
   126e4:	2884703a 	and	r2,r5,r2
   126e8:	00cffa74 	movhi	r3,16361
   126ec:	18c87ec4 	addi	r3,r3,8699
   126f0:	280f883a 	mov	r7,r5
   126f4:	200d883a 	mov	r6,r4
   126f8:	1880160e 	bge	r3,r2,12754 <sin+0x80>
   126fc:	00dffc34 	movhi	r3,32752
   12700:	18ffffc4 	addi	r3,r3,-1
   12704:	1880040e 	bge	r3,r2,12718 <sin+0x44>
   12708:	00153700 	call	15370 <__subdf3>
   1270c:	dfc00517 	ldw	ra,20(sp)
   12710:	dec00604 	addi	sp,sp,24
   12714:	f800283a 	ret
   12718:	d9800104 	addi	r6,sp,4
   1271c:	00127c40 	call	127c4 <__ieee754_rem_pio2>
   12720:	108000cc 	andi	r2,r2,3
   12724:	00c00044 	movi	r3,1
   12728:	10c01926 	beq	r2,r3,12790 <sin+0xbc>
   1272c:	01000084 	movi	r4,2
   12730:	11000f26 	beq	r2,r4,12770 <sin+0x9c>
   12734:	10001c1e 	bne	r2,zero,127a8 <sin+0xd4>
   12738:	d9000117 	ldw	r4,4(sp)
   1273c:	d9400217 	ldw	r5,8(sp)
   12740:	d9800317 	ldw	r6,12(sp)
   12744:	d9c00417 	ldw	r7,16(sp)
   12748:	d8c00015 	stw	r3,0(sp)
   1274c:	00141cc0 	call	141cc <__kernel_sin>
   12750:	003fee06 	br	1270c <sin+0x38>
   12754:	d8000015 	stw	zero,0(sp)
   12758:	000d883a 	mov	r6,zero
   1275c:	000f883a 	mov	r7,zero
   12760:	00141cc0 	call	141cc <__kernel_sin>
   12764:	dfc00517 	ldw	ra,20(sp)
   12768:	dec00604 	addi	sp,sp,24
   1276c:	f800283a 	ret
   12770:	d9000117 	ldw	r4,4(sp)
   12774:	d9400217 	ldw	r5,8(sp)
   12778:	d9800317 	ldw	r6,12(sp)
   1277c:	d9c00417 	ldw	r7,16(sp)
   12780:	d8c00015 	stw	r3,0(sp)
   12784:	00141cc0 	call	141cc <__kernel_sin>
   12788:	18e0003c 	xorhi	r3,r3,32768
   1278c:	003fdf06 	br	1270c <sin+0x38>
   12790:	d9000117 	ldw	r4,4(sp)
   12794:	d9400217 	ldw	r5,8(sp)
   12798:	d9800317 	ldw	r6,12(sp)
   1279c:	d9c00417 	ldw	r7,16(sp)
   127a0:	0012f7c0 	call	12f7c <__kernel_cos>
   127a4:	003fd906 	br	1270c <sin+0x38>
   127a8:	d9000117 	ldw	r4,4(sp)
   127ac:	d9400217 	ldw	r5,8(sp)
   127b0:	d9800317 	ldw	r6,12(sp)
   127b4:	d9c00417 	ldw	r7,16(sp)
   127b8:	0012f7c0 	call	12f7c <__kernel_cos>
   127bc:	18e0003c 	xorhi	r3,r3,32768
   127c0:	003fd206 	br	1270c <sin+0x38>

000127c4 <__ieee754_rem_pio2>:
   127c4:	deffea04 	addi	sp,sp,-88
   127c8:	dc400d15 	stw	r17,52(sp)
   127cc:	04600034 	movhi	r17,32768
   127d0:	8c7fffc4 	addi	r17,r17,-1
   127d4:	dd801215 	stw	r22,72(sp)
   127d8:	dc800e15 	stw	r18,56(sp)
   127dc:	dc000c15 	stw	r16,48(sp)
   127e0:	dfc01515 	stw	ra,84(sp)
   127e4:	df001415 	stw	fp,80(sp)
   127e8:	ddc01315 	stw	r23,76(sp)
   127ec:	dd401115 	stw	r21,68(sp)
   127f0:	dd001015 	stw	r20,64(sp)
   127f4:	dcc00f15 	stw	r19,60(sp)
   127f8:	2c62703a 	and	r17,r5,r17
   127fc:	008ffa74 	movhi	r2,16361
   12800:	10887ec4 	addi	r2,r2,8699
   12804:	282d883a 	mov	r22,r5
   12808:	2025883a 	mov	r18,r4
   1280c:	3021883a 	mov	r16,r6
   12810:	14406c0e 	bge	r2,r17,129c4 <__ieee754_rem_pio2+0x200>
   12814:	009000f4 	movhi	r2,16387
   12818:	10b65ec4 	addi	r2,r2,-9861
   1281c:	14402316 	blt	r2,r17,128ac <__ieee754_rem_pio2+0xe8>
   12820:	01951034 	movhi	r6,21568
   12824:	01cffe74 	movhi	r7,16377
   12828:	39c87ec4 	addi	r7,r7,8699
   1282c:	0141900e 	bge	zero,r5,12e70 <__ieee754_rem_pio2+0x6ac>
   12830:	00153700 	call	15370 <__subdf3>
   12834:	1027883a 	mov	r19,r2
   12838:	008ffe74 	movhi	r2,16377
   1283c:	10887ec4 	addi	r2,r2,8699
   12840:	1825883a 	mov	r18,r3
   12844:	88807a26 	beq	r17,r2,12a30 <__ieee754_rem_pio2+0x26c>
   12848:	9809883a 	mov	r4,r19
   1284c:	180b883a 	mov	r5,r3
   12850:	018698b4 	movhi	r6,6754
   12854:	3198cc44 	addi	r6,r6,25393
   12858:	01cf7474 	movhi	r7,15825
   1285c:	39ed1844 	addi	r7,r7,-19359
   12860:	00153700 	call	15370 <__subdf3>
   12864:	100d883a 	mov	r6,r2
   12868:	180f883a 	mov	r7,r3
   1286c:	9809883a 	mov	r4,r19
   12870:	900b883a 	mov	r5,r18
   12874:	80800015 	stw	r2,0(r16)
   12878:	80c00115 	stw	r3,4(r16)
   1287c:	00153700 	call	15370 <__subdf3>
   12880:	1009883a 	mov	r4,r2
   12884:	180b883a 	mov	r5,r3
   12888:	018698b4 	movhi	r6,6754
   1288c:	3198cc44 	addi	r6,r6,25393
   12890:	01cf7474 	movhi	r7,15825
   12894:	39ed1844 	addi	r7,r7,-19359
   12898:	00153700 	call	15370 <__subdf3>
   1289c:	80800215 	stw	r2,8(r16)
   128a0:	80c00315 	stw	r3,12(r16)
   128a4:	07000044 	movi	fp,1
   128a8:	00004b06 	br	129d8 <__ieee754_rem_pio2+0x214>
   128ac:	00904e74 	movhi	r2,16697
   128b0:	10887ec4 	addi	r2,r2,8699
   128b4:	1440940e 	bge	r2,r17,12b08 <__ieee754_rem_pio2+0x344>
   128b8:	009ffc34 	movhi	r2,32752
   128bc:	10bfffc4 	addi	r2,r2,-1
   128c0:	14405216 	blt	r2,r17,12a0c <__ieee754_rem_pio2+0x248>
   128c4:	882bd53a 	srai	r21,r17,20
   128c8:	ad7efa84 	addi	r21,r21,-1046
   128cc:	a804953a 	slli	r2,r21,20
   128d0:	88a3c83a 	sub	r17,r17,r2
   128d4:	880b883a 	mov	r5,r17
   128d8:	0015a600 	call	15a60 <__fixdfsi>
   128dc:	1009883a 	mov	r4,r2
   128e0:	001598c0 	call	1598c <__floatsidf>
   128e4:	9009883a 	mov	r4,r18
   128e8:	880b883a 	mov	r5,r17
   128ec:	100d883a 	mov	r6,r2
   128f0:	180f883a 	mov	r7,r3
   128f4:	d8800215 	stw	r2,8(sp)
   128f8:	d8c00315 	stw	r3,12(sp)
   128fc:	00153700 	call	15370 <__subdf3>
   12900:	000d883a 	mov	r6,zero
   12904:	01d05c34 	movhi	r7,16752
   12908:	1009883a 	mov	r4,r2
   1290c:	180b883a 	mov	r5,r3
   12910:	00153d00 	call	153d0 <__muldf3>
   12914:	180b883a 	mov	r5,r3
   12918:	1009883a 	mov	r4,r2
   1291c:	1827883a 	mov	r19,r3
   12920:	1029883a 	mov	r20,r2
   12924:	0015a600 	call	15a60 <__fixdfsi>
   12928:	1009883a 	mov	r4,r2
   1292c:	001598c0 	call	1598c <__floatsidf>
   12930:	100d883a 	mov	r6,r2
   12934:	180f883a 	mov	r7,r3
   12938:	a009883a 	mov	r4,r20
   1293c:	980b883a 	mov	r5,r19
   12940:	1023883a 	mov	r17,r2
   12944:	1825883a 	mov	r18,r3
   12948:	d8800415 	stw	r2,16(sp)
   1294c:	d8c00515 	stw	r3,20(sp)
   12950:	00153700 	call	15370 <__subdf3>
   12954:	1009883a 	mov	r4,r2
   12958:	180b883a 	mov	r5,r3
   1295c:	000d883a 	mov	r6,zero
   12960:	01d05c34 	movhi	r7,16752
   12964:	00153d00 	call	153d0 <__muldf3>
   12968:	1009883a 	mov	r4,r2
   1296c:	180b883a 	mov	r5,r3
   12970:	000d883a 	mov	r6,zero
   12974:	000f883a 	mov	r7,zero
   12978:	d8800615 	stw	r2,24(sp)
   1297c:	d8c00715 	stw	r3,28(sp)
   12980:	00158680 	call	15868 <__eqdf2>
   12984:	10004b1e 	bne	r2,zero,12ab4 <__ieee754_rem_pio2+0x2f0>
   12988:	0029883a 	mov	r20,zero
   1298c:	04c000c4 	movi	r19,3
   12990:	8809883a 	mov	r4,r17
   12994:	900b883a 	mov	r5,r18
   12998:	000d883a 	mov	r6,zero
   1299c:	000f883a 	mov	r7,zero
   129a0:	00158680 	call	15868 <__eqdf2>
   129a4:	d9000204 	addi	r4,sp,8
   129a8:	9cffffc4 	addi	r19,r19,-1
   129ac:	2507883a 	add	r3,r4,r20
   129b0:	1000411e 	bne	r2,zero,12ab8 <__ieee754_rem_pio2+0x2f4>
   129b4:	1c400017 	ldw	r17,0(r3)
   129b8:	1c800117 	ldw	r18,4(r3)
   129bc:	a53ffe04 	addi	r20,r20,-8
   129c0:	003ff306 	br	12990 <__ieee754_rem_pio2+0x1cc>
   129c4:	81000015 	stw	r4,0(r16)
   129c8:	81400115 	stw	r5,4(r16)
   129cc:	30000215 	stw	zero,8(r6)
   129d0:	30000315 	stw	zero,12(r6)
   129d4:	0039883a 	mov	fp,zero
   129d8:	e005883a 	mov	r2,fp
   129dc:	dfc01517 	ldw	ra,84(sp)
   129e0:	df001417 	ldw	fp,80(sp)
   129e4:	ddc01317 	ldw	r23,76(sp)
   129e8:	dd801217 	ldw	r22,72(sp)
   129ec:	dd401117 	ldw	r21,68(sp)
   129f0:	dd001017 	ldw	r20,64(sp)
   129f4:	dcc00f17 	ldw	r19,60(sp)
   129f8:	dc800e17 	ldw	r18,56(sp)
   129fc:	dc400d17 	ldw	r17,52(sp)
   12a00:	dc000c17 	ldw	r16,48(sp)
   12a04:	dec01604 	addi	sp,sp,88
   12a08:	f800283a 	ret
   12a0c:	200d883a 	mov	r6,r4
   12a10:	280f883a 	mov	r7,r5
   12a14:	00153700 	call	15370 <__subdf3>
   12a18:	80800215 	stw	r2,8(r16)
   12a1c:	80c00315 	stw	r3,12(r16)
   12a20:	80800015 	stw	r2,0(r16)
   12a24:	80c00115 	stw	r3,4(r16)
   12a28:	0039883a 	mov	fp,zero
   12a2c:	003fea06 	br	129d8 <__ieee754_rem_pio2+0x214>
   12a30:	01869834 	movhi	r6,6752
   12a34:	01cf7474 	movhi	r7,15825
   12a38:	39ed1844 	addi	r7,r7,-19359
   12a3c:	9809883a 	mov	r4,r19
   12a40:	180b883a 	mov	r5,r3
   12a44:	00153700 	call	15370 <__subdf3>
   12a48:	1009883a 	mov	r4,r2
   12a4c:	180b883a 	mov	r5,r3
   12a50:	018b80f4 	movhi	r6,11779
   12a54:	319c1cc4 	addi	r6,r6,28787
   12a58:	01cee8f4 	movhi	r7,15267
   12a5c:	39c66284 	addi	r7,r7,6538
   12a60:	1025883a 	mov	r18,r2
   12a64:	1823883a 	mov	r17,r3
   12a68:	00153700 	call	15370 <__subdf3>
   12a6c:	100d883a 	mov	r6,r2
   12a70:	180f883a 	mov	r7,r3
   12a74:	9009883a 	mov	r4,r18
   12a78:	880b883a 	mov	r5,r17
   12a7c:	80800015 	stw	r2,0(r16)
   12a80:	80c00115 	stw	r3,4(r16)
   12a84:	00153700 	call	15370 <__subdf3>
   12a88:	1009883a 	mov	r4,r2
   12a8c:	180b883a 	mov	r5,r3
   12a90:	018b80f4 	movhi	r6,11779
   12a94:	319c1cc4 	addi	r6,r6,28787
   12a98:	01cee8f4 	movhi	r7,15267
   12a9c:	39c66284 	addi	r7,r7,6538
   12aa0:	00153700 	call	15370 <__subdf3>
   12aa4:	80800215 	stw	r2,8(r16)
   12aa8:	80c00315 	stw	r3,12(r16)
   12aac:	07000044 	movi	fp,1
   12ab0:	003fc906 	br	129d8 <__ieee754_rem_pio2+0x214>
   12ab4:	04c000c4 	movi	r19,3
   12ab8:	00800084 	movi	r2,2
   12abc:	d8800015 	stw	r2,0(sp)
   12ac0:	008000b4 	movhi	r2,2
   12ac4:	10a35404 	addi	r2,r2,-29360
   12ac8:	d8800115 	stw	r2,4(sp)
   12acc:	d9000204 	addi	r4,sp,8
   12ad0:	800b883a 	mov	r5,r16
   12ad4:	a80d883a 	mov	r6,r21
   12ad8:	980f883a 	mov	r7,r19
   12adc:	00134200 	call	13420 <__kernel_rem_pio2>
   12ae0:	1039883a 	mov	fp,r2
   12ae4:	b03fbc0e 	bge	r22,zero,129d8 <__ieee754_rem_pio2+0x214>
   12ae8:	80c00117 	ldw	r3,4(r16)
   12aec:	80800317 	ldw	r2,12(r16)
   12af0:	0739c83a 	sub	fp,zero,fp
   12af4:	18e0003c 	xorhi	r3,r3,32768
   12af8:	10a0003c 	xorhi	r2,r2,32768
   12afc:	80c00115 	stw	r3,4(r16)
   12b00:	80800315 	stw	r2,12(r16)
   12b04:	003fb406 	br	129d8 <__ieee754_rem_pio2+0x214>
   12b08:	00144a00 	call	144a0 <fabs>
   12b0c:	1009883a 	mov	r4,r2
   12b10:	180b883a 	mov	r5,r3
   12b14:	019b72b4 	movhi	r6,28106
   12b18:	31b220c4 	addi	r6,r6,-14205
   12b1c:	01cff934 	movhi	r7,16356
   12b20:	39d7cc04 	addi	r7,r7,24368
   12b24:	102b883a 	mov	r21,r2
   12b28:	1829883a 	mov	r20,r3
   12b2c:	00153d00 	call	153d0 <__muldf3>
   12b30:	000d883a 	mov	r6,zero
   12b34:	01cff834 	movhi	r7,16352
   12b38:	1009883a 	mov	r4,r2
   12b3c:	180b883a 	mov	r5,r3
   12b40:	001531c0 	call	1531c <__adddf3>
   12b44:	180b883a 	mov	r5,r3
   12b48:	1009883a 	mov	r4,r2
   12b4c:	0015a600 	call	15a60 <__fixdfsi>
   12b50:	1009883a 	mov	r4,r2
   12b54:	1039883a 	mov	fp,r2
   12b58:	001598c0 	call	1598c <__floatsidf>
   12b5c:	1009883a 	mov	r4,r2
   12b60:	180b883a 	mov	r5,r3
   12b64:	01951034 	movhi	r6,21568
   12b68:	01cffe74 	movhi	r7,16377
   12b6c:	39c87ec4 	addi	r7,r7,8699
   12b70:	1027883a 	mov	r19,r2
   12b74:	1825883a 	mov	r18,r3
   12b78:	00153d00 	call	153d0 <__muldf3>
   12b7c:	a809883a 	mov	r4,r21
   12b80:	a00b883a 	mov	r5,r20
   12b84:	100d883a 	mov	r6,r2
   12b88:	180f883a 	mov	r7,r3
   12b8c:	00153700 	call	15370 <__subdf3>
   12b90:	9809883a 	mov	r4,r19
   12b94:	900b883a 	mov	r5,r18
   12b98:	018698b4 	movhi	r6,6754
   12b9c:	3198cc44 	addi	r6,r6,25393
   12ba0:	01cf7474 	movhi	r7,15825
   12ba4:	39ed1844 	addi	r7,r7,-19359
   12ba8:	102f883a 	mov	r23,r2
   12bac:	d8c00815 	stw	r3,32(sp)
   12bb0:	00153d00 	call	153d0 <__muldf3>
   12bb4:	010007c4 	movi	r4,31
   12bb8:	b81b883a 	mov	r13,r23
   12bbc:	db000817 	ldw	r12,32(sp)
   12bc0:	102b883a 	mov	r21,r2
   12bc4:	1829883a 	mov	r20,r3
   12bc8:	27002d16 	blt	r4,fp,12c80 <__ieee754_rem_pio2+0x4bc>
   12bcc:	e13fffc4 	addi	r4,fp,-1
   12bd0:	2109883a 	add	r4,r4,r4
   12bd4:	2109883a 	add	r4,r4,r4
   12bd8:	014000b4 	movhi	r5,2
   12bdc:	29633404 	addi	r5,r5,-29488
   12be0:	2909883a 	add	r4,r5,r4
   12be4:	21000017 	ldw	r4,0(r4)
   12be8:	24402526 	beq	r4,r17,12c80 <__ieee754_rem_pio2+0x4bc>
   12bec:	b809883a 	mov	r4,r23
   12bf0:	600b883a 	mov	r5,r12
   12bf4:	100d883a 	mov	r6,r2
   12bf8:	180f883a 	mov	r7,r3
   12bfc:	db000b15 	stw	r12,44(sp)
   12c00:	ddc00a15 	stw	r23,40(sp)
   12c04:	00153700 	call	15370 <__subdf3>
   12c08:	db000b17 	ldw	r12,44(sp)
   12c0c:	db400a17 	ldw	r13,40(sp)
   12c10:	1017883a 	mov	r11,r2
   12c14:	1815883a 	mov	r10,r3
   12c18:	80800015 	stw	r2,0(r16)
   12c1c:	80c00115 	stw	r3,4(r16)
   12c20:	580d883a 	mov	r6,r11
   12c24:	500f883a 	mov	r7,r10
   12c28:	6809883a 	mov	r4,r13
   12c2c:	600b883a 	mov	r5,r12
   12c30:	da800b15 	stw	r10,44(sp)
   12c34:	dac00a15 	stw	r11,40(sp)
   12c38:	00153700 	call	15370 <__subdf3>
   12c3c:	1009883a 	mov	r4,r2
   12c40:	180b883a 	mov	r5,r3
   12c44:	a80d883a 	mov	r6,r21
   12c48:	a00f883a 	mov	r7,r20
   12c4c:	00153700 	call	15370 <__subdf3>
   12c50:	80800215 	stw	r2,8(r16)
   12c54:	80c00315 	stw	r3,12(r16)
   12c58:	da800b17 	ldw	r10,44(sp)
   12c5c:	dac00a17 	ldw	r11,40(sp)
   12c60:	b03f5d0e 	bge	r22,zero,129d8 <__ieee754_rem_pio2+0x214>
   12c64:	52a0003c 	xorhi	r10,r10,32768
   12c68:	18e0003c 	xorhi	r3,r3,32768
   12c6c:	82c00015 	stw	r11,0(r16)
   12c70:	82800115 	stw	r10,4(r16)
   12c74:	80c00315 	stw	r3,12(r16)
   12c78:	0739c83a 	sub	fp,zero,fp
   12c7c:	003f5606 	br	129d8 <__ieee754_rem_pio2+0x214>
   12c80:	d9400817 	ldw	r5,32(sp)
   12c84:	b809883a 	mov	r4,r23
   12c88:	100d883a 	mov	r6,r2
   12c8c:	180f883a 	mov	r7,r3
   12c90:	db000b15 	stw	r12,44(sp)
   12c94:	db400a15 	stw	r13,40(sp)
   12c98:	00153700 	call	15370 <__subdf3>
   12c9c:	1017883a 	mov	r11,r2
   12ca0:	1804d53a 	srli	r2,r3,20
   12ca4:	881dd53a 	srai	r14,r17,20
   12ca8:	1815883a 	mov	r10,r3
   12cac:	1081ffcc 	andi	r2,r2,2047
   12cb0:	80c00115 	stw	r3,4(r16)
   12cb4:	82c00015 	stw	r11,0(r16)
   12cb8:	7085c83a 	sub	r2,r14,r2
   12cbc:	00c00404 	movi	r3,16
   12cc0:	db000b17 	ldw	r12,44(sp)
   12cc4:	db400a17 	ldw	r13,40(sp)
   12cc8:	18bfd50e 	bge	r3,r2,12c20 <__ieee754_rem_pio2+0x45c>
   12ccc:	9809883a 	mov	r4,r19
   12cd0:	900b883a 	mov	r5,r18
   12cd4:	01869834 	movhi	r6,6752
   12cd8:	01cf7474 	movhi	r7,15825
   12cdc:	39ed1844 	addi	r7,r7,-19359
   12ce0:	db800a15 	stw	r14,40(sp)
   12ce4:	00153d00 	call	153d0 <__muldf3>
   12ce8:	d9400817 	ldw	r5,32(sp)
   12cec:	b809883a 	mov	r4,r23
   12cf0:	100d883a 	mov	r6,r2
   12cf4:	180f883a 	mov	r7,r3
   12cf8:	102b883a 	mov	r21,r2
   12cfc:	1829883a 	mov	r20,r3
   12d00:	00153700 	call	15370 <__subdf3>
   12d04:	d9400817 	ldw	r5,32(sp)
   12d08:	b809883a 	mov	r4,r23
   12d0c:	100d883a 	mov	r6,r2
   12d10:	180f883a 	mov	r7,r3
   12d14:	1023883a 	mov	r17,r2
   12d18:	d8c00915 	stw	r3,36(sp)
   12d1c:	00153700 	call	15370 <__subdf3>
   12d20:	a80d883a 	mov	r6,r21
   12d24:	a00f883a 	mov	r7,r20
   12d28:	1009883a 	mov	r4,r2
   12d2c:	180b883a 	mov	r5,r3
   12d30:	00153700 	call	15370 <__subdf3>
   12d34:	9809883a 	mov	r4,r19
   12d38:	900b883a 	mov	r5,r18
   12d3c:	018b80f4 	movhi	r6,11779
   12d40:	319c1cc4 	addi	r6,r6,28787
   12d44:	01cee8f4 	movhi	r7,15267
   12d48:	39c66284 	addi	r7,r7,6538
   12d4c:	102b883a 	mov	r21,r2
   12d50:	1829883a 	mov	r20,r3
   12d54:	00153d00 	call	153d0 <__muldf3>
   12d58:	a80d883a 	mov	r6,r21
   12d5c:	a00f883a 	mov	r7,r20
   12d60:	1009883a 	mov	r4,r2
   12d64:	180b883a 	mov	r5,r3
   12d68:	00153700 	call	15370 <__subdf3>
   12d6c:	d9400917 	ldw	r5,36(sp)
   12d70:	8809883a 	mov	r4,r17
   12d74:	100d883a 	mov	r6,r2
   12d78:	180f883a 	mov	r7,r3
   12d7c:	102b883a 	mov	r21,r2
   12d80:	1829883a 	mov	r20,r3
   12d84:	00153700 	call	15370 <__subdf3>
   12d88:	1017883a 	mov	r11,r2
   12d8c:	1804d53a 	srli	r2,r3,20
   12d90:	db800a17 	ldw	r14,40(sp)
   12d94:	82c00015 	stw	r11,0(r16)
   12d98:	1081ffcc 	andi	r2,r2,2047
   12d9c:	709dc83a 	sub	r14,r14,r2
   12da0:	80c00115 	stw	r3,4(r16)
   12da4:	00800c44 	movi	r2,49
   12da8:	1815883a 	mov	r10,r3
   12dac:	1380700e 	bge	r2,r14,12f70 <__ieee754_rem_pio2+0x7ac>
   12db0:	9809883a 	mov	r4,r19
   12db4:	900b883a 	mov	r5,r18
   12db8:	018b8034 	movhi	r6,11776
   12dbc:	01cee8f4 	movhi	r7,15267
   12dc0:	39c66284 	addi	r7,r7,6538
   12dc4:	00153d00 	call	153d0 <__muldf3>
   12dc8:	d9400917 	ldw	r5,36(sp)
   12dcc:	8809883a 	mov	r4,r17
   12dd0:	100d883a 	mov	r6,r2
   12dd4:	180f883a 	mov	r7,r3
   12dd8:	102b883a 	mov	r21,r2
   12ddc:	1829883a 	mov	r20,r3
   12de0:	00153700 	call	15370 <__subdf3>
   12de4:	d9400917 	ldw	r5,36(sp)
   12de8:	8809883a 	mov	r4,r17
   12dec:	100d883a 	mov	r6,r2
   12df0:	180f883a 	mov	r7,r3
   12df4:	d8c00b15 	stw	r3,44(sp)
   12df8:	d8800a15 	stw	r2,40(sp)
   12dfc:	00153700 	call	15370 <__subdf3>
   12e00:	a80d883a 	mov	r6,r21
   12e04:	a00f883a 	mov	r7,r20
   12e08:	1009883a 	mov	r4,r2
   12e0c:	180b883a 	mov	r5,r3
   12e10:	00153700 	call	15370 <__subdf3>
   12e14:	9809883a 	mov	r4,r19
   12e18:	900b883a 	mov	r5,r18
   12e1c:	01894834 	movhi	r6,9504
   12e20:	31927044 	addi	r6,r6,18881
   12e24:	01ce5f34 	movhi	r7,14716
   12e28:	39e0e684 	addi	r7,r7,-31846
   12e2c:	1029883a 	mov	r20,r2
   12e30:	1823883a 	mov	r17,r3
   12e34:	00153d00 	call	153d0 <__muldf3>
   12e38:	a00d883a 	mov	r6,r20
   12e3c:	1009883a 	mov	r4,r2
   12e40:	180b883a 	mov	r5,r3
   12e44:	880f883a 	mov	r7,r17
   12e48:	00153700 	call	15370 <__subdf3>
   12e4c:	db400a17 	ldw	r13,40(sp)
   12e50:	db000b17 	ldw	r12,44(sp)
   12e54:	102b883a 	mov	r21,r2
   12e58:	1829883a 	mov	r20,r3
   12e5c:	6809883a 	mov	r4,r13
   12e60:	600b883a 	mov	r5,r12
   12e64:	100d883a 	mov	r6,r2
   12e68:	180f883a 	mov	r7,r3
   12e6c:	003f6506 	br	12c04 <__ieee754_rem_pio2+0x440>
   12e70:	001531c0 	call	1531c <__adddf3>
   12e74:	1027883a 	mov	r19,r2
   12e78:	008ffe74 	movhi	r2,16377
   12e7c:	10887ec4 	addi	r2,r2,8699
   12e80:	1825883a 	mov	r18,r3
   12e84:	88801926 	beq	r17,r2,12eec <__ieee754_rem_pio2+0x728>
   12e88:	9809883a 	mov	r4,r19
   12e8c:	180b883a 	mov	r5,r3
   12e90:	018698b4 	movhi	r6,6754
   12e94:	3198cc44 	addi	r6,r6,25393
   12e98:	01cf7474 	movhi	r7,15825
   12e9c:	39ed1844 	addi	r7,r7,-19359
   12ea0:	001531c0 	call	1531c <__adddf3>
   12ea4:	100d883a 	mov	r6,r2
   12ea8:	180f883a 	mov	r7,r3
   12eac:	9809883a 	mov	r4,r19
   12eb0:	900b883a 	mov	r5,r18
   12eb4:	80800015 	stw	r2,0(r16)
   12eb8:	80c00115 	stw	r3,4(r16)
   12ebc:	00153700 	call	15370 <__subdf3>
   12ec0:	1009883a 	mov	r4,r2
   12ec4:	180b883a 	mov	r5,r3
   12ec8:	018698b4 	movhi	r6,6754
   12ecc:	3198cc44 	addi	r6,r6,25393
   12ed0:	01cf7474 	movhi	r7,15825
   12ed4:	39ed1844 	addi	r7,r7,-19359
   12ed8:	001531c0 	call	1531c <__adddf3>
   12edc:	80800215 	stw	r2,8(r16)
   12ee0:	80c00315 	stw	r3,12(r16)
   12ee4:	073fffc4 	movi	fp,-1
   12ee8:	003ebb06 	br	129d8 <__ieee754_rem_pio2+0x214>
   12eec:	01869834 	movhi	r6,6752
   12ef0:	01cf7474 	movhi	r7,15825
   12ef4:	39ed1844 	addi	r7,r7,-19359
   12ef8:	9809883a 	mov	r4,r19
   12efc:	180b883a 	mov	r5,r3
   12f00:	001531c0 	call	1531c <__adddf3>
   12f04:	1009883a 	mov	r4,r2
   12f08:	180b883a 	mov	r5,r3
   12f0c:	018b80f4 	movhi	r6,11779
   12f10:	319c1cc4 	addi	r6,r6,28787
   12f14:	01cee8f4 	movhi	r7,15267
   12f18:	39c66284 	addi	r7,r7,6538
   12f1c:	1025883a 	mov	r18,r2
   12f20:	1823883a 	mov	r17,r3
   12f24:	001531c0 	call	1531c <__adddf3>
   12f28:	100d883a 	mov	r6,r2
   12f2c:	180f883a 	mov	r7,r3
   12f30:	9009883a 	mov	r4,r18
   12f34:	880b883a 	mov	r5,r17
   12f38:	80800015 	stw	r2,0(r16)
   12f3c:	80c00115 	stw	r3,4(r16)
   12f40:	00153700 	call	15370 <__subdf3>
   12f44:	1009883a 	mov	r4,r2
   12f48:	180b883a 	mov	r5,r3
   12f4c:	018b80f4 	movhi	r6,11779
   12f50:	319c1cc4 	addi	r6,r6,28787
   12f54:	01cee8f4 	movhi	r7,15267
   12f58:	39c66284 	addi	r7,r7,6538
   12f5c:	001531c0 	call	1531c <__adddf3>
   12f60:	80800215 	stw	r2,8(r16)
   12f64:	80c00315 	stw	r3,12(r16)
   12f68:	073fffc4 	movi	fp,-1
   12f6c:	003e9a06 	br	129d8 <__ieee754_rem_pio2+0x214>
   12f70:	881b883a 	mov	r13,r17
   12f74:	db000917 	ldw	r12,36(sp)
   12f78:	003f2906 	br	12c20 <__ieee754_rem_pio2+0x45c>

00012f7c <__kernel_cos>:
   12f7c:	defff304 	addi	sp,sp,-52
   12f80:	dd400815 	stw	r21,32(sp)
   12f84:	05600034 	movhi	r21,32768
   12f88:	ad7fffc4 	addi	r21,r21,-1
   12f8c:	df000b15 	stw	fp,44(sp)
   12f90:	ddc00a15 	stw	r23,40(sp)
   12f94:	dd800915 	stw	r22,36(sp)
   12f98:	dc800515 	stw	r18,20(sp)
   12f9c:	dfc00c15 	stw	ra,48(sp)
   12fa0:	dd000715 	stw	r20,28(sp)
   12fa4:	dcc00615 	stw	r19,24(sp)
   12fa8:	dc400415 	stw	r17,16(sp)
   12fac:	dc000315 	stw	r16,12(sp)
   12fb0:	2d6a703a 	and	r21,r5,r21
   12fb4:	008f9034 	movhi	r2,15936
   12fb8:	10bfffc4 	addi	r2,r2,-1
   12fbc:	2825883a 	mov	r18,r5
   12fc0:	202d883a 	mov	r22,r4
   12fc4:	302f883a 	mov	r23,r6
   12fc8:	3839883a 	mov	fp,r7
   12fcc:	15407516 	blt	r2,r21,131a4 <__kernel_cos+0x228>
   12fd0:	0015a600 	call	15a60 <__fixdfsi>
   12fd4:	10010f26 	beq	r2,zero,13414 <__kernel_cos+0x498>
   12fd8:	b00d883a 	mov	r6,r22
   12fdc:	900f883a 	mov	r7,r18
   12fe0:	b009883a 	mov	r4,r22
   12fe4:	900b883a 	mov	r5,r18
   12fe8:	00153d00 	call	153d0 <__muldf3>
   12fec:	1009883a 	mov	r4,r2
   12ff0:	180b883a 	mov	r5,r3
   12ff4:	01afa234 	movhi	r6,48776
   12ff8:	318e3504 	addi	r6,r6,14548
   12ffc:	01ef6a74 	movhi	r7,48553
   13000:	39feba44 	addi	r7,r7,-1303
   13004:	1029883a 	mov	r20,r2
   13008:	1827883a 	mov	r19,r3
   1300c:	00153d00 	call	153d0 <__muldf3>
   13010:	1009883a 	mov	r4,r2
   13014:	180b883a 	mov	r5,r3
   13018:	01af6d74 	movhi	r6,48565
   1301c:	31ac7104 	addi	r6,r6,-20028
   13020:	01cf88b4 	movhi	r7,15906
   13024:	39fba784 	addi	r7,r7,-4450
   13028:	001531c0 	call	1531c <__adddf3>
   1302c:	1009883a 	mov	r4,r2
   13030:	180b883a 	mov	r5,r3
   13034:	a00d883a 	mov	r6,r20
   13038:	980f883a 	mov	r7,r19
   1303c:	00153d00 	call	153d0 <__muldf3>
   13040:	1009883a 	mov	r4,r2
   13044:	180b883a 	mov	r5,r3
   13048:	01a02734 	movhi	r6,32924
   1304c:	3194ab44 	addi	r6,r6,21165
   13050:	01cfa4b4 	movhi	r7,16018
   13054:	39df93c4 	addi	r7,r7,32335
   13058:	00153700 	call	15370 <__subdf3>
   1305c:	1009883a 	mov	r4,r2
   13060:	180b883a 	mov	r5,r3
   13064:	a00d883a 	mov	r6,r20
   13068:	980f883a 	mov	r7,r19
   1306c:	00153d00 	call	153d0 <__muldf3>
   13070:	1009883a 	mov	r4,r2
   13074:	180b883a 	mov	r5,r3
   13078:	018672f4 	movhi	r6,6603
   1307c:	31856404 	addi	r6,r6,5520
   13080:	01cfbeb4 	movhi	r7,16122
   13084:	39c06804 	addi	r7,r7,416
   13088:	001531c0 	call	1531c <__adddf3>
   1308c:	1009883a 	mov	r4,r2
   13090:	180b883a 	mov	r5,r3
   13094:	a00d883a 	mov	r6,r20
   13098:	980f883a 	mov	r7,r19
   1309c:	00153d00 	call	153d0 <__muldf3>
   130a0:	1009883a 	mov	r4,r2
   130a4:	180b883a 	mov	r5,r3
   130a8:	0185b074 	movhi	r6,5825
   130ac:	31945dc4 	addi	r6,r6,20855
   130b0:	01cfd5f4 	movhi	r7,16215
   130b4:	39f05b04 	addi	r7,r7,-16020
   130b8:	00153700 	call	15370 <__subdf3>
   130bc:	1009883a 	mov	r4,r2
   130c0:	180b883a 	mov	r5,r3
   130c4:	a00d883a 	mov	r6,r20
   130c8:	980f883a 	mov	r7,r19
   130cc:	00153d00 	call	153d0 <__muldf3>
   130d0:	1009883a 	mov	r4,r2
   130d4:	180b883a 	mov	r5,r3
   130d8:	01955574 	movhi	r6,21845
   130dc:	31955304 	addi	r6,r6,21836
   130e0:	01cfe974 	movhi	r7,16293
   130e4:	39d55544 	addi	r7,r7,21845
   130e8:	001531c0 	call	1531c <__adddf3>
   130ec:	1009883a 	mov	r4,r2
   130f0:	180b883a 	mov	r5,r3
   130f4:	a00d883a 	mov	r6,r20
   130f8:	980f883a 	mov	r7,r19
   130fc:	00153d00 	call	153d0 <__muldf3>
   13100:	1017883a 	mov	r11,r2
   13104:	1815883a 	mov	r10,r3
   13108:	a009883a 	mov	r4,r20
   1310c:	980b883a 	mov	r5,r19
   13110:	000d883a 	mov	r6,zero
   13114:	01cff834 	movhi	r7,16352
   13118:	da800215 	stw	r10,8(sp)
   1311c:	dac00115 	stw	r11,4(sp)
   13120:	00153d00 	call	153d0 <__muldf3>
   13124:	dac00117 	ldw	r11,4(sp)
   13128:	da800217 	ldw	r10,8(sp)
   1312c:	a009883a 	mov	r4,r20
   13130:	580d883a 	mov	r6,r11
   13134:	500f883a 	mov	r7,r10
   13138:	980b883a 	mov	r5,r19
   1313c:	1023883a 	mov	r17,r2
   13140:	1821883a 	mov	r16,r3
   13144:	00153d00 	call	153d0 <__muldf3>
   13148:	b009883a 	mov	r4,r22
   1314c:	900b883a 	mov	r5,r18
   13150:	b80d883a 	mov	r6,r23
   13154:	e00f883a 	mov	r7,fp
   13158:	1029883a 	mov	r20,r2
   1315c:	1827883a 	mov	r19,r3
   13160:	00153d00 	call	153d0 <__muldf3>
   13164:	a009883a 	mov	r4,r20
   13168:	980b883a 	mov	r5,r19
   1316c:	100d883a 	mov	r6,r2
   13170:	180f883a 	mov	r7,r3
   13174:	00153700 	call	15370 <__subdf3>
   13178:	8809883a 	mov	r4,r17
   1317c:	800b883a 	mov	r5,r16
   13180:	100d883a 	mov	r6,r2
   13184:	180f883a 	mov	r7,r3
   13188:	00153700 	call	15370 <__subdf3>
   1318c:	0009883a 	mov	r4,zero
   13190:	014ffc34 	movhi	r5,16368
   13194:	100d883a 	mov	r6,r2
   13198:	180f883a 	mov	r7,r3
   1319c:	00153700 	call	15370 <__subdf3>
   131a0:	00008b06 	br	133d0 <__kernel_cos+0x454>
   131a4:	200d883a 	mov	r6,r4
   131a8:	280f883a 	mov	r7,r5
   131ac:	00153d00 	call	153d0 <__muldf3>
   131b0:	01afa234 	movhi	r6,48776
   131b4:	318e3504 	addi	r6,r6,14548
   131b8:	01ef6a74 	movhi	r7,48553
   131bc:	39feba44 	addi	r7,r7,-1303
   131c0:	1009883a 	mov	r4,r2
   131c4:	180b883a 	mov	r5,r3
   131c8:	1023883a 	mov	r17,r2
   131cc:	1821883a 	mov	r16,r3
   131d0:	00153d00 	call	153d0 <__muldf3>
   131d4:	1009883a 	mov	r4,r2
   131d8:	180b883a 	mov	r5,r3
   131dc:	01af6d74 	movhi	r6,48565
   131e0:	31ac7104 	addi	r6,r6,-20028
   131e4:	01cf88b4 	movhi	r7,15906
   131e8:	39fba784 	addi	r7,r7,-4450
   131ec:	001531c0 	call	1531c <__adddf3>
   131f0:	1009883a 	mov	r4,r2
   131f4:	180b883a 	mov	r5,r3
   131f8:	880d883a 	mov	r6,r17
   131fc:	800f883a 	mov	r7,r16
   13200:	00153d00 	call	153d0 <__muldf3>
   13204:	1009883a 	mov	r4,r2
   13208:	180b883a 	mov	r5,r3
   1320c:	01a02734 	movhi	r6,32924
   13210:	3194ab44 	addi	r6,r6,21165
   13214:	01cfa4b4 	movhi	r7,16018
   13218:	39df93c4 	addi	r7,r7,32335
   1321c:	00153700 	call	15370 <__subdf3>
   13220:	1009883a 	mov	r4,r2
   13224:	180b883a 	mov	r5,r3
   13228:	880d883a 	mov	r6,r17
   1322c:	800f883a 	mov	r7,r16
   13230:	00153d00 	call	153d0 <__muldf3>
   13234:	1009883a 	mov	r4,r2
   13238:	180b883a 	mov	r5,r3
   1323c:	018672f4 	movhi	r6,6603
   13240:	31856404 	addi	r6,r6,5520
   13244:	01cfbeb4 	movhi	r7,16122
   13248:	39c06804 	addi	r7,r7,416
   1324c:	001531c0 	call	1531c <__adddf3>
   13250:	1009883a 	mov	r4,r2
   13254:	180b883a 	mov	r5,r3
   13258:	880d883a 	mov	r6,r17
   1325c:	800f883a 	mov	r7,r16
   13260:	00153d00 	call	153d0 <__muldf3>
   13264:	1009883a 	mov	r4,r2
   13268:	180b883a 	mov	r5,r3
   1326c:	0185b074 	movhi	r6,5825
   13270:	31945dc4 	addi	r6,r6,20855
   13274:	01cfd5f4 	movhi	r7,16215
   13278:	39f05b04 	addi	r7,r7,-16020
   1327c:	00153700 	call	15370 <__subdf3>
   13280:	1009883a 	mov	r4,r2
   13284:	180b883a 	mov	r5,r3
   13288:	880d883a 	mov	r6,r17
   1328c:	800f883a 	mov	r7,r16
   13290:	00153d00 	call	153d0 <__muldf3>
   13294:	1009883a 	mov	r4,r2
   13298:	180b883a 	mov	r5,r3
   1329c:	01955574 	movhi	r6,21845
   132a0:	31955304 	addi	r6,r6,21836
   132a4:	01cfe974 	movhi	r7,16293
   132a8:	39d55544 	addi	r7,r7,21845
   132ac:	001531c0 	call	1531c <__adddf3>
   132b0:	1009883a 	mov	r4,r2
   132b4:	180b883a 	mov	r5,r3
   132b8:	880d883a 	mov	r6,r17
   132bc:	800f883a 	mov	r7,r16
   132c0:	00153d00 	call	153d0 <__muldf3>
   132c4:	1013883a 	mov	r9,r2
   132c8:	1017883a 	mov	r11,r2
   132cc:	008ff4f4 	movhi	r2,16339
   132d0:	108ccc84 	addi	r2,r2,13106
   132d4:	1811883a 	mov	r8,r3
   132d8:	8829883a 	mov	r20,r17
   132dc:	8027883a 	mov	r19,r16
   132e0:	1815883a 	mov	r10,r3
   132e4:	157f880e 	bge	r2,r21,13108 <__kernel_cos+0x18c>
   132e8:	008ffa74 	movhi	r2,16361
   132ec:	15404416 	blt	r2,r21,13400 <__kernel_cos+0x484>
   132f0:	00bff834 	movhi	r2,65504
   132f4:	a8ab883a 	add	r21,r21,r2
   132f8:	0009883a 	mov	r4,zero
   132fc:	014ffc34 	movhi	r5,16368
   13300:	000d883a 	mov	r6,zero
   13304:	a80f883a 	mov	r7,r21
   13308:	da400115 	stw	r9,4(sp)
   1330c:	d8c00215 	stw	r3,8(sp)
   13310:	00153700 	call	15370 <__subdf3>
   13314:	da000217 	ldw	r8,8(sp)
   13318:	da400117 	ldw	r9,4(sp)
   1331c:	1029883a 	mov	r20,r2
   13320:	d8c00015 	stw	r3,0(sp)
   13324:	8809883a 	mov	r4,r17
   13328:	800b883a 	mov	r5,r16
   1332c:	000d883a 	mov	r6,zero
   13330:	01cff834 	movhi	r7,16352
   13334:	da000215 	stw	r8,8(sp)
   13338:	da400115 	stw	r9,4(sp)
   1333c:	00153d00 	call	153d0 <__muldf3>
   13340:	a80f883a 	mov	r7,r21
   13344:	1009883a 	mov	r4,r2
   13348:	180b883a 	mov	r5,r3
   1334c:	000d883a 	mov	r6,zero
   13350:	00153700 	call	15370 <__subdf3>
   13354:	da400117 	ldw	r9,4(sp)
   13358:	da000217 	ldw	r8,8(sp)
   1335c:	8809883a 	mov	r4,r17
   13360:	480d883a 	mov	r6,r9
   13364:	400f883a 	mov	r7,r8
   13368:	800b883a 	mov	r5,r16
   1336c:	1027883a 	mov	r19,r2
   13370:	182b883a 	mov	r21,r3
   13374:	00153d00 	call	153d0 <__muldf3>
   13378:	b009883a 	mov	r4,r22
   1337c:	900b883a 	mov	r5,r18
   13380:	b80d883a 	mov	r6,r23
   13384:	e00f883a 	mov	r7,fp
   13388:	1023883a 	mov	r17,r2
   1338c:	1821883a 	mov	r16,r3
   13390:	00153d00 	call	153d0 <__muldf3>
   13394:	8809883a 	mov	r4,r17
   13398:	800b883a 	mov	r5,r16
   1339c:	100d883a 	mov	r6,r2
   133a0:	180f883a 	mov	r7,r3
   133a4:	00153700 	call	15370 <__subdf3>
   133a8:	9809883a 	mov	r4,r19
   133ac:	a80b883a 	mov	r5,r21
   133b0:	100d883a 	mov	r6,r2
   133b4:	180f883a 	mov	r7,r3
   133b8:	00153700 	call	15370 <__subdf3>
   133bc:	d9400017 	ldw	r5,0(sp)
   133c0:	a009883a 	mov	r4,r20
   133c4:	100d883a 	mov	r6,r2
   133c8:	180f883a 	mov	r7,r3
   133cc:	00153700 	call	15370 <__subdf3>
   133d0:	dfc00c17 	ldw	ra,48(sp)
   133d4:	df000b17 	ldw	fp,44(sp)
   133d8:	ddc00a17 	ldw	r23,40(sp)
   133dc:	dd800917 	ldw	r22,36(sp)
   133e0:	dd400817 	ldw	r21,32(sp)
   133e4:	dd000717 	ldw	r20,28(sp)
   133e8:	dcc00617 	ldw	r19,24(sp)
   133ec:	dc800517 	ldw	r18,20(sp)
   133f0:	dc400417 	ldw	r17,16(sp)
   133f4:	dc000317 	ldw	r16,12(sp)
   133f8:	dec00d04 	addi	sp,sp,52
   133fc:	f800283a 	ret
   13400:	008ff9f4 	movhi	r2,16359
   13404:	0029883a 	mov	r20,zero
   13408:	d8800015 	stw	r2,0(sp)
   1340c:	054ff4b4 	movhi	r21,16338
   13410:	003fc406 	br	13324 <__kernel_cos+0x3a8>
   13414:	0005883a 	mov	r2,zero
   13418:	00cffc34 	movhi	r3,16368
   1341c:	003fec06 	br	133d0 <__kernel_cos+0x454>

00013420 <__kernel_rem_pio2>:
   13420:	deff5a04 	addi	sp,sp,-664
   13424:	da00a617 	ldw	r8,664(sp)
   13428:	00c000b4 	movhi	r3,2
   1342c:	18e39604 	addi	r3,r3,-29096
   13430:	dc409d15 	stw	r17,628(sp)
   13434:	4205883a 	add	r2,r8,r8
   13438:	1085883a 	add	r2,r2,r2
   1343c:	1885883a 	add	r2,r3,r2
   13440:	10800017 	ldw	r2,0(r2)
   13444:	d9409215 	stw	r5,584(sp)
   13448:	2023883a 	mov	r17,r4
   1344c:	01400604 	movi	r5,24
   13450:	313fff44 	addi	r4,r6,-3
   13454:	dc809e15 	stw	r18,632(sp)
   13458:	dc009c15 	stw	r16,624(sp)
   1345c:	dfc0a515 	stw	ra,660(sp)
   13460:	3821883a 	mov	r16,r7
   13464:	df00a415 	stw	fp,656(sp)
   13468:	ddc0a315 	stw	r23,652(sp)
   1346c:	dd80a215 	stw	r22,648(sp)
   13470:	dd40a115 	stw	r21,644(sp)
   13474:	dd00a015 	stw	r20,640(sp)
   13478:	dcc09f15 	stw	r19,636(sp)
   1347c:	3025883a 	mov	r18,r6
   13480:	d8809315 	stw	r2,588(sp)
   13484:	0015d5c0 	call	15d5c <__divsi3>
   13488:	823fffc4 	addi	r8,r16,-1
   1348c:	d8809515 	stw	r2,596(sp)
   13490:	da008e15 	stw	r8,568(sp)
   13494:	10033016 	blt	r2,zero,14158 <__kernel_rem_pio2+0xd38>
   13498:	d8809517 	ldw	r2,596(sp)
   1349c:	da008e17 	ldw	r8,568(sp)
   134a0:	d9009317 	ldw	r4,588(sp)
   134a4:	0086303a 	nor	r3,zero,r2
   134a8:	18c00624 	muli	r3,r3,24
   134ac:	d9409517 	ldw	r5,596(sp)
   134b0:	4105883a 	add	r2,r8,r4
   134b4:	1c87883a 	add	r3,r3,r18
   134b8:	d8c09115 	stw	r3,580(sp)
   134bc:	2a27c83a 	sub	r19,r5,r8
   134c0:	10001016 	blt	r2,zero,13504 <__kernel_rem_pio2+0xe4>
   134c4:	da00a717 	ldw	r8,668(sp)
   134c8:	9ceb883a 	add	r21,r19,r19
   134cc:	ad6b883a 	add	r21,r21,r21
   134d0:	9885883a 	add	r2,r19,r2
   134d4:	dd005004 	addi	r20,sp,320
   134d8:	456b883a 	add	r21,r8,r21
   134dc:	14800044 	addi	r18,r2,1
   134e0:	98015516 	blt	r19,zero,13a38 <__kernel_rem_pio2+0x618>
   134e4:	a9000017 	ldw	r4,0(r21)
   134e8:	001598c0 	call	1598c <__floatsidf>
   134ec:	a0800015 	stw	r2,0(r20)
   134f0:	a0c00115 	stw	r3,4(r20)
   134f4:	9cc00044 	addi	r19,r19,1
   134f8:	a5000204 	addi	r20,r20,8
   134fc:	ad400104 	addi	r21,r21,4
   13500:	9cbff71e 	bne	r19,r18,134e0 <__kernel_rem_pio2+0xc0>
   13504:	da009317 	ldw	r8,588(sp)
   13508:	40032e16 	blt	r8,zero,141c4 <__kernel_rem_pio2+0xda4>
   1350c:	da009317 	ldw	r8,588(sp)
   13510:	dc800204 	addi	r18,sp,8
   13514:	802090fa 	slli	r16,r16,3
   13518:	402a90fa 	slli	r21,r8,3
   1351c:	da008e17 	ldw	r8,568(sp)
   13520:	d829883a 	mov	r20,sp
   13524:	956d883a 	add	r22,r18,r21
   13528:	dd808d15 	stw	r22,564(sp)
   1352c:	ddc08e17 	ldw	r23,568(sp)
   13530:	40001f16 	blt	r8,zero,135b0 <__kernel_rem_pio2+0x190>
   13534:	b82690fa 	slli	r19,r23,3
   13538:	d8805004 	addi	r2,sp,320
   1353c:	002b883a 	mov	r21,zero
   13540:	002d883a 	mov	r22,zero
   13544:	14e7883a 	add	r19,r2,r19
   13548:	0039883a 	mov	fp,zero
   1354c:	8d51883a 	add	r8,r17,r21
   13550:	99800017 	ldw	r6,0(r19)
   13554:	99c00117 	ldw	r7,4(r19)
   13558:	41000017 	ldw	r4,0(r8)
   1355c:	41400117 	ldw	r5,4(r8)
   13560:	ad400204 	addi	r21,r21,8
   13564:	9cfffe04 	addi	r19,r19,-8
   13568:	00153d00 	call	153d0 <__muldf3>
   1356c:	b009883a 	mov	r4,r22
   13570:	e00b883a 	mov	r5,fp
   13574:	100d883a 	mov	r6,r2
   13578:	180f883a 	mov	r7,r3
   1357c:	001531c0 	call	1531c <__adddf3>
   13580:	102d883a 	mov	r22,r2
   13584:	1839883a 	mov	fp,r3
   13588:	ac3ff01e 	bne	r21,r16,1354c <__kernel_rem_pio2+0x12c>
   1358c:	da008d17 	ldw	r8,564(sp)
   13590:	a5800015 	stw	r22,0(r20)
   13594:	a7000115 	stw	fp,4(r20)
   13598:	bdc00044 	addi	r23,r23,1
   1359c:	9029883a 	mov	r20,r18
   135a0:	92000b26 	beq	r18,r8,135d0 <__kernel_rem_pio2+0x1b0>
   135a4:	da008e17 	ldw	r8,568(sp)
   135a8:	94800204 	addi	r18,r18,8
   135ac:	403fe10e 	bge	r8,zero,13534 <__kernel_rem_pio2+0x114>
   135b0:	da008d17 	ldw	r8,564(sp)
   135b4:	002d883a 	mov	r22,zero
   135b8:	0039883a 	mov	fp,zero
   135bc:	a5800015 	stw	r22,0(r20)
   135c0:	a7000115 	stw	fp,4(r20)
   135c4:	bdc00044 	addi	r23,r23,1
   135c8:	9029883a 	mov	r20,r18
   135cc:	923ff51e 	bne	r18,r8,135a4 <__kernel_rem_pio2+0x184>
   135d0:	da009317 	ldw	r8,588(sp)
   135d4:	4207883a 	add	r3,r8,r8
   135d8:	40bfffc4 	addi	r2,r8,-1
   135dc:	417fff84 	addi	r5,r8,-2
   135e0:	18c7883a 	add	r3,r3,r3
   135e4:	da007704 	addi	r8,sp,476
   135e8:	da008c15 	stw	r8,560(sp)
   135ec:	40d1883a 	add	r8,r8,r3
   135f0:	da009615 	stw	r8,600(sp)
   135f4:	da009317 	ldw	r8,588(sp)
   135f8:	1085883a 	add	r2,r2,r2
   135fc:	1085883a 	add	r2,r2,r2
   13600:	da008f15 	stw	r8,572(sp)
   13604:	401090fa 	slli	r8,r8,3
   13608:	d889883a 	add	r4,sp,r2
   1360c:	2945883a 	add	r2,r5,r5
   13610:	21007804 	addi	r4,r4,480
   13614:	1085883a 	add	r2,r2,r2
   13618:	da009415 	stw	r8,592(sp)
   1361c:	d9009715 	stw	r4,604(sp)
   13620:	d8809815 	stw	r2,608(sp)
   13624:	da009417 	ldw	r8,592(sp)
   13628:	da05883a 	add	r2,sp,r8
   1362c:	da008f17 	ldw	r8,572(sp)
   13630:	17000017 	ldw	fp,0(r2)
   13634:	15400117 	ldw	r21,4(r2)
   13638:	02002b0e 	bge	zero,r8,136e8 <__kernel_rem_pio2+0x2c8>
   1363c:	44bfffc4 	addi	r18,r8,-1
   13640:	902490fa 	slli	r18,r18,3
   13644:	4227883a 	add	r19,r8,r8
   13648:	9ce7883a 	add	r19,r19,r19
   1364c:	dd007804 	addi	r20,sp,480
   13650:	dca5883a 	add	r18,sp,r18
   13654:	a4e7883a 	add	r19,r20,r19
   13658:	000d883a 	mov	r6,zero
   1365c:	01cf9c34 	movhi	r7,15984
   13660:	e009883a 	mov	r4,fp
   13664:	a80b883a 	mov	r5,r21
   13668:	00153d00 	call	153d0 <__muldf3>
   1366c:	180b883a 	mov	r5,r3
   13670:	1009883a 	mov	r4,r2
   13674:	0015a600 	call	15a60 <__fixdfsi>
   13678:	1009883a 	mov	r4,r2
   1367c:	001598c0 	call	1598c <__floatsidf>
   13680:	1009883a 	mov	r4,r2
   13684:	180b883a 	mov	r5,r3
   13688:	000d883a 	mov	r6,zero
   1368c:	01d05c34 	movhi	r7,16752
   13690:	102f883a 	mov	r23,r2
   13694:	182d883a 	mov	r22,r3
   13698:	00153d00 	call	153d0 <__muldf3>
   1369c:	e009883a 	mov	r4,fp
   136a0:	a80b883a 	mov	r5,r21
   136a4:	100d883a 	mov	r6,r2
   136a8:	180f883a 	mov	r7,r3
   136ac:	00153700 	call	15370 <__subdf3>
   136b0:	180b883a 	mov	r5,r3
   136b4:	1009883a 	mov	r4,r2
   136b8:	0015a600 	call	15a60 <__fixdfsi>
   136bc:	91800017 	ldw	r6,0(r18)
   136c0:	91c00117 	ldw	r7,4(r18)
   136c4:	a0800015 	stw	r2,0(r20)
   136c8:	b809883a 	mov	r4,r23
   136cc:	b00b883a 	mov	r5,r22
   136d0:	001531c0 	call	1531c <__adddf3>
   136d4:	a5000104 	addi	r20,r20,4
   136d8:	1039883a 	mov	fp,r2
   136dc:	182b883a 	mov	r21,r3
   136e0:	94bffe04 	addi	r18,r18,-8
   136e4:	a4ffdc1e 	bne	r20,r19,13658 <__kernel_rem_pio2+0x238>
   136e8:	d9809117 	ldw	r6,580(sp)
   136ec:	e009883a 	mov	r4,fp
   136f0:	a80b883a 	mov	r5,r21
   136f4:	00146a40 	call	146a4 <scalbn>
   136f8:	000d883a 	mov	r6,zero
   136fc:	01cff034 	movhi	r7,16320
   13700:	1009883a 	mov	r4,r2
   13704:	180b883a 	mov	r5,r3
   13708:	1027883a 	mov	r19,r2
   1370c:	1825883a 	mov	r18,r3
   13710:	00153d00 	call	153d0 <__muldf3>
   13714:	1009883a 	mov	r4,r2
   13718:	180b883a 	mov	r5,r3
   1371c:	00144b40 	call	144b4 <floor>
   13720:	1009883a 	mov	r4,r2
   13724:	180b883a 	mov	r5,r3
   13728:	000d883a 	mov	r6,zero
   1372c:	01d00834 	movhi	r7,16416
   13730:	00153d00 	call	153d0 <__muldf3>
   13734:	100d883a 	mov	r6,r2
   13738:	180f883a 	mov	r7,r3
   1373c:	9809883a 	mov	r4,r19
   13740:	900b883a 	mov	r5,r18
   13744:	00153700 	call	15370 <__subdf3>
   13748:	180b883a 	mov	r5,r3
   1374c:	1009883a 	mov	r4,r2
   13750:	1827883a 	mov	r19,r3
   13754:	1029883a 	mov	r20,r2
   13758:	0015a600 	call	15a60 <__fixdfsi>
   1375c:	1009883a 	mov	r4,r2
   13760:	1025883a 	mov	r18,r2
   13764:	001598c0 	call	1598c <__floatsidf>
   13768:	100d883a 	mov	r6,r2
   1376c:	a009883a 	mov	r4,r20
   13770:	980b883a 	mov	r5,r19
   13774:	180f883a 	mov	r7,r3
   13778:	00153700 	call	15370 <__subdf3>
   1377c:	d9809117 	ldw	r6,580(sp)
   13780:	1017883a 	mov	r11,r2
   13784:	1039883a 	mov	fp,r2
   13788:	182b883a 	mov	r21,r3
   1378c:	0181790e 	bge	zero,r6,13d74 <__kernel_rem_pio2+0x954>
   13790:	da008f17 	ldw	r8,572(sp)
   13794:	d9409117 	ldw	r5,580(sp)
   13798:	01800604 	movi	r6,24
   1379c:	40bfffc4 	addi	r2,r8,-1
   137a0:	1085883a 	add	r2,r2,r2
   137a4:	1085883a 	add	r2,r2,r2
   137a8:	d889883a 	add	r4,sp,r2
   137ac:	21007804 	addi	r4,r4,480
   137b0:	20800017 	ldw	r2,0(r4)
   137b4:	314dc83a 	sub	r6,r6,r5
   137b8:	d9c09117 	ldw	r7,580(sp)
   137bc:	118bd83a 	sra	r5,r2,r6
   137c0:	04c005c4 	movi	r19,23
   137c4:	99e7c83a 	sub	r19,r19,r7
   137c8:	298c983a 	sll	r6,r5,r6
   137cc:	9165883a 	add	r18,r18,r5
   137d0:	1185c83a 	sub	r2,r2,r6
   137d4:	14e7d83a 	sra	r19,r2,r19
   137d8:	20800015 	stw	r2,0(r4)
   137dc:	04c02c0e 	bge	zero,r19,13890 <__kernel_rem_pio2+0x470>
   137e0:	da008f17 	ldw	r8,572(sp)
   137e4:	94800044 	addi	r18,r18,1
   137e8:	0201880e 	bge	zero,r8,13e0c <__kernel_rem_pio2+0x9ec>
   137ec:	4215883a 	add	r10,r8,r8
   137f0:	5295883a 	add	r10,r10,r10
   137f4:	da007804 	addi	r8,sp,480
   137f8:	4295883a 	add	r10,r8,r10
   137fc:	0029883a 	mov	r20,zero
   13800:	01404034 	movhi	r5,256
   13804:	297fffc4 	addi	r5,r5,-1
   13808:	01004034 	movhi	r4,256
   1380c:	00000606 	br	13828 <__kernel_rem_pio2+0x408>
   13810:	208dc83a 	sub	r6,r4,r2
   13814:	10000226 	beq	r2,zero,13820 <__kernel_rem_pio2+0x400>
   13818:	41800015 	stw	r6,0(r8)
   1381c:	05000044 	movi	r20,1
   13820:	42000104 	addi	r8,r8,4
   13824:	42800726 	beq	r8,r10,13844 <__kernel_rem_pio2+0x424>
   13828:	40800017 	ldw	r2,0(r8)
   1382c:	a03ff826 	beq	r20,zero,13810 <__kernel_rem_pio2+0x3f0>
   13830:	2885c83a 	sub	r2,r5,r2
   13834:	40800015 	stw	r2,0(r8)
   13838:	42000104 	addi	r8,r8,4
   1383c:	05000044 	movi	r20,1
   13840:	42bff91e 	bne	r8,r10,13828 <__kernel_rem_pio2+0x408>
   13844:	d9809117 	ldw	r6,580(sp)
   13848:	01800f0e 	bge	zero,r6,13888 <__kernel_rem_pio2+0x468>
   1384c:	00800044 	movi	r2,1
   13850:	30815226 	beq	r6,r2,13d9c <__kernel_rem_pio2+0x97c>
   13854:	00800084 	movi	r2,2
   13858:	30800b1e 	bne	r6,r2,13888 <__kernel_rem_pio2+0x468>
   1385c:	da008f17 	ldw	r8,572(sp)
   13860:	01001034 	movhi	r4,64
   13864:	213fffc4 	addi	r4,r4,-1
   13868:	40bfffc4 	addi	r2,r8,-1
   1386c:	1085883a 	add	r2,r2,r2
   13870:	1085883a 	add	r2,r2,r2
   13874:	d885883a 	add	r2,sp,r2
   13878:	10807804 	addi	r2,r2,480
   1387c:	11400017 	ldw	r5,0(r2)
   13880:	2908703a 	and	r4,r5,r4
   13884:	11000015 	stw	r4,0(r2)
   13888:	00800084 	movi	r2,2
   1388c:	98806d26 	beq	r19,r2,13a44 <__kernel_rem_pio2+0x624>
   13890:	e009883a 	mov	r4,fp
   13894:	a80b883a 	mov	r5,r21
   13898:	000d883a 	mov	r6,zero
   1389c:	000f883a 	mov	r7,zero
   138a0:	00158680 	call	15868 <__eqdf2>
   138a4:	1000801e 	bne	r2,zero,13aa8 <__kernel_rem_pio2+0x688>
   138a8:	da008f17 	ldw	r8,572(sp)
   138ac:	417fffc4 	addi	r5,r8,-1
   138b0:	da009317 	ldw	r8,588(sp)
   138b4:	2a000b16 	blt	r5,r8,138e4 <__kernel_rem_pio2+0x4c4>
   138b8:	294d883a 	add	r6,r5,r5
   138bc:	d9c09617 	ldw	r7,600(sp)
   138c0:	d8c07804 	addi	r3,sp,480
   138c4:	3185883a 	add	r2,r6,r6
   138c8:	1885883a 	add	r2,r3,r2
   138cc:	0007883a 	mov	r3,zero
   138d0:	11000017 	ldw	r4,0(r2)
   138d4:	10bfff04 	addi	r2,r2,-4
   138d8:	1906b03a 	or	r3,r3,r4
   138dc:	11fffc1e 	bne	r2,r7,138d0 <__kernel_rem_pio2+0x4b0>
   138e0:	1801601e 	bne	r3,zero,13e64 <__kernel_rem_pio2+0xa44>
   138e4:	da009717 	ldw	r8,604(sp)
   138e8:	40800017 	ldw	r2,0(r8)
   138ec:	1001541e 	bne	r2,zero,13e40 <__kernel_rem_pio2+0xa20>
   138f0:	da009817 	ldw	r8,608(sp)
   138f4:	d8c07804 	addi	r3,sp,480
   138f8:	1a05883a 	add	r2,r3,r8
   138fc:	00c00044 	movi	r3,1
   13900:	10bfff04 	addi	r2,r2,-4
   13904:	11000117 	ldw	r4,4(r2)
   13908:	18c00044 	addi	r3,r3,1
   1390c:	203ffc26 	beq	r4,zero,13900 <__kernel_rem_pio2+0x4e0>
   13910:	da008f17 	ldw	r8,572(sp)
   13914:	40800044 	addi	r2,r8,1
   13918:	40d1883a 	add	r8,r8,r3
   1391c:	da008f15 	stw	r8,572(sp)
   13920:	40814d16 	blt	r8,r2,13e58 <__kernel_rem_pio2+0xa38>
   13924:	da008e17 	ldw	r8,568(sp)
   13928:	d8c09517 	ldw	r3,596(sp)
   1392c:	40ab883a 	add	r21,r8,r2
   13930:	da008f17 	ldw	r8,572(sp)
   13934:	10e9883a 	add	r20,r2,r3
   13938:	100490fa 	slli	r2,r2,3
   1393c:	401090fa 	slli	r8,r8,3
   13940:	a529883a 	add	r20,r20,r20
   13944:	a529883a 	add	r20,r20,r20
   13948:	da009415 	stw	r8,592(sp)
   1394c:	da00a717 	ldw	r8,668(sp)
   13950:	d8a5883a 	add	r18,sp,r2
   13954:	d8809417 	ldw	r2,592(sp)
   13958:	4529883a 	add	r20,r8,r20
   1395c:	a82690fa 	slli	r19,r21,3
   13960:	a1000017 	ldw	r4,0(r20)
   13964:	da000204 	addi	r8,sp,8
   13968:	4091883a 	add	r8,r8,r2
   1396c:	d8c05004 	addi	r3,sp,320
   13970:	1ce7883a 	add	r19,r3,r19
   13974:	da009015 	stw	r8,576(sp)
   13978:	dd408d15 	stw	r21,564(sp)
   1397c:	001598c0 	call	1598c <__floatsidf>
   13980:	da008e17 	ldw	r8,568(sp)
   13984:	98800015 	stw	r2,0(r19)
   13988:	98c00115 	stw	r3,4(r19)
   1398c:	40002716 	blt	r8,zero,13a2c <__kernel_rem_pio2+0x60c>
   13990:	da008d17 	ldw	r8,564(sp)
   13994:	d8805004 	addi	r2,sp,320
   13998:	002d883a 	mov	r22,zero
   1399c:	402a90fa 	slli	r21,r8,3
   139a0:	0039883a 	mov	fp,zero
   139a4:	002f883a 	mov	r23,zero
   139a8:	156b883a 	add	r21,r2,r21
   139ac:	8d91883a 	add	r8,r17,r22
   139b0:	a9800017 	ldw	r6,0(r21)
   139b4:	a9c00117 	ldw	r7,4(r21)
   139b8:	41000017 	ldw	r4,0(r8)
   139bc:	41400117 	ldw	r5,4(r8)
   139c0:	b5800204 	addi	r22,r22,8
   139c4:	ad7ffe04 	addi	r21,r21,-8
   139c8:	00153d00 	call	153d0 <__muldf3>
   139cc:	e009883a 	mov	r4,fp
   139d0:	b80b883a 	mov	r5,r23
   139d4:	100d883a 	mov	r6,r2
   139d8:	180f883a 	mov	r7,r3
   139dc:	001531c0 	call	1531c <__adddf3>
   139e0:	1039883a 	mov	fp,r2
   139e4:	182f883a 	mov	r23,r3
   139e8:	b43ff01e 	bne	r22,r16,139ac <__kernel_rem_pio2+0x58c>
   139ec:	da008d17 	ldw	r8,564(sp)
   139f0:	97000015 	stw	fp,0(r18)
   139f4:	95c00115 	stw	r23,4(r18)
   139f8:	42000044 	addi	r8,r8,1
   139fc:	da008d15 	stw	r8,564(sp)
   13a00:	da009017 	ldw	r8,576(sp)
   13a04:	94800204 	addi	r18,r18,8
   13a08:	a5000104 	addi	r20,r20,4
   13a0c:	9cc00204 	addi	r19,r19,8
   13a10:	923f0426 	beq	r18,r8,13624 <__kernel_rem_pio2+0x204>
   13a14:	a1000017 	ldw	r4,0(r20)
   13a18:	001598c0 	call	1598c <__floatsidf>
   13a1c:	da008e17 	ldw	r8,568(sp)
   13a20:	98800015 	stw	r2,0(r19)
   13a24:	98c00115 	stw	r3,4(r19)
   13a28:	403fd90e 	bge	r8,zero,13990 <__kernel_rem_pio2+0x570>
   13a2c:	0039883a 	mov	fp,zero
   13a30:	002f883a 	mov	r23,zero
   13a34:	003fed06 	br	139ec <__kernel_rem_pio2+0x5cc>
   13a38:	0005883a 	mov	r2,zero
   13a3c:	0007883a 	mov	r3,zero
   13a40:	003eaa06 	br	134ec <__kernel_rem_pio2+0xcc>
   13a44:	0009883a 	mov	r4,zero
   13a48:	014ffc34 	movhi	r5,16368
   13a4c:	580d883a 	mov	r6,r11
   13a50:	180f883a 	mov	r7,r3
   13a54:	00153700 	call	15370 <__subdf3>
   13a58:	1039883a 	mov	fp,r2
   13a5c:	182b883a 	mov	r21,r3
   13a60:	a03f8b26 	beq	r20,zero,13890 <__kernel_rem_pio2+0x470>
   13a64:	d9809117 	ldw	r6,580(sp)
   13a68:	0009883a 	mov	r4,zero
   13a6c:	014ffc34 	movhi	r5,16368
   13a70:	00146a40 	call	146a4 <scalbn>
   13a74:	e009883a 	mov	r4,fp
   13a78:	a80b883a 	mov	r5,r21
   13a7c:	100d883a 	mov	r6,r2
   13a80:	180f883a 	mov	r7,r3
   13a84:	00153700 	call	15370 <__subdf3>
   13a88:	1039883a 	mov	fp,r2
   13a8c:	182b883a 	mov	r21,r3
   13a90:	e009883a 	mov	r4,fp
   13a94:	a80b883a 	mov	r5,r21
   13a98:	000d883a 	mov	r6,zero
   13a9c:	000f883a 	mov	r7,zero
   13aa0:	00158680 	call	15868 <__eqdf2>
   13aa4:	103f8026 	beq	r2,zero,138a8 <__kernel_rem_pio2+0x488>
   13aa8:	da009117 	ldw	r8,580(sp)
   13aac:	e009883a 	mov	r4,fp
   13ab0:	a80b883a 	mov	r5,r21
   13ab4:	020dc83a 	sub	r6,zero,r8
   13ab8:	dc808e15 	stw	r18,568(sp)
   13abc:	dcc08d15 	stw	r19,564(sp)
   13ac0:	00146a40 	call	146a4 <scalbn>
   13ac4:	1009883a 	mov	r4,r2
   13ac8:	180b883a 	mov	r5,r3
   13acc:	000d883a 	mov	r6,zero
   13ad0:	01d05c34 	movhi	r7,16752
   13ad4:	1021883a 	mov	r16,r2
   13ad8:	1823883a 	mov	r17,r3
   13adc:	00159280 	call	15928 <__gedf2>
   13ae0:	10019f16 	blt	r2,zero,14160 <__kernel_rem_pio2+0xd40>
   13ae4:	000d883a 	mov	r6,zero
   13ae8:	01cf9c34 	movhi	r7,15984
   13aec:	8009883a 	mov	r4,r16
   13af0:	880b883a 	mov	r5,r17
   13af4:	00153d00 	call	153d0 <__muldf3>
   13af8:	180b883a 	mov	r5,r3
   13afc:	1009883a 	mov	r4,r2
   13b00:	0015a600 	call	15a60 <__fixdfsi>
   13b04:	1009883a 	mov	r4,r2
   13b08:	001598c0 	call	1598c <__floatsidf>
   13b0c:	da008f17 	ldw	r8,572(sp)
   13b10:	102b883a 	mov	r21,r2
   13b14:	a809883a 	mov	r4,r21
   13b18:	4205883a 	add	r2,r8,r8
   13b1c:	1085883a 	add	r2,r2,r2
   13b20:	180b883a 	mov	r5,r3
   13b24:	000d883a 	mov	r6,zero
   13b28:	01d05c34 	movhi	r7,16752
   13b2c:	d8b9883a 	add	fp,sp,r2
   13b30:	1829883a 	mov	r20,r3
   13b34:	00153d00 	call	153d0 <__muldf3>
   13b38:	100d883a 	mov	r6,r2
   13b3c:	8009883a 	mov	r4,r16
   13b40:	180f883a 	mov	r7,r3
   13b44:	880b883a 	mov	r5,r17
   13b48:	00153700 	call	15370 <__subdf3>
   13b4c:	da008f17 	ldw	r8,572(sp)
   13b50:	180b883a 	mov	r5,r3
   13b54:	1009883a 	mov	r4,r2
   13b58:	42000044 	addi	r8,r8,1
   13b5c:	da008f15 	stw	r8,572(sp)
   13b60:	0015a600 	call	15a60 <__fixdfsi>
   13b64:	da008f17 	ldw	r8,572(sp)
   13b68:	e7007804 	addi	fp,fp,480
   13b6c:	a809883a 	mov	r4,r21
   13b70:	4207883a 	add	r3,r8,r8
   13b74:	18c7883a 	add	r3,r3,r3
   13b78:	a00b883a 	mov	r5,r20
   13b7c:	e0800015 	stw	r2,0(fp)
   13b80:	d8e1883a 	add	r16,sp,r3
   13b84:	0015a600 	call	15a60 <__fixdfsi>
   13b88:	d9809117 	ldw	r6,580(sp)
   13b8c:	84007804 	addi	r16,r16,480
   13b90:	80800015 	stw	r2,0(r16)
   13b94:	31800604 	addi	r6,r6,24
   13b98:	d9809115 	stw	r6,580(sp)
   13b9c:	d9809117 	ldw	r6,580(sp)
   13ba0:	0009883a 	mov	r4,zero
   13ba4:	014ffc34 	movhi	r5,16368
   13ba8:	00146a40 	call	146a4 <scalbn>
   13bac:	da008f17 	ldw	r8,572(sp)
   13bb0:	1021883a 	mov	r16,r2
   13bb4:	1823883a 	mov	r17,r3
   13bb8:	40004616 	blt	r8,zero,13cd4 <__kernel_rem_pio2+0x8b4>
   13bbc:	401090fa 	slli	r8,r8,3
   13bc0:	d8807804 	addi	r2,sp,480
   13bc4:	da009415 	stw	r8,592(sp)
   13bc8:	da008f17 	ldw	r8,572(sp)
   13bcc:	422b883a 	add	r21,r8,r8
   13bd0:	da009417 	ldw	r8,592(sp)
   13bd4:	ad6b883a 	add	r21,r21,r21
   13bd8:	156b883a 	add	r21,r2,r21
   13bdc:	da29883a 	add	r20,sp,r8
   13be0:	a9000017 	ldw	r4,0(r21)
   13be4:	a53ffe04 	addi	r20,r20,-8
   13be8:	ad7fff04 	addi	r21,r21,-4
   13bec:	001598c0 	call	1598c <__floatsidf>
   13bf0:	800d883a 	mov	r6,r16
   13bf4:	880f883a 	mov	r7,r17
   13bf8:	1009883a 	mov	r4,r2
   13bfc:	180b883a 	mov	r5,r3
   13c00:	00153d00 	call	153d0 <__muldf3>
   13c04:	8009883a 	mov	r4,r16
   13c08:	880b883a 	mov	r5,r17
   13c0c:	000d883a 	mov	r6,zero
   13c10:	01cf9c34 	movhi	r7,15984
   13c14:	a0800215 	stw	r2,8(r20)
   13c18:	a0c00315 	stw	r3,12(r20)
   13c1c:	00153d00 	call	153d0 <__muldf3>
   13c20:	da008c17 	ldw	r8,560(sp)
   13c24:	1021883a 	mov	r16,r2
   13c28:	1823883a 	mov	r17,r3
   13c2c:	aa3fec1e 	bne	r21,r8,13be0 <__kernel_rem_pio2+0x7c0>
   13c30:	da009417 	ldw	r8,592(sp)
   13c34:	dd409317 	ldw	r21,588(sp)
   13c38:	0021883a 	mov	r16,zero
   13c3c:	da23883a 	add	r17,sp,r8
   13c40:	da008f17 	ldw	r8,572(sp)
   13c44:	050000b4 	movhi	r20,2
   13c48:	a5239a04 	addi	r20,r20,-29080
   13c4c:	45800044 	addi	r22,r8,1
   13c50:	a8007016 	blt	r21,zero,13e14 <__kernel_rem_pio2+0x9f4>
   13c54:	80006f16 	blt	r16,zero,13e14 <__kernel_rem_pio2+0x9f4>
   13c58:	0025883a 	mov	r18,zero
   13c5c:	0039883a 	mov	fp,zero
   13c60:	002f883a 	mov	r23,zero
   13c64:	0027883a 	mov	r19,zero
   13c68:	00000106 	br	13c70 <__kernel_rem_pio2+0x850>
   13c6c:	84c01116 	blt	r16,r19,13cb4 <__kernel_rem_pio2+0x894>
   13c70:	a48d883a 	add	r6,r20,r18
   13c74:	8c8f883a 	add	r7,r17,r18
   13c78:	31000017 	ldw	r4,0(r6)
   13c7c:	31400117 	ldw	r5,4(r6)
   13c80:	39800017 	ldw	r6,0(r7)
   13c84:	39c00117 	ldw	r7,4(r7)
   13c88:	9cc00044 	addi	r19,r19,1
   13c8c:	94800204 	addi	r18,r18,8
   13c90:	00153d00 	call	153d0 <__muldf3>
   13c94:	e009883a 	mov	r4,fp
   13c98:	b80b883a 	mov	r5,r23
   13c9c:	100d883a 	mov	r6,r2
   13ca0:	180f883a 	mov	r7,r3
   13ca4:	001531c0 	call	1531c <__adddf3>
   13ca8:	1039883a 	mov	fp,r2
   13cac:	182f883a 	mov	r23,r3
   13cb0:	acffee0e 	bge	r21,r19,13c6c <__kernel_rem_pio2+0x84c>
   13cb4:	800490fa 	slli	r2,r16,3
   13cb8:	84000044 	addi	r16,r16,1
   13cbc:	8c7ffe04 	addi	r17,r17,-8
   13cc0:	d885883a 	add	r2,sp,r2
   13cc4:	10802804 	addi	r2,r2,160
   13cc8:	17000015 	stw	fp,0(r2)
   13ccc:	15c00115 	stw	r23,4(r2)
   13cd0:	85bfdf1e 	bne	r16,r22,13c50 <__kernel_rem_pio2+0x830>
   13cd4:	da00a617 	ldw	r8,664(sp)
   13cd8:	00800084 	movi	r2,2
   13cdc:	1200a816 	blt	r2,r8,13f80 <__kernel_rem_pio2+0xb60>
   13ce0:	02007916 	blt	zero,r8,13ec8 <__kernel_rem_pio2+0xaa8>
   13ce4:	4000151e 	bne	r8,zero,13d3c <__kernel_rem_pio2+0x91c>
   13ce8:	da008f17 	ldw	r8,572(sp)
   13cec:	40013216 	blt	r8,zero,141b8 <__kernel_rem_pio2+0xd98>
   13cf0:	402090fa 	slli	r16,r8,3
   13cf4:	d8802804 	addi	r2,sp,160
   13cf8:	dc402604 	addi	r17,sp,152
   13cfc:	1421883a 	add	r16,r2,r16
   13d00:	0007883a 	mov	r3,zero
   13d04:	0005883a 	mov	r2,zero
   13d08:	81800017 	ldw	r6,0(r16)
   13d0c:	81c00117 	ldw	r7,4(r16)
   13d10:	1009883a 	mov	r4,r2
   13d14:	843ffe04 	addi	r16,r16,-8
   13d18:	180b883a 	mov	r5,r3
   13d1c:	001531c0 	call	1531c <__adddf3>
   13d20:	847ff91e 	bne	r16,r17,13d08 <__kernel_rem_pio2+0x8e8>
   13d24:	da008d17 	ldw	r8,564(sp)
   13d28:	40000126 	beq	r8,zero,13d30 <__kernel_rem_pio2+0x910>
   13d2c:	18e0003c 	xorhi	r3,r3,32768
   13d30:	d9409217 	ldw	r5,584(sp)
   13d34:	28800015 	stw	r2,0(r5)
   13d38:	28c00115 	stw	r3,4(r5)
   13d3c:	d8c08e17 	ldw	r3,568(sp)
   13d40:	188001cc 	andi	r2,r3,7
   13d44:	dfc0a517 	ldw	ra,660(sp)
   13d48:	df00a417 	ldw	fp,656(sp)
   13d4c:	ddc0a317 	ldw	r23,652(sp)
   13d50:	dd80a217 	ldw	r22,648(sp)
   13d54:	dd40a117 	ldw	r21,644(sp)
   13d58:	dd00a017 	ldw	r20,640(sp)
   13d5c:	dcc09f17 	ldw	r19,636(sp)
   13d60:	dc809e17 	ldw	r18,632(sp)
   13d64:	dc409d17 	ldw	r17,628(sp)
   13d68:	dc009c17 	ldw	r16,624(sp)
   13d6c:	dec0a604 	addi	sp,sp,664
   13d70:	f800283a 	ret
   13d74:	d9809117 	ldw	r6,580(sp)
   13d78:	3000141e 	bne	r6,zero,13dcc <__kernel_rem_pio2+0x9ac>
   13d7c:	da008f17 	ldw	r8,572(sp)
   13d80:	40bfffc4 	addi	r2,r8,-1
   13d84:	1085883a 	add	r2,r2,r2
   13d88:	1085883a 	add	r2,r2,r2
   13d8c:	d885883a 	add	r2,sp,r2
   13d90:	14c07817 	ldw	r19,480(r2)
   13d94:	9827d5fa 	srai	r19,r19,23
   13d98:	003e9006 	br	137dc <__kernel_rem_pio2+0x3bc>
   13d9c:	da008f17 	ldw	r8,572(sp)
   13da0:	01002034 	movhi	r4,128
   13da4:	213fffc4 	addi	r4,r4,-1
   13da8:	40bfffc4 	addi	r2,r8,-1
   13dac:	1085883a 	add	r2,r2,r2
   13db0:	1085883a 	add	r2,r2,r2
   13db4:	d885883a 	add	r2,sp,r2
   13db8:	10807804 	addi	r2,r2,480
   13dbc:	11400017 	ldw	r5,0(r2)
   13dc0:	2908703a 	and	r4,r5,r4
   13dc4:	11000015 	stw	r4,0(r2)
   13dc8:	003eaf06 	br	13888 <__kernel_rem_pio2+0x468>
   13dcc:	180b883a 	mov	r5,r3
   13dd0:	1009883a 	mov	r4,r2
   13dd4:	000d883a 	mov	r6,zero
   13dd8:	01cff834 	movhi	r7,16352
   13ddc:	d8c09a15 	stw	r3,616(sp)
   13de0:	d8809915 	stw	r2,612(sp)
   13de4:	00159280 	call	15928 <__gedf2>
   13de8:	d8c09a17 	ldw	r3,616(sp)
   13dec:	dac09917 	ldw	r11,612(sp)
   13df0:	1000020e 	bge	r2,zero,13dfc <__kernel_rem_pio2+0x9dc>
   13df4:	0027883a 	mov	r19,zero
   13df8:	003ea506 	br	13890 <__kernel_rem_pio2+0x470>
   13dfc:	da008f17 	ldw	r8,572(sp)
   13e00:	04c00084 	movi	r19,2
   13e04:	94800044 	addi	r18,r18,1
   13e08:	023e7816 	blt	zero,r8,137ec <__kernel_rem_pio2+0x3cc>
   13e0c:	0029883a 	mov	r20,zero
   13e10:	003e8c06 	br	13844 <__kernel_rem_pio2+0x424>
   13e14:	800490fa 	slli	r2,r16,3
   13e18:	0039883a 	mov	fp,zero
   13e1c:	002f883a 	mov	r23,zero
   13e20:	d885883a 	add	r2,sp,r2
   13e24:	10802804 	addi	r2,r2,160
   13e28:	84000044 	addi	r16,r16,1
   13e2c:	17000015 	stw	fp,0(r2)
   13e30:	15c00115 	stw	r23,4(r2)
   13e34:	8c7ffe04 	addi	r17,r17,-8
   13e38:	85bf851e 	bne	r16,r22,13c50 <__kernel_rem_pio2+0x830>
   13e3c:	003fa506 	br	13cd4 <__kernel_rem_pio2+0x8b4>
   13e40:	da008f17 	ldw	r8,572(sp)
   13e44:	00c00044 	movi	r3,1
   13e48:	40800044 	addi	r2,r8,1
   13e4c:	40d1883a 	add	r8,r8,r3
   13e50:	da008f15 	stw	r8,572(sp)
   13e54:	40beb30e 	bge	r8,r2,13924 <__kernel_rem_pio2+0x504>
   13e58:	401090fa 	slli	r8,r8,3
   13e5c:	da009415 	stw	r8,592(sp)
   13e60:	003df006 	br	13624 <__kernel_rem_pio2+0x204>
   13e64:	318d883a 	add	r6,r6,r6
   13e68:	d985883a 	add	r2,sp,r6
   13e6c:	d9809117 	ldw	r6,580(sp)
   13e70:	10807817 	ldw	r2,480(r2)
   13e74:	dc808e15 	stw	r18,568(sp)
   13e78:	31bffa04 	addi	r6,r6,-24
   13e7c:	dcc08d15 	stw	r19,564(sp)
   13e80:	d9809115 	stw	r6,580(sp)
   13e84:	1000ca1e 	bne	r2,zero,141b0 <__kernel_rem_pio2+0xd90>
   13e88:	28bfffc4 	addi	r2,r5,-1
   13e8c:	1085883a 	add	r2,r2,r2
   13e90:	1085883a 	add	r2,r2,r2
   13e94:	d9c07804 	addi	r7,sp,480
   13e98:	3885883a 	add	r2,r7,r2
   13e9c:	d9408f15 	stw	r5,572(sp)
   13ea0:	2807883a 	mov	r3,r5
   13ea4:	3009883a 	mov	r4,r6
   13ea8:	10bfff04 	addi	r2,r2,-4
   13eac:	11400117 	ldw	r5,4(r2)
   13eb0:	18ffffc4 	addi	r3,r3,-1
   13eb4:	213ffa04 	addi	r4,r4,-24
   13eb8:	283ffb26 	beq	r5,zero,13ea8 <__kernel_rem_pio2+0xa88>
   13ebc:	d8c08f15 	stw	r3,572(sp)
   13ec0:	d9009115 	stw	r4,580(sp)
   13ec4:	003f3506 	br	13b9c <__kernel_rem_pio2+0x77c>
   13ec8:	da008f17 	ldw	r8,572(sp)
   13ecc:	4000b516 	blt	r8,zero,141a4 <__kernel_rem_pio2+0xd84>
   13ed0:	da008f17 	ldw	r8,572(sp)
   13ed4:	d8802804 	addi	r2,sp,160
   13ed8:	dc402604 	addi	r17,sp,152
   13edc:	402090fa 	slli	r16,r8,3
   13ee0:	0007883a 	mov	r3,zero
   13ee4:	1421883a 	add	r16,r2,r16
   13ee8:	0005883a 	mov	r2,zero
   13eec:	81800017 	ldw	r6,0(r16)
   13ef0:	81c00117 	ldw	r7,4(r16)
   13ef4:	1009883a 	mov	r4,r2
   13ef8:	843ffe04 	addi	r16,r16,-8
   13efc:	180b883a 	mov	r5,r3
   13f00:	001531c0 	call	1531c <__adddf3>
   13f04:	847ff91e 	bne	r16,r17,13eec <__kernel_rem_pio2+0xacc>
   13f08:	da008d17 	ldw	r8,564(sp)
   13f0c:	40009026 	beq	r8,zero,14150 <__kernel_rem_pio2+0xd30>
   13f10:	19a0003c 	xorhi	r6,r3,32768
   13f14:	d9c09217 	ldw	r7,584(sp)
   13f18:	d9002817 	ldw	r4,160(sp)
   13f1c:	d9402917 	ldw	r5,164(sp)
   13f20:	39800115 	stw	r6,4(r7)
   13f24:	38800015 	stw	r2,0(r7)
   13f28:	100d883a 	mov	r6,r2
   13f2c:	180f883a 	mov	r7,r3
   13f30:	00153700 	call	15370 <__subdf3>
   13f34:	da008f17 	ldw	r8,572(sp)
   13f38:	02000a0e 	bge	zero,r8,13f64 <__kernel_rem_pio2+0xb44>
   13f3c:	402290fa 	slli	r17,r8,3
   13f40:	dc002a04 	addi	r16,sp,168
   13f44:	8463883a 	add	r17,r16,r17
   13f48:	81800017 	ldw	r6,0(r16)
   13f4c:	81c00117 	ldw	r7,4(r16)
   13f50:	1009883a 	mov	r4,r2
   13f54:	84000204 	addi	r16,r16,8
   13f58:	180b883a 	mov	r5,r3
   13f5c:	001531c0 	call	1531c <__adddf3>
   13f60:	847ff91e 	bne	r16,r17,13f48 <__kernel_rem_pio2+0xb28>
   13f64:	da008d17 	ldw	r8,564(sp)
   13f68:	40000126 	beq	r8,zero,13f70 <__kernel_rem_pio2+0xb50>
   13f6c:	18e0003c 	xorhi	r3,r3,32768
   13f70:	d9409217 	ldw	r5,584(sp)
   13f74:	28800215 	stw	r2,8(r5)
   13f78:	28c00315 	stw	r3,12(r5)
   13f7c:	003f6f06 	br	13d3c <__kernel_rem_pio2+0x91c>
   13f80:	da00a617 	ldw	r8,664(sp)
   13f84:	008000c4 	movi	r2,3
   13f88:	40bf6c1e 	bne	r8,r2,13d3c <__kernel_rem_pio2+0x91c>
   13f8c:	da008f17 	ldw	r8,572(sp)
   13f90:	0200810e 	bge	zero,r8,14198 <__kernel_rem_pio2+0xd78>
   13f94:	da008f17 	ldw	r8,572(sp)
   13f98:	dd802804 	addi	r22,sp,160
   13f9c:	db402604 	addi	r13,sp,152
   13fa0:	443fffc4 	addi	r16,r8,-1
   13fa4:	402290fa 	slli	r17,r8,3
   13fa8:	802090fa 	slli	r16,r16,3
   13fac:	b463883a 	add	r17,r22,r17
   13fb0:	b421883a 	add	r16,r22,r16
   13fb4:	882b883a 	mov	r21,r17
   13fb8:	8029883a 	mov	r20,r16
   13fbc:	8811883a 	mov	r8,r17
   13fc0:	8013883a 	mov	r9,r16
   13fc4:	a4400017 	ldw	r17,0(r20)
   13fc8:	a4000117 	ldw	r16,4(r20)
   13fcc:	af000017 	ldw	fp,0(r21)
   13fd0:	adc00117 	ldw	r23,4(r21)
   13fd4:	8809883a 	mov	r4,r17
   13fd8:	800b883a 	mov	r5,r16
   13fdc:	e00d883a 	mov	r6,fp
   13fe0:	b80f883a 	mov	r7,r23
   13fe4:	da009b15 	stw	r8,620(sp)
   13fe8:	da409a15 	stw	r9,616(sp)
   13fec:	db409915 	stw	r13,612(sp)
   13ff0:	001531c0 	call	1531c <__adddf3>
   13ff4:	8809883a 	mov	r4,r17
   13ff8:	800b883a 	mov	r5,r16
   13ffc:	100d883a 	mov	r6,r2
   14000:	180f883a 	mov	r7,r3
   14004:	1027883a 	mov	r19,r2
   14008:	1825883a 	mov	r18,r3
   1400c:	00153700 	call	15370 <__subdf3>
   14010:	e009883a 	mov	r4,fp
   14014:	b80b883a 	mov	r5,r23
   14018:	100d883a 	mov	r6,r2
   1401c:	180f883a 	mov	r7,r3
   14020:	001531c0 	call	1531c <__adddf3>
   14024:	db409917 	ldw	r13,612(sp)
   14028:	a8800015 	stw	r2,0(r21)
   1402c:	a8c00115 	stw	r3,4(r21)
   14030:	a4c00015 	stw	r19,0(r20)
   14034:	a4800115 	stw	r18,4(r20)
   14038:	a53ffe04 	addi	r20,r20,-8
   1403c:	ad7ffe04 	addi	r21,r21,-8
   14040:	da009b17 	ldw	r8,620(sp)
   14044:	da409a17 	ldw	r9,616(sp)
   14048:	a37fde1e 	bne	r20,r13,13fc4 <__kernel_rem_pio2+0xba4>
   1404c:	4023883a 	mov	r17,r8
   14050:	da008f17 	ldw	r8,572(sp)
   14054:	00800044 	movi	r2,1
   14058:	4821883a 	mov	r16,r9
   1405c:	12004e0e 	bge	r2,r8,14198 <__kernel_rem_pio2+0xd78>
   14060:	8829883a 	mov	r20,r17
   14064:	8811883a 	mov	r8,r17
   14068:	84400017 	ldw	r17,0(r16)
   1406c:	87000117 	ldw	fp,4(r16)
   14070:	a5c00017 	ldw	r23,0(r20)
   14074:	a5400117 	ldw	r21,4(r20)
   14078:	8809883a 	mov	r4,r17
   1407c:	e00b883a 	mov	r5,fp
   14080:	b80d883a 	mov	r6,r23
   14084:	a80f883a 	mov	r7,r21
   14088:	da009b15 	stw	r8,620(sp)
   1408c:	001531c0 	call	1531c <__adddf3>
   14090:	8809883a 	mov	r4,r17
   14094:	e00b883a 	mov	r5,fp
   14098:	100d883a 	mov	r6,r2
   1409c:	180f883a 	mov	r7,r3
   140a0:	1027883a 	mov	r19,r2
   140a4:	1825883a 	mov	r18,r3
   140a8:	00153700 	call	15370 <__subdf3>
   140ac:	b809883a 	mov	r4,r23
   140b0:	a80b883a 	mov	r5,r21
   140b4:	100d883a 	mov	r6,r2
   140b8:	180f883a 	mov	r7,r3
   140bc:	001531c0 	call	1531c <__adddf3>
   140c0:	a0800015 	stw	r2,0(r20)
   140c4:	a0c00115 	stw	r3,4(r20)
   140c8:	84c00015 	stw	r19,0(r16)
   140cc:	84800115 	stw	r18,4(r16)
   140d0:	843ffe04 	addi	r16,r16,-8
   140d4:	a53ffe04 	addi	r20,r20,-8
   140d8:	da009b17 	ldw	r8,620(sp)
   140dc:	b43fe21e 	bne	r22,r16,14068 <__kernel_rem_pio2+0xc48>
   140e0:	4023883a 	mov	r17,r8
   140e4:	b5800204 	addi	r22,r22,8
   140e8:	0005883a 	mov	r2,zero
   140ec:	0007883a 	mov	r3,zero
   140f0:	89800017 	ldw	r6,0(r17)
   140f4:	89c00117 	ldw	r7,4(r17)
   140f8:	1009883a 	mov	r4,r2
   140fc:	8c7ffe04 	addi	r17,r17,-8
   14100:	180b883a 	mov	r5,r3
   14104:	001531c0 	call	1531c <__adddf3>
   14108:	8dbff91e 	bne	r17,r22,140f0 <__kernel_rem_pio2+0xcd0>
   1410c:	da008d17 	ldw	r8,564(sp)
   14110:	40001d26 	beq	r8,zero,14188 <__kernel_rem_pio2+0xd68>
   14114:	d9802917 	ldw	r6,164(sp)
   14118:	d9002b17 	ldw	r4,172(sp)
   1411c:	d9402a17 	ldw	r5,168(sp)
   14120:	31a0003c 	xorhi	r6,r6,32768
   14124:	2120003c 	xorhi	r4,r4,32768
   14128:	18e0003c 	xorhi	r3,r3,32768
   1412c:	d9c02817 	ldw	r7,160(sp)
   14130:	da009217 	ldw	r8,584(sp)
   14134:	41c00015 	stw	r7,0(r8)
   14138:	41800115 	stw	r6,4(r8)
   1413c:	41400215 	stw	r5,8(r8)
   14140:	41000315 	stw	r4,12(r8)
   14144:	40800415 	stw	r2,16(r8)
   14148:	40c00515 	stw	r3,20(r8)
   1414c:	003efb06 	br	13d3c <__kernel_rem_pio2+0x91c>
   14150:	180d883a 	mov	r6,r3
   14154:	003f6f06 	br	13f14 <__kernel_rem_pio2+0xaf4>
   14158:	d8009515 	stw	zero,596(sp)
   1415c:	003cce06 	br	13498 <__kernel_rem_pio2+0x78>
   14160:	da008f17 	ldw	r8,572(sp)
   14164:	8009883a 	mov	r4,r16
   14168:	880b883a 	mov	r5,r17
   1416c:	4205883a 	add	r2,r8,r8
   14170:	1085883a 	add	r2,r2,r2
   14174:	d885883a 	add	r2,sp,r2
   14178:	14007804 	addi	r16,r2,480
   1417c:	0015a600 	call	15a60 <__fixdfsi>
   14180:	80800015 	stw	r2,0(r16)
   14184:	003e8506 	br	13b9c <__kernel_rem_pio2+0x77c>
   14188:	d9802917 	ldw	r6,164(sp)
   1418c:	d9402a17 	ldw	r5,168(sp)
   14190:	d9002b17 	ldw	r4,172(sp)
   14194:	003fe506 	br	1412c <__kernel_rem_pio2+0xd0c>
   14198:	0005883a 	mov	r2,zero
   1419c:	0007883a 	mov	r3,zero
   141a0:	003fda06 	br	1410c <__kernel_rem_pio2+0xcec>
   141a4:	0005883a 	mov	r2,zero
   141a8:	0007883a 	mov	r3,zero
   141ac:	003f5606 	br	13f08 <__kernel_rem_pio2+0xae8>
   141b0:	d9408f15 	stw	r5,572(sp)
   141b4:	003e7906 	br	13b9c <__kernel_rem_pio2+0x77c>
   141b8:	0005883a 	mov	r2,zero
   141bc:	0007883a 	mov	r3,zero
   141c0:	003ed806 	br	13d24 <__kernel_rem_pio2+0x904>
   141c4:	802090fa 	slli	r16,r16,3
   141c8:	003d0106 	br	135d0 <__kernel_rem_pio2+0x1b0>

000141cc <__kernel_sin>:
   141cc:	defff404 	addi	sp,sp,-48
   141d0:	00a00034 	movhi	r2,32768
   141d4:	10bfffc4 	addi	r2,r2,-1
   141d8:	ddc00915 	stw	r23,36(sp)
   141dc:	dd800815 	stw	r22,32(sp)
   141e0:	dc400315 	stw	r17,12(sp)
   141e4:	dc000215 	stw	r16,8(sp)
   141e8:	dfc00b15 	stw	ra,44(sp)
   141ec:	df000a15 	stw	fp,40(sp)
   141f0:	dd400715 	stw	r21,28(sp)
   141f4:	dd000615 	stw	r20,24(sp)
   141f8:	dcc00515 	stw	r19,20(sp)
   141fc:	dc800415 	stw	r18,16(sp)
   14200:	2884703a 	and	r2,r5,r2
   14204:	00cf9034 	movhi	r3,15936
   14208:	18ffffc4 	addi	r3,r3,-1
   1420c:	2821883a 	mov	r16,r5
   14210:	2023883a 	mov	r17,r4
   14214:	302f883a 	mov	r23,r6
   14218:	382d883a 	mov	r22,r7
   1421c:	18800216 	blt	r3,r2,14228 <__kernel_sin+0x5c>
   14220:	0015a600 	call	15a60 <__fixdfsi>
   14224:	10007726 	beq	r2,zero,14404 <__kernel_sin+0x238>
   14228:	8809883a 	mov	r4,r17
   1422c:	800b883a 	mov	r5,r16
   14230:	880d883a 	mov	r6,r17
   14234:	800f883a 	mov	r7,r16
   14238:	00153d00 	call	153d0 <__muldf3>
   1423c:	1009883a 	mov	r4,r2
   14240:	180b883a 	mov	r5,r3
   14244:	880d883a 	mov	r6,r17
   14248:	800f883a 	mov	r7,r16
   1424c:	1027883a 	mov	r19,r2
   14250:	1825883a 	mov	r18,r3
   14254:	00153d00 	call	153d0 <__muldf3>
   14258:	9809883a 	mov	r4,r19
   1425c:	900b883a 	mov	r5,r18
   14260:	0196b434 	movhi	r6,23248
   14264:	31b55f04 	addi	r6,r6,-10884
   14268:	01cf79b4 	movhi	r7,15846
   1426c:	39f64e84 	addi	r7,r7,-9926
   14270:	102b883a 	mov	r21,r2
   14274:	1829883a 	mov	r20,r3
   14278:	00153d00 	call	153d0 <__muldf3>
   1427c:	1009883a 	mov	r4,r2
   14280:	180b883a 	mov	r5,r3
   14284:	01a28b34 	movhi	r6,35372
   14288:	31a73ac4 	addi	r6,r6,-25365
   1428c:	01cf96f4 	movhi	r7,15963
   14290:	39f97984 	addi	r7,r7,-6682
   14294:	00153700 	call	15370 <__subdf3>
   14298:	1009883a 	mov	r4,r2
   1429c:	180b883a 	mov	r5,r3
   142a0:	980d883a 	mov	r6,r19
   142a4:	900f883a 	mov	r7,r18
   142a8:	00153d00 	call	153d0 <__muldf3>
   142ac:	1009883a 	mov	r4,r2
   142b0:	180b883a 	mov	r5,r3
   142b4:	0195ecb4 	movhi	r6,22450
   142b8:	31bf9f44 	addi	r6,r6,-387
   142bc:	01cfb1f4 	movhi	r7,16071
   142c0:	39c778c4 	addi	r7,r7,7651
   142c4:	001531c0 	call	1531c <__adddf3>
   142c8:	1009883a 	mov	r4,r2
   142cc:	180b883a 	mov	r5,r3
   142d0:	980d883a 	mov	r6,r19
   142d4:	900f883a 	mov	r7,r18
   142d8:	00153d00 	call	153d0 <__muldf3>
   142dc:	1009883a 	mov	r4,r2
   142e0:	180b883a 	mov	r5,r3
   142e4:	01867074 	movhi	r6,6593
   142e8:	31987544 	addi	r6,r6,25045
   142ec:	01cfcab4 	movhi	r7,16170
   142f0:	39c06804 	addi	r7,r7,416
   142f4:	00153700 	call	15370 <__subdf3>
   142f8:	1009883a 	mov	r4,r2
   142fc:	180b883a 	mov	r5,r3
   14300:	980d883a 	mov	r6,r19
   14304:	900f883a 	mov	r7,r18
   14308:	00153d00 	call	153d0 <__muldf3>
   1430c:	1009883a 	mov	r4,r2
   14310:	180b883a 	mov	r5,r3
   14314:	01844474 	movhi	r6,4369
   14318:	31be2984 	addi	r6,r6,-1882
   1431c:	01cfe074 	movhi	r7,16257
   14320:	39c44444 	addi	r7,r7,4369
   14324:	001531c0 	call	1531c <__adddf3>
   14328:	d9000c17 	ldw	r4,48(sp)
   1432c:	1839883a 	mov	fp,r3
   14330:	20004226 	beq	r4,zero,1443c <__kernel_sin+0x270>
   14334:	b809883a 	mov	r4,r23
   14338:	b00b883a 	mov	r5,r22
   1433c:	000d883a 	mov	r6,zero
   14340:	01cff834 	movhi	r7,16352
   14344:	d8800015 	stw	r2,0(sp)
   14348:	00153d00 	call	153d0 <__muldf3>
   1434c:	da000017 	ldw	r8,0(sp)
   14350:	a809883a 	mov	r4,r21
   14354:	a00b883a 	mov	r5,r20
   14358:	400d883a 	mov	r6,r8
   1435c:	e00f883a 	mov	r7,fp
   14360:	d8c00115 	stw	r3,4(sp)
   14364:	d8800015 	stw	r2,0(sp)
   14368:	00153d00 	call	153d0 <__muldf3>
   1436c:	da800017 	ldw	r10,0(sp)
   14370:	da400117 	ldw	r9,4(sp)
   14374:	100d883a 	mov	r6,r2
   14378:	5009883a 	mov	r4,r10
   1437c:	480b883a 	mov	r5,r9
   14380:	180f883a 	mov	r7,r3
   14384:	00153700 	call	15370 <__subdf3>
   14388:	980d883a 	mov	r6,r19
   1438c:	900f883a 	mov	r7,r18
   14390:	1009883a 	mov	r4,r2
   14394:	180b883a 	mov	r5,r3
   14398:	00153d00 	call	153d0 <__muldf3>
   1439c:	1009883a 	mov	r4,r2
   143a0:	180b883a 	mov	r5,r3
   143a4:	b80d883a 	mov	r6,r23
   143a8:	b00f883a 	mov	r7,r22
   143ac:	00153700 	call	15370 <__subdf3>
   143b0:	a809883a 	mov	r4,r21
   143b4:	a00b883a 	mov	r5,r20
   143b8:	01955574 	movhi	r6,21845
   143bc:	31955244 	addi	r6,r6,21833
   143c0:	01cff174 	movhi	r7,16325
   143c4:	39d55544 	addi	r7,r7,21845
   143c8:	1027883a 	mov	r19,r2
   143cc:	1825883a 	mov	r18,r3
   143d0:	00153d00 	call	153d0 <__muldf3>
   143d4:	9809883a 	mov	r4,r19
   143d8:	900b883a 	mov	r5,r18
   143dc:	100d883a 	mov	r6,r2
   143e0:	180f883a 	mov	r7,r3
   143e4:	001531c0 	call	1531c <__adddf3>
   143e8:	8809883a 	mov	r4,r17
   143ec:	800b883a 	mov	r5,r16
   143f0:	100d883a 	mov	r6,r2
   143f4:	180f883a 	mov	r7,r3
   143f8:	00153700 	call	15370 <__subdf3>
   143fc:	1023883a 	mov	r17,r2
   14400:	1821883a 	mov	r16,r3
   14404:	8805883a 	mov	r2,r17
   14408:	8007883a 	mov	r3,r16
   1440c:	dfc00b17 	ldw	ra,44(sp)
   14410:	df000a17 	ldw	fp,40(sp)
   14414:	ddc00917 	ldw	r23,36(sp)
   14418:	dd800817 	ldw	r22,32(sp)
   1441c:	dd400717 	ldw	r21,28(sp)
   14420:	dd000617 	ldw	r20,24(sp)
   14424:	dcc00517 	ldw	r19,20(sp)
   14428:	dc800417 	ldw	r18,16(sp)
   1442c:	dc400317 	ldw	r17,12(sp)
   14430:	dc000217 	ldw	r16,8(sp)
   14434:	dec00c04 	addi	sp,sp,48
   14438:	f800283a 	ret
   1443c:	100d883a 	mov	r6,r2
   14440:	180f883a 	mov	r7,r3
   14444:	9809883a 	mov	r4,r19
   14448:	900b883a 	mov	r5,r18
   1444c:	00153d00 	call	153d0 <__muldf3>
   14450:	1009883a 	mov	r4,r2
   14454:	180b883a 	mov	r5,r3
   14458:	01955574 	movhi	r6,21845
   1445c:	31955244 	addi	r6,r6,21833
   14460:	01cff174 	movhi	r7,16325
   14464:	39d55544 	addi	r7,r7,21845
   14468:	00153700 	call	15370 <__subdf3>
   1446c:	1009883a 	mov	r4,r2
   14470:	180b883a 	mov	r5,r3
   14474:	a80d883a 	mov	r6,r21
   14478:	a00f883a 	mov	r7,r20
   1447c:	00153d00 	call	153d0 <__muldf3>
   14480:	8809883a 	mov	r4,r17
   14484:	800b883a 	mov	r5,r16
   14488:	100d883a 	mov	r6,r2
   1448c:	180f883a 	mov	r7,r3
   14490:	001531c0 	call	1531c <__adddf3>
   14494:	1023883a 	mov	r17,r2
   14498:	1821883a 	mov	r16,r3
   1449c:	003fd906 	br	14404 <__kernel_sin+0x238>

000144a0 <fabs>:
   144a0:	00e00034 	movhi	r3,32768
   144a4:	18ffffc4 	addi	r3,r3,-1
   144a8:	2005883a 	mov	r2,r4
   144ac:	28c6703a 	and	r3,r5,r3
   144b0:	f800283a 	ret

000144b4 <floor>:
   144b4:	defff904 	addi	sp,sp,-28
   144b8:	dcc00315 	stw	r19,12(sp)
   144bc:	2827d53a 	srai	r19,r5,20
   144c0:	dd000415 	stw	r20,16(sp)
   144c4:	dc800215 	stw	r18,8(sp)
   144c8:	9cc1ffcc 	andi	r19,r19,2047
   144cc:	dc400115 	stw	r17,4(sp)
   144d0:	dc000015 	stw	r16,0(sp)
   144d4:	dfc00615 	stw	ra,24(sp)
   144d8:	dd400515 	stw	r21,20(sp)
   144dc:	9c7f0044 	addi	r17,r19,-1023
   144e0:	018004c4 	movi	r6,19
   144e4:	2821883a 	mov	r16,r5
   144e8:	2005883a 	mov	r2,r4
   144ec:	2807883a 	mov	r3,r5
   144f0:	2829883a 	mov	r20,r5
   144f4:	2025883a 	mov	r18,r4
   144f8:	34402116 	blt	r6,r17,14580 <floor+0xcc>
   144fc:	88003f16 	blt	r17,zero,145fc <floor+0x148>
   14500:	04c00434 	movhi	r19,16
   14504:	9cffffc4 	addi	r19,r19,-1
   14508:	9c67d83a 	sra	r19,r19,r17
   1450c:	994c703a 	and	r6,r19,r5
   14510:	310cb03a 	or	r6,r6,r4
   14514:	30001126 	beq	r6,zero,1455c <floor+0xa8>
   14518:	01a20034 	movhi	r6,34816
   1451c:	319d6704 	addi	r6,r6,30108
   14520:	01df8e34 	movhi	r7,32312
   14524:	39f90f04 	addi	r7,r7,-7108
   14528:	001531c0 	call	1531c <__adddf3>
   1452c:	1009883a 	mov	r4,r2
   14530:	180b883a 	mov	r5,r3
   14534:	000d883a 	mov	r6,zero
   14538:	000f883a 	mov	r7,zero
   1453c:	00158c40 	call	158c4 <__gtdf2>
   14540:	0080040e 	bge	zero,r2,14554 <floor+0xa0>
   14544:	80003c16 	blt	r16,zero,14638 <floor+0x184>
   14548:	04e0303a 	nor	r16,zero,r19
   1454c:	a420703a 	and	r16,r20,r16
   14550:	0025883a 	mov	r18,zero
   14554:	9005883a 	mov	r2,r18
   14558:	8007883a 	mov	r3,r16
   1455c:	dfc00617 	ldw	ra,24(sp)
   14560:	dd400517 	ldw	r21,20(sp)
   14564:	dd000417 	ldw	r20,16(sp)
   14568:	dcc00317 	ldw	r19,12(sp)
   1456c:	dc800217 	ldw	r18,8(sp)
   14570:	dc400117 	ldw	r17,4(sp)
   14574:	dc000017 	ldw	r16,0(sp)
   14578:	dec00704 	addi	sp,sp,28
   1457c:	f800283a 	ret
   14580:	01800cc4 	movi	r6,51
   14584:	3440060e 	bge	r6,r17,145a0 <floor+0xec>
   14588:	01810004 	movi	r6,1024
   1458c:	89bff31e 	bne	r17,r6,1455c <floor+0xa8>
   14590:	200d883a 	mov	r6,r4
   14594:	280f883a 	mov	r7,r5
   14598:	001531c0 	call	1531c <__adddf3>
   1459c:	003fef06 	br	1455c <floor+0xa8>
   145a0:	01bfffc4 	movi	r6,-1
   145a4:	9d7efb44 	addi	r21,r19,-1043
   145a8:	356ad83a 	srl	r21,r6,r21
   145ac:	a90c703a 	and	r6,r21,r4
   145b0:	303fea26 	beq	r6,zero,1455c <floor+0xa8>
   145b4:	01a20034 	movhi	r6,34816
   145b8:	319d6704 	addi	r6,r6,30108
   145bc:	01df8e34 	movhi	r7,32312
   145c0:	39f90f04 	addi	r7,r7,-7108
   145c4:	001531c0 	call	1531c <__adddf3>
   145c8:	1009883a 	mov	r4,r2
   145cc:	180b883a 	mov	r5,r3
   145d0:	000d883a 	mov	r6,zero
   145d4:	000f883a 	mov	r7,zero
   145d8:	00158c40 	call	158c4 <__gtdf2>
   145dc:	00bfdd0e 	bge	zero,r2,14554 <floor+0xa0>
   145e0:	80001916 	blt	r16,zero,14648 <floor+0x194>
   145e4:	056a303a 	nor	r21,zero,r21
   145e8:	9564703a 	and	r18,r18,r21
   145ec:	a021883a 	mov	r16,r20
   145f0:	9005883a 	mov	r2,r18
   145f4:	8007883a 	mov	r3,r16
   145f8:	003fd806 	br	1455c <floor+0xa8>
   145fc:	01a20034 	movhi	r6,34816
   14600:	319d6704 	addi	r6,r6,30108
   14604:	01df8e34 	movhi	r7,32312
   14608:	39f90f04 	addi	r7,r7,-7108
   1460c:	001531c0 	call	1531c <__adddf3>
   14610:	1009883a 	mov	r4,r2
   14614:	180b883a 	mov	r5,r3
   14618:	000d883a 	mov	r6,zero
   1461c:	000f883a 	mov	r7,zero
   14620:	00158c40 	call	158c4 <__gtdf2>
   14624:	00bfcb0e 	bge	zero,r2,14554 <floor+0xa0>
   14628:	80001216 	blt	r16,zero,14674 <floor+0x1c0>
   1462c:	0025883a 	mov	r18,zero
   14630:	0021883a 	mov	r16,zero
   14634:	003fc706 	br	14554 <floor+0xa0>
   14638:	00800434 	movhi	r2,16
   1463c:	1463d83a 	sra	r17,r2,r17
   14640:	8469883a 	add	r20,r16,r17
   14644:	003fc006 	br	14548 <floor+0x94>
   14648:	00800504 	movi	r2,20
   1464c:	88801326 	beq	r17,r2,1469c <floor+0x1e8>
   14650:	00810cc4 	movi	r2,1075
   14654:	14e7c83a 	sub	r19,r2,r19
   14658:	00800044 	movi	r2,1
   1465c:	14c4983a 	sll	r2,r2,r19
   14660:	1485883a 	add	r2,r2,r18
   14664:	14800b2e 	bgeu	r2,r18,14694 <floor+0x1e0>
   14668:	85000044 	addi	r20,r16,1
   1466c:	1025883a 	mov	r18,r2
   14670:	003fdc06 	br	145e4 <floor+0x130>
   14674:	00a00034 	movhi	r2,32768
   14678:	10bfffc4 	addi	r2,r2,-1
   1467c:	8084703a 	and	r2,r16,r2
   14680:	1484b03a 	or	r2,r2,r18
   14684:	103fb326 	beq	r2,zero,14554 <floor+0xa0>
   14688:	0025883a 	mov	r18,zero
   1468c:	042ffc34 	movhi	r16,49136
   14690:	003fb006 	br	14554 <floor+0xa0>
   14694:	1025883a 	mov	r18,r2
   14698:	003fd206 	br	145e4 <floor+0x130>
   1469c:	85000044 	addi	r20,r16,1
   146a0:	003fd006 	br	145e4 <floor+0x130>

000146a4 <scalbn>:
   146a4:	29dffc2c 	andhi	r7,r5,32752
   146a8:	380fd53a 	srai	r7,r7,20
   146ac:	defffe04 	addi	sp,sp,-8
   146b0:	dc000015 	stw	r16,0(sp)
   146b4:	dfc00115 	stw	ra,4(sp)
   146b8:	2807883a 	mov	r3,r5
   146bc:	2005883a 	mov	r2,r4
   146c0:	3021883a 	mov	r16,r6
   146c4:	3800241e 	bne	r7,zero,14758 <scalbn+0xb4>
   146c8:	01a00034 	movhi	r6,32768
   146cc:	31bfffc4 	addi	r6,r6,-1
   146d0:	298c703a 	and	r6,r5,r6
   146d4:	310cb03a 	or	r6,r6,r4
   146d8:	30001b26 	beq	r6,zero,14748 <scalbn+0xa4>
   146dc:	000d883a 	mov	r6,zero
   146e0:	01d0d434 	movhi	r7,17232
   146e4:	00153d00 	call	153d0 <__muldf3>
   146e8:	013ffff4 	movhi	r4,65535
   146ec:	210f2c04 	addi	r4,r4,15536
   146f0:	81003416 	blt	r16,r4,147c4 <scalbn+0x120>
   146f4:	19dffc2c 	andhi	r7,r3,32752
   146f8:	380fd53a 	srai	r7,r7,20
   146fc:	0101ff84 	movi	r4,2046
   14700:	180d883a 	mov	r6,r3
   14704:	39fff284 	addi	r7,r7,-54
   14708:	3c0f883a 	add	r7,r7,r16
   1470c:	21c0180e 	bge	r4,r7,14770 <scalbn+0xcc>
   14710:	100d883a 	mov	r6,r2
   14714:	180f883a 	mov	r7,r3
   14718:	01220034 	movhi	r4,34816
   1471c:	211d6704 	addi	r4,r4,30108
   14720:	015f8e34 	movhi	r5,32312
   14724:	29790f04 	addi	r5,r5,-7108
   14728:	00148380 	call	14838 <copysign>
   1472c:	1009883a 	mov	r4,r2
   14730:	180b883a 	mov	r5,r3
   14734:	01a20034 	movhi	r6,34816
   14738:	319d6704 	addi	r6,r6,30108
   1473c:	01df8e34 	movhi	r7,32312
   14740:	39f90f04 	addi	r7,r7,-7108
   14744:	00153d00 	call	153d0 <__muldf3>
   14748:	dfc00117 	ldw	ra,4(sp)
   1474c:	dc000017 	ldw	r16,0(sp)
   14750:	dec00204 	addi	sp,sp,8
   14754:	f800283a 	ret
   14758:	0181ffc4 	movi	r6,2047
   1475c:	39802426 	beq	r7,r6,147f0 <scalbn+0x14c>
   14760:	3c0f883a 	add	r7,r7,r16
   14764:	0101ff84 	movi	r4,2046
   14768:	280d883a 	mov	r6,r5
   1476c:	21ffe816 	blt	r4,r7,14710 <scalbn+0x6c>
   14770:	01c0090e 	bge	zero,r7,14798 <scalbn+0xf4>
   14774:	380e953a 	slli	r7,r7,20
   14778:	00e00434 	movhi	r3,32784
   1477c:	18ffffc4 	addi	r3,r3,-1
   14780:	30cc703a 	and	r6,r6,r3
   14784:	3986b03a 	or	r3,r7,r6
   14788:	dfc00117 	ldw	ra,4(sp)
   1478c:	dc000017 	ldw	r16,0(sp)
   14790:	dec00204 	addi	sp,sp,8
   14794:	f800283a 	ret
   14798:	013ff2c4 	movi	r4,-53
   1479c:	39001b0e 	bge	r7,r4,1480c <scalbn+0x168>
   147a0:	0130d414 	movui	r4,50000
   147a4:	100d883a 	mov	r6,r2
   147a8:	180f883a 	mov	r7,r3
   147ac:	243fda16 	blt	r4,r16,14718 <scalbn+0x74>
   147b0:	0130be74 	movhi	r4,49913
   147b4:	213cd644 	addi	r4,r4,-3239
   147b8:	01406974 	movhi	r5,421
   147bc:	295b87c4 	addi	r5,r5,28191
   147c0:	00148380 	call	14838 <copysign>
   147c4:	1009883a 	mov	r4,r2
   147c8:	180b883a 	mov	r5,r3
   147cc:	01b0be74 	movhi	r6,49913
   147d0:	31bcd644 	addi	r6,r6,-3239
   147d4:	01c06974 	movhi	r7,421
   147d8:	39db87c4 	addi	r7,r7,28191
   147dc:	00153d00 	call	153d0 <__muldf3>
   147e0:	dfc00117 	ldw	ra,4(sp)
   147e4:	dc000017 	ldw	r16,0(sp)
   147e8:	dec00204 	addi	sp,sp,8
   147ec:	f800283a 	ret
   147f0:	200d883a 	mov	r6,r4
   147f4:	280f883a 	mov	r7,r5
   147f8:	001531c0 	call	1531c <__adddf3>
   147fc:	dfc00117 	ldw	ra,4(sp)
   14800:	dc000017 	ldw	r16,0(sp)
   14804:	dec00204 	addi	sp,sp,8
   14808:	f800283a 	ret
   1480c:	39c00d84 	addi	r7,r7,54
   14810:	380a953a 	slli	r5,r7,20
   14814:	00e00434 	movhi	r3,32784
   14818:	18ffffc4 	addi	r3,r3,-1
   1481c:	30cc703a 	and	r6,r6,r3
   14820:	298ab03a 	or	r5,r5,r6
   14824:	1009883a 	mov	r4,r2
   14828:	000d883a 	mov	r6,zero
   1482c:	01cf2434 	movhi	r7,15504
   14830:	00153d00 	call	153d0 <__muldf3>
   14834:	003fc406 	br	14748 <scalbn+0xa4>

00014838 <copysign>:
   14838:	00e00034 	movhi	r3,32768
   1483c:	18ffffc4 	addi	r3,r3,-1
   14840:	39e0002c 	andhi	r7,r7,32768
   14844:	28c6703a 	and	r3,r5,r3
   14848:	2005883a 	mov	r2,r4
   1484c:	38c6b03a 	or	r3,r7,r3
   14850:	f800283a 	ret

00014854 <__fixunsdfsi>:
   14854:	defffd04 	addi	sp,sp,-12
   14858:	000d883a 	mov	r6,zero
   1485c:	01d07834 	movhi	r7,16864
   14860:	dc400115 	stw	r17,4(sp)
   14864:	dc000015 	stw	r16,0(sp)
   14868:	dfc00215 	stw	ra,8(sp)
   1486c:	2023883a 	mov	r17,r4
   14870:	2821883a 	mov	r16,r5
   14874:	00159280 	call	15928 <__gedf2>
   14878:	1000080e 	bge	r2,zero,1489c <__fixunsdfsi+0x48>
   1487c:	8809883a 	mov	r4,r17
   14880:	800b883a 	mov	r5,r16
   14884:	0015a600 	call	15a60 <__fixdfsi>
   14888:	dfc00217 	ldw	ra,8(sp)
   1488c:	dc400117 	ldw	r17,4(sp)
   14890:	dc000017 	ldw	r16,0(sp)
   14894:	dec00304 	addi	sp,sp,12
   14898:	f800283a 	ret
   1489c:	000d883a 	mov	r6,zero
   148a0:	01d07834 	movhi	r7,16864
   148a4:	8809883a 	mov	r4,r17
   148a8:	800b883a 	mov	r5,r16
   148ac:	00153700 	call	15370 <__subdf3>
   148b0:	180b883a 	mov	r5,r3
   148b4:	1009883a 	mov	r4,r2
   148b8:	0015a600 	call	15a60 <__fixdfsi>
   148bc:	00e00034 	movhi	r3,32768
   148c0:	10c5883a 	add	r2,r2,r3
   148c4:	dfc00217 	ldw	ra,8(sp)
   148c8:	dc400117 	ldw	r17,4(sp)
   148cc:	dc000017 	ldw	r16,0(sp)
   148d0:	dec00304 	addi	sp,sp,12
   148d4:	f800283a 	ret

000148d8 <_fpadd_parts>:
   148d8:	2005883a 	mov	r2,r4
   148dc:	21000017 	ldw	r4,0(r4)
   148e0:	01c00044 	movi	r7,1
   148e4:	3900332e 	bgeu	r7,r4,149b4 <_fpadd_parts+0xdc>
   148e8:	28c00017 	ldw	r3,0(r5)
   148ec:	38c0642e 	bgeu	r7,r3,14a80 <_fpadd_parts+0x1a8>
   148f0:	01c00104 	movi	r7,4
   148f4:	21c06e26 	beq	r4,r7,14ab0 <_fpadd_parts+0x1d8>
   148f8:	19c06126 	beq	r3,r7,14a80 <_fpadd_parts+0x1a8>
   148fc:	01c00084 	movi	r7,2
   14900:	19c04226 	beq	r3,r7,14a0c <_fpadd_parts+0x134>
   14904:	21c05e26 	beq	r4,r7,14a80 <_fpadd_parts+0x1a8>
   14908:	11000217 	ldw	r4,8(r2)
   1490c:	2a400217 	ldw	r9,8(r5)
   14910:	12800317 	ldw	r10,12(r2)
   14914:	29c00317 	ldw	r7,12(r5)
   14918:	2247c83a 	sub	r3,r4,r9
   1491c:	1811883a 	mov	r8,r3
   14920:	18005316 	blt	r3,zero,14a70 <_fpadd_parts+0x198>
   14924:	02c007c4 	movi	r11,31
   14928:	5a002316 	blt	r11,r8,149b8 <_fpadd_parts+0xe0>
   1492c:	00c0560e 	bge	zero,r3,14a88 <_fpadd_parts+0x1b0>
   14930:	00c00044 	movi	r3,1
   14934:	1a06983a 	sll	r3,r3,r8
   14938:	3a10d83a 	srl	r8,r7,r8
   1493c:	18ffffc4 	addi	r3,r3,-1
   14940:	19ce703a 	and	r7,r3,r7
   14944:	380ec03a 	cmpne	r7,r7,zero
   14948:	3a0eb03a 	or	r7,r7,r8
   1494c:	10c00117 	ldw	r3,4(r2)
   14950:	28800117 	ldw	r2,4(r5)
   14954:	18801d26 	beq	r3,r2,149cc <_fpadd_parts+0xf4>
   14958:	18003a26 	beq	r3,zero,14a44 <_fpadd_parts+0x16c>
   1495c:	3a85c83a 	sub	r2,r7,r10
   14960:	10003a16 	blt	r2,zero,14a4c <_fpadd_parts+0x174>
   14964:	30000115 	stw	zero,4(r6)
   14968:	31000215 	stw	r4,8(r6)
   1496c:	30800315 	stw	r2,12(r6)
   14970:	10ffffc4 	addi	r3,r2,-1
   14974:	01d00034 	movhi	r7,16384
   14978:	39ffff84 	addi	r7,r7,-2
   1497c:	38c00936 	bltu	r7,r3,149a4 <_fpadd_parts+0xcc>
   14980:	30c00217 	ldw	r3,8(r6)
   14984:	18ffffc4 	addi	r3,r3,-1
   14988:	1085883a 	add	r2,r2,r2
   1498c:	113fffc4 	addi	r4,r2,-1
   14990:	180b883a 	mov	r5,r3
   14994:	18ffffc4 	addi	r3,r3,-1
   14998:	393ffb2e 	bgeu	r7,r4,14988 <_fpadd_parts+0xb0>
   1499c:	30800315 	stw	r2,12(r6)
   149a0:	31400215 	stw	r5,8(r6)
   149a4:	00c000c4 	movi	r3,3
   149a8:	30c00015 	stw	r3,0(r6)
   149ac:	10000e16 	blt	r2,zero,149e8 <_fpadd_parts+0x110>
   149b0:	3005883a 	mov	r2,r6
   149b4:	f800283a 	ret
   149b8:	49002a0e 	bge	r9,r4,14a64 <_fpadd_parts+0x18c>
   149bc:	10c00117 	ldw	r3,4(r2)
   149c0:	28800117 	ldw	r2,4(r5)
   149c4:	000f883a 	mov	r7,zero
   149c8:	18bfe31e 	bne	r3,r2,14958 <_fpadd_parts+0x80>
   149cc:	3a85883a 	add	r2,r7,r10
   149d0:	30c00115 	stw	r3,4(r6)
   149d4:	00c000c4 	movi	r3,3
   149d8:	31000215 	stw	r4,8(r6)
   149dc:	30800315 	stw	r2,12(r6)
   149e0:	30c00015 	stw	r3,0(r6)
   149e4:	103ff20e 	bge	r2,zero,149b0 <_fpadd_parts+0xd8>
   149e8:	30c00217 	ldw	r3,8(r6)
   149ec:	1008d07a 	srli	r4,r2,1
   149f0:	1080004c 	andi	r2,r2,1
   149f4:	18c00044 	addi	r3,r3,1
   149f8:	1104b03a 	or	r2,r2,r4
   149fc:	30800315 	stw	r2,12(r6)
   14a00:	30c00215 	stw	r3,8(r6)
   14a04:	3005883a 	mov	r2,r6
   14a08:	f800283a 	ret
   14a0c:	20ffe91e 	bne	r4,r3,149b4 <_fpadd_parts+0xdc>
   14a10:	31000015 	stw	r4,0(r6)
   14a14:	10c00117 	ldw	r3,4(r2)
   14a18:	30c00115 	stw	r3,4(r6)
   14a1c:	11c00217 	ldw	r7,8(r2)
   14a20:	10c00117 	ldw	r3,4(r2)
   14a24:	29000117 	ldw	r4,4(r5)
   14a28:	31c00215 	stw	r7,8(r6)
   14a2c:	10800317 	ldw	r2,12(r2)
   14a30:	20c6703a 	and	r3,r4,r3
   14a34:	30c00115 	stw	r3,4(r6)
   14a38:	30800315 	stw	r2,12(r6)
   14a3c:	3005883a 	mov	r2,r6
   14a40:	f800283a 	ret
   14a44:	51c5c83a 	sub	r2,r10,r7
   14a48:	103fc60e 	bge	r2,zero,14964 <_fpadd_parts+0x8c>
   14a4c:	0085c83a 	sub	r2,zero,r2
   14a50:	00c00044 	movi	r3,1
   14a54:	30c00115 	stw	r3,4(r6)
   14a58:	31000215 	stw	r4,8(r6)
   14a5c:	30800315 	stw	r2,12(r6)
   14a60:	003fc306 	br	14970 <_fpadd_parts+0x98>
   14a64:	4809883a 	mov	r4,r9
   14a68:	0015883a 	mov	r10,zero
   14a6c:	003fb706 	br	1494c <_fpadd_parts+0x74>
   14a70:	00d1c83a 	sub	r8,zero,r3
   14a74:	02c007c4 	movi	r11,31
   14a78:	5a3fcf16 	blt	r11,r8,149b8 <_fpadd_parts+0xe0>
   14a7c:	003fab06 	br	1492c <_fpadd_parts+0x54>
   14a80:	2805883a 	mov	r2,r5
   14a84:	f800283a 	ret
   14a88:	183fb026 	beq	r3,zero,1494c <_fpadd_parts+0x74>
   14a8c:	02400044 	movi	r9,1
   14a90:	4a12983a 	sll	r9,r9,r8
   14a94:	5206d83a 	srl	r3,r10,r8
   14a98:	2209883a 	add	r4,r4,r8
   14a9c:	4a3fffc4 	addi	r8,r9,-1
   14aa0:	4294703a 	and	r10,r8,r10
   14aa4:	5014c03a 	cmpne	r10,r10,zero
   14aa8:	50d4b03a 	or	r10,r10,r3
   14aac:	003fa706 	br	1494c <_fpadd_parts+0x74>
   14ab0:	193fc01e 	bne	r3,r4,149b4 <_fpadd_parts+0xdc>
   14ab4:	11000117 	ldw	r4,4(r2)
   14ab8:	28c00117 	ldw	r3,4(r5)
   14abc:	20ffbd26 	beq	r4,r3,149b4 <_fpadd_parts+0xdc>
   14ac0:	008000b4 	movhi	r2,2
   14ac4:	10a3aa04 	addi	r2,r2,-29016
   14ac8:	f800283a 	ret

00014acc <__addsf3>:
   14acc:	defff104 	addi	sp,sp,-60
   14ad0:	d9000d15 	stw	r4,52(sp)
   14ad4:	d9400c15 	stw	r5,48(sp)
   14ad8:	d9000d04 	addi	r4,sp,52
   14adc:	d9400804 	addi	r5,sp,32
   14ae0:	dfc00e15 	stw	ra,56(sp)
   14ae4:	00160500 	call	16050 <__unpack_f>
   14ae8:	d9000c04 	addi	r4,sp,48
   14aec:	d9400404 	addi	r5,sp,16
   14af0:	00160500 	call	16050 <__unpack_f>
   14af4:	d9000804 	addi	r4,sp,32
   14af8:	d9400404 	addi	r5,sp,16
   14afc:	d80d883a 	mov	r6,sp
   14b00:	00148d80 	call	148d8 <_fpadd_parts>
   14b04:	1009883a 	mov	r4,r2
   14b08:	0015f240 	call	15f24 <__pack_f>
   14b0c:	dfc00e17 	ldw	ra,56(sp)
   14b10:	dec00f04 	addi	sp,sp,60
   14b14:	f800283a 	ret

00014b18 <__subsf3>:
   14b18:	defff104 	addi	sp,sp,-60
   14b1c:	d9000d15 	stw	r4,52(sp)
   14b20:	d9400c15 	stw	r5,48(sp)
   14b24:	d9000d04 	addi	r4,sp,52
   14b28:	d9400804 	addi	r5,sp,32
   14b2c:	dfc00e15 	stw	ra,56(sp)
   14b30:	00160500 	call	16050 <__unpack_f>
   14b34:	d9000c04 	addi	r4,sp,48
   14b38:	d9400404 	addi	r5,sp,16
   14b3c:	00160500 	call	16050 <__unpack_f>
   14b40:	d8800517 	ldw	r2,20(sp)
   14b44:	d9000804 	addi	r4,sp,32
   14b48:	d9400404 	addi	r5,sp,16
   14b4c:	d80d883a 	mov	r6,sp
   14b50:	1080005c 	xori	r2,r2,1
   14b54:	d8800515 	stw	r2,20(sp)
   14b58:	00148d80 	call	148d8 <_fpadd_parts>
   14b5c:	1009883a 	mov	r4,r2
   14b60:	0015f240 	call	15f24 <__pack_f>
   14b64:	dfc00e17 	ldw	ra,56(sp)
   14b68:	dec00f04 	addi	sp,sp,60
   14b6c:	f800283a 	ret

00014b70 <__mulsf3>:
   14b70:	defff104 	addi	sp,sp,-60
   14b74:	d9000d15 	stw	r4,52(sp)
   14b78:	d9400c15 	stw	r5,48(sp)
   14b7c:	d9000d04 	addi	r4,sp,52
   14b80:	d9400804 	addi	r5,sp,32
   14b84:	dfc00e15 	stw	ra,56(sp)
   14b88:	00160500 	call	16050 <__unpack_f>
   14b8c:	d9000c04 	addi	r4,sp,48
   14b90:	d9400404 	addi	r5,sp,16
   14b94:	00160500 	call	16050 <__unpack_f>
   14b98:	d8c00817 	ldw	r3,32(sp)
   14b9c:	00800044 	movi	r2,1
   14ba0:	10c00936 	bltu	r2,r3,14bc8 <__mulsf3+0x58>
   14ba4:	d8c00917 	ldw	r3,36(sp)
   14ba8:	d8800517 	ldw	r2,20(sp)
   14bac:	d9000804 	addi	r4,sp,32
   14bb0:	1884c03a 	cmpne	r2,r3,r2
   14bb4:	d8800915 	stw	r2,36(sp)
   14bb8:	0015f240 	call	15f24 <__pack_f>
   14bbc:	dfc00e17 	ldw	ra,56(sp)
   14bc0:	dec00f04 	addi	sp,sp,60
   14bc4:	f800283a 	ret
   14bc8:	d9000417 	ldw	r4,16(sp)
   14bcc:	11000936 	bltu	r2,r4,14bf4 <__mulsf3+0x84>
   14bd0:	d8800517 	ldw	r2,20(sp)
   14bd4:	d8c00917 	ldw	r3,36(sp)
   14bd8:	d9000404 	addi	r4,sp,16
   14bdc:	1884c03a 	cmpne	r2,r3,r2
   14be0:	d8800515 	stw	r2,20(sp)
   14be4:	0015f240 	call	15f24 <__pack_f>
   14be8:	dfc00e17 	ldw	ra,56(sp)
   14bec:	dec00f04 	addi	sp,sp,60
   14bf0:	f800283a 	ret
   14bf4:	00800104 	movi	r2,4
   14bf8:	1880051e 	bne	r3,r2,14c10 <__mulsf3+0xa0>
   14bfc:	00800084 	movi	r2,2
   14c00:	20bfe81e 	bne	r4,r2,14ba4 <__mulsf3+0x34>
   14c04:	010000b4 	movhi	r4,2
   14c08:	2123aa04 	addi	r4,r4,-29016
   14c0c:	003fea06 	br	14bb8 <__mulsf3+0x48>
   14c10:	2080031e 	bne	r4,r2,14c20 <__mulsf3+0xb0>
   14c14:	00800084 	movi	r2,2
   14c18:	18bffa26 	beq	r3,r2,14c04 <__mulsf3+0x94>
   14c1c:	003fec06 	br	14bd0 <__mulsf3+0x60>
   14c20:	00800084 	movi	r2,2
   14c24:	18bfdf26 	beq	r3,r2,14ba4 <__mulsf3+0x34>
   14c28:	20bfe926 	beq	r4,r2,14bd0 <__mulsf3+0x60>
   14c2c:	d9000717 	ldw	r4,28(sp)
   14c30:	d9800b17 	ldw	r6,44(sp)
   14c34:	000b883a 	mov	r5,zero
   14c38:	000f883a 	mov	r7,zero
   14c3c:	0015e180 	call	15e18 <__muldi3>
   14c40:	d9000617 	ldw	r4,24(sp)
   14c44:	d9400a17 	ldw	r5,40(sp)
   14c48:	d9c00917 	ldw	r7,36(sp)
   14c4c:	290b883a 	add	r5,r5,r4
   14c50:	d9000517 	ldw	r4,20(sp)
   14c54:	29800084 	addi	r6,r5,2
   14c58:	d9800215 	stw	r6,8(sp)
   14c5c:	3908c03a 	cmpne	r4,r7,r4
   14c60:	d9000115 	stw	r4,4(sp)
   14c64:	1809883a 	mov	r4,r3
   14c68:	1800070e 	bge	r3,zero,14c88 <__mulsf3+0x118>
   14c6c:	1900004c 	andi	r4,r3,1
   14c70:	294000c4 	addi	r5,r5,3
   14c74:	20000226 	beq	r4,zero,14c80 <__mulsf3+0x110>
   14c78:	1004d07a 	srli	r2,r2,1
   14c7c:	10a00034 	orhi	r2,r2,32768
   14c80:	1808d07a 	srli	r4,r3,1
   14c84:	d9400215 	stw	r5,8(sp)
   14c88:	01900034 	movhi	r6,16384
   14c8c:	31bfffc4 	addi	r6,r6,-1
   14c90:	31000c36 	bltu	r6,r4,14cc4 <__mulsf3+0x154>
   14c94:	d8c00217 	ldw	r3,8(sp)
   14c98:	18ffffc4 	addi	r3,r3,-1
   14c9c:	00000306 	br	14cac <__mulsf3+0x13c>
   14ca0:	1085883a 	add	r2,r2,r2
   14ca4:	18ffffc4 	addi	r3,r3,-1
   14ca8:	31000536 	bltu	r6,r4,14cc0 <__mulsf3+0x150>
   14cac:	2109883a 	add	r4,r4,r4
   14cb0:	180b883a 	mov	r5,r3
   14cb4:	103ffa0e 	bge	r2,zero,14ca0 <__mulsf3+0x130>
   14cb8:	21000054 	ori	r4,r4,1
   14cbc:	003ff806 	br	14ca0 <__mulsf3+0x130>
   14cc0:	d9400215 	stw	r5,8(sp)
   14cc4:	21401fcc 	andi	r5,r4,127
   14cc8:	00c01004 	movi	r3,64
   14ccc:	28c00526 	beq	r5,r3,14ce4 <__mulsf3+0x174>
   14cd0:	008000c4 	movi	r2,3
   14cd4:	d9000315 	stw	r4,12(sp)
   14cd8:	d8800015 	stw	r2,0(sp)
   14cdc:	d809883a 	mov	r4,sp
   14ce0:	003fb506 	br	14bb8 <__mulsf3+0x48>
   14ce4:	20c0200c 	andi	r3,r4,128
   14ce8:	183ff91e 	bne	r3,zero,14cd0 <__mulsf3+0x160>
   14cec:	103ff826 	beq	r2,zero,14cd0 <__mulsf3+0x160>
   14cf0:	21001004 	addi	r4,r4,64
   14cf4:	00bfe004 	movi	r2,-128
   14cf8:	2088703a 	and	r4,r4,r2
   14cfc:	003ff406 	br	14cd0 <__mulsf3+0x160>

00014d00 <__divsf3>:
   14d00:	defff504 	addi	sp,sp,-44
   14d04:	d9000915 	stw	r4,36(sp)
   14d08:	d9400815 	stw	r5,32(sp)
   14d0c:	d9000904 	addi	r4,sp,36
   14d10:	d9400404 	addi	r5,sp,16
   14d14:	dfc00a15 	stw	ra,40(sp)
   14d18:	00160500 	call	16050 <__unpack_f>
   14d1c:	d9000804 	addi	r4,sp,32
   14d20:	d80b883a 	mov	r5,sp
   14d24:	00160500 	call	16050 <__unpack_f>
   14d28:	d8c00417 	ldw	r3,16(sp)
   14d2c:	00800044 	movi	r2,1
   14d30:	10c00536 	bltu	r2,r3,14d48 <__divsf3+0x48>
   14d34:	d9000404 	addi	r4,sp,16
   14d38:	0015f240 	call	15f24 <__pack_f>
   14d3c:	dfc00a17 	ldw	ra,40(sp)
   14d40:	dec00b04 	addi	sp,sp,44
   14d44:	f800283a 	ret
   14d48:	d9000017 	ldw	r4,0(sp)
   14d4c:	11000536 	bltu	r2,r4,14d64 <__divsf3+0x64>
   14d50:	d809883a 	mov	r4,sp
   14d54:	0015f240 	call	15f24 <__pack_f>
   14d58:	dfc00a17 	ldw	ra,40(sp)
   14d5c:	dec00b04 	addi	sp,sp,44
   14d60:	f800283a 	ret
   14d64:	d9800517 	ldw	r6,20(sp)
   14d68:	d9400117 	ldw	r5,4(sp)
   14d6c:	00800104 	movi	r2,4
   14d70:	314af03a 	xor	r5,r6,r5
   14d74:	d9400515 	stw	r5,20(sp)
   14d78:	18800226 	beq	r3,r2,14d84 <__divsf3+0x84>
   14d7c:	01400084 	movi	r5,2
   14d80:	1940041e 	bne	r3,r5,14d94 <__divsf3+0x94>
   14d84:	193feb1e 	bne	r3,r4,14d34 <__divsf3+0x34>
   14d88:	010000b4 	movhi	r4,2
   14d8c:	2123aa04 	addi	r4,r4,-29016
   14d90:	003fe906 	br	14d38 <__divsf3+0x38>
   14d94:	20802226 	beq	r4,r2,14e20 <__divsf3+0x120>
   14d98:	21402526 	beq	r4,r5,14e30 <__divsf3+0x130>
   14d9c:	d9000617 	ldw	r4,24(sp)
   14da0:	d8c00217 	ldw	r3,8(sp)
   14da4:	d8800717 	ldw	r2,28(sp)
   14da8:	d9400317 	ldw	r5,12(sp)
   14dac:	20c7c83a 	sub	r3,r4,r3
   14db0:	d8c00615 	stw	r3,24(sp)
   14db4:	1140032e 	bgeu	r2,r5,14dc4 <__divsf3+0xc4>
   14db8:	18ffffc4 	addi	r3,r3,-1
   14dbc:	1085883a 	add	r2,r2,r2
   14dc0:	d8c00615 	stw	r3,24(sp)
   14dc4:	00c007c4 	movi	r3,31
   14dc8:	01100034 	movhi	r4,16384
   14dcc:	000d883a 	mov	r6,zero
   14dd0:	18ffffc4 	addi	r3,r3,-1
   14dd4:	11400236 	bltu	r2,r5,14de0 <__divsf3+0xe0>
   14dd8:	310cb03a 	or	r6,r6,r4
   14ddc:	1145c83a 	sub	r2,r2,r5
   14de0:	2008d07a 	srli	r4,r4,1
   14de4:	1085883a 	add	r2,r2,r2
   14de8:	183ff91e 	bne	r3,zero,14dd0 <__divsf3+0xd0>
   14dec:	31001fcc 	andi	r4,r6,127
   14df0:	00c01004 	movi	r3,64
   14df4:	20c00226 	beq	r4,r3,14e00 <__divsf3+0x100>
   14df8:	d9800715 	stw	r6,28(sp)
   14dfc:	003fcd06 	br	14d34 <__divsf3+0x34>
   14e00:	30c0200c 	andi	r3,r6,128
   14e04:	183ffc1e 	bne	r3,zero,14df8 <__divsf3+0xf8>
   14e08:	103ffb26 	beq	r2,zero,14df8 <__divsf3+0xf8>
   14e0c:	31801004 	addi	r6,r6,64
   14e10:	00bfe004 	movi	r2,-128
   14e14:	308c703a 	and	r6,r6,r2
   14e18:	d9800715 	stw	r6,28(sp)
   14e1c:	003fc506 	br	14d34 <__divsf3+0x34>
   14e20:	d8000715 	stw	zero,28(sp)
   14e24:	d8000615 	stw	zero,24(sp)
   14e28:	d9000404 	addi	r4,sp,16
   14e2c:	003fc206 	br	14d38 <__divsf3+0x38>
   14e30:	d8800415 	stw	r2,16(sp)
   14e34:	d9000404 	addi	r4,sp,16
   14e38:	003fbf06 	br	14d38 <__divsf3+0x38>

00014e3c <__floatsisf>:
   14e3c:	2004d7fa 	srli	r2,r4,31
   14e40:	defffa04 	addi	sp,sp,-24
   14e44:	00c000c4 	movi	r3,3
   14e48:	dfc00515 	stw	ra,20(sp)
   14e4c:	dc000415 	stw	r16,16(sp)
   14e50:	d8c00015 	stw	r3,0(sp)
   14e54:	d8800115 	stw	r2,4(sp)
   14e58:	2000081e 	bne	r4,zero,14e7c <__floatsisf+0x40>
   14e5c:	00800084 	movi	r2,2
   14e60:	d8800015 	stw	r2,0(sp)
   14e64:	d809883a 	mov	r4,sp
   14e68:	0015f240 	call	15f24 <__pack_f>
   14e6c:	dfc00517 	ldw	ra,20(sp)
   14e70:	dc000417 	ldw	r16,16(sp)
   14e74:	dec00604 	addi	sp,sp,24
   14e78:	f800283a 	ret
   14e7c:	00c00784 	movi	r3,30
   14e80:	d8c00215 	stw	r3,8(sp)
   14e84:	10000b1e 	bne	r2,zero,14eb4 <__floatsisf+0x78>
   14e88:	2021883a 	mov	r16,r4
   14e8c:	8009883a 	mov	r4,r16
   14e90:	0015e780 	call	15e78 <__clzsi2>
   14e94:	113fffc4 	addi	r4,r2,-1
   14e98:	01000d0e 	bge	zero,r4,14ed0 <__floatsisf+0x94>
   14e9c:	8108983a 	sll	r4,r16,r4
   14ea0:	00c007c4 	movi	r3,31
   14ea4:	1885c83a 	sub	r2,r3,r2
   14ea8:	d9000315 	stw	r4,12(sp)
   14eac:	d8800215 	stw	r2,8(sp)
   14eb0:	003fec06 	br	14e64 <__floatsisf+0x28>
   14eb4:	00a00034 	movhi	r2,32768
   14eb8:	20800726 	beq	r4,r2,14ed8 <__floatsisf+0x9c>
   14ebc:	0121c83a 	sub	r16,zero,r4
   14ec0:	8009883a 	mov	r4,r16
   14ec4:	0015e780 	call	15e78 <__clzsi2>
   14ec8:	113fffc4 	addi	r4,r2,-1
   14ecc:	013ff316 	blt	zero,r4,14e9c <__floatsisf+0x60>
   14ed0:	dc000315 	stw	r16,12(sp)
   14ed4:	003fe306 	br	14e64 <__floatsisf+0x28>
   14ed8:	00b3c034 	movhi	r2,52992
   14edc:	003fe306 	br	14e6c <__floatsisf+0x30>

00014ee0 <__fixsfsi>:
   14ee0:	defffa04 	addi	sp,sp,-24
   14ee4:	d9000415 	stw	r4,16(sp)
   14ee8:	d80b883a 	mov	r5,sp
   14eec:	d9000404 	addi	r4,sp,16
   14ef0:	dfc00515 	stw	ra,20(sp)
   14ef4:	00160500 	call	16050 <__unpack_f>
   14ef8:	d8800017 	ldw	r2,0(sp)
   14efc:	00c00084 	movi	r3,2
   14f00:	10c01826 	beq	r2,r3,14f64 <__fixsfsi+0x84>
   14f04:	00c00044 	movi	r3,1
   14f08:	1880162e 	bgeu	r3,r2,14f64 <__fixsfsi+0x84>
   14f0c:	00c00104 	movi	r3,4
   14f10:	10c00426 	beq	r2,r3,14f24 <__fixsfsi+0x44>
   14f14:	d8800217 	ldw	r2,8(sp)
   14f18:	10001216 	blt	r2,zero,14f64 <__fixsfsi+0x84>
   14f1c:	00c00784 	movi	r3,30
   14f20:	1880070e 	bge	r3,r2,14f40 <__fixsfsi+0x60>
   14f24:	d8800117 	ldw	r2,4(sp)
   14f28:	1000121e 	bne	r2,zero,14f74 <__fixsfsi+0x94>
   14f2c:	00a00034 	movhi	r2,32768
   14f30:	10bfffc4 	addi	r2,r2,-1
   14f34:	dfc00517 	ldw	ra,20(sp)
   14f38:	dec00604 	addi	sp,sp,24
   14f3c:	f800283a 	ret
   14f40:	1885c83a 	sub	r2,r3,r2
   14f44:	d8c00317 	ldw	r3,12(sp)
   14f48:	1884d83a 	srl	r2,r3,r2
   14f4c:	d8c00117 	ldw	r3,4(sp)
   14f50:	183ff826 	beq	r3,zero,14f34 <__fixsfsi+0x54>
   14f54:	0085c83a 	sub	r2,zero,r2
   14f58:	dfc00517 	ldw	ra,20(sp)
   14f5c:	dec00604 	addi	sp,sp,24
   14f60:	f800283a 	ret
   14f64:	0005883a 	mov	r2,zero
   14f68:	dfc00517 	ldw	ra,20(sp)
   14f6c:	dec00604 	addi	sp,sp,24
   14f70:	f800283a 	ret
   14f74:	00a00034 	movhi	r2,32768
   14f78:	dfc00517 	ldw	ra,20(sp)
   14f7c:	dec00604 	addi	sp,sp,24
   14f80:	f800283a 	ret

00014f84 <__extendsfdf2>:
   14f84:	defff904 	addi	sp,sp,-28
   14f88:	d9000515 	stw	r4,20(sp)
   14f8c:	d9400104 	addi	r5,sp,4
   14f90:	d9000504 	addi	r4,sp,20
   14f94:	dfc00615 	stw	ra,24(sp)
   14f98:	00160500 	call	16050 <__unpack_f>
   14f9c:	d9c00417 	ldw	r7,16(sp)
   14fa0:	d9000117 	ldw	r4,4(sp)
   14fa4:	d9400217 	ldw	r5,8(sp)
   14fa8:	3804d0ba 	srli	r2,r7,2
   14fac:	d9800317 	ldw	r6,12(sp)
   14fb0:	380e97ba 	slli	r7,r7,30
   14fb4:	d8800015 	stw	r2,0(sp)
   14fb8:	0015b340 	call	15b34 <__make_dp>
   14fbc:	dfc00617 	ldw	ra,24(sp)
   14fc0:	dec00704 	addi	sp,sp,28
   14fc4:	f800283a 	ret

00014fc8 <_fpadd_parts>:
   14fc8:	2005883a 	mov	r2,r4
   14fcc:	21000017 	ldw	r4,0(r4)
   14fd0:	01c00044 	movi	r7,1
   14fd4:	3900622e 	bgeu	r7,r4,15160 <_fpadd_parts+0x198>
   14fd8:	28c00017 	ldw	r3,0(r5)
   14fdc:	38c05f2e 	bgeu	r7,r3,1515c <_fpadd_parts+0x194>
   14fe0:	01c00104 	movi	r7,4
   14fe4:	21c0c626 	beq	r4,r7,15300 <_fpadd_parts+0x338>
   14fe8:	19c05c26 	beq	r3,r7,1515c <_fpadd_parts+0x194>
   14fec:	01c00084 	movi	r7,2
   14ff0:	19c06b26 	beq	r3,r7,151a0 <_fpadd_parts+0x1d8>
   14ff4:	21c05926 	beq	r4,r7,1515c <_fpadd_parts+0x194>
   14ff8:	11c00217 	ldw	r7,8(r2)
   14ffc:	2ac00217 	ldw	r11,8(r5)
   15000:	13000317 	ldw	r12,12(r2)
   15004:	13400417 	ldw	r13,16(r2)
   15008:	3ac9c83a 	sub	r4,r7,r11
   1500c:	2a000317 	ldw	r8,12(r5)
   15010:	2a400417 	ldw	r9,16(r5)
   15014:	2015883a 	mov	r10,r4
   15018:	20007516 	blt	r4,zero,151f0 <_fpadd_parts+0x228>
   1501c:	00c00fc4 	movi	r3,63
   15020:	1a805016 	blt	r3,r10,15164 <_fpadd_parts+0x19c>
   15024:	0100870e 	bge	zero,r4,15244 <_fpadd_parts+0x27c>
   15028:	50fff804 	addi	r3,r10,-32
   1502c:	18009916 	blt	r3,zero,15294 <_fpadd_parts+0x2cc>
   15030:	48d6d83a 	srl	r11,r9,r3
   15034:	001d883a 	mov	r14,zero
   15038:	18009e16 	blt	r3,zero,152b4 <_fpadd_parts+0x2ec>
   1503c:	01000044 	movi	r4,1
   15040:	20c6983a 	sll	r3,r4,r3
   15044:	0015883a 	mov	r10,zero
   15048:	513fffc4 	addi	r4,r10,-1
   1504c:	2295403a 	cmpgeu	r10,r4,r10
   15050:	1a87c83a 	sub	r3,r3,r10
   15054:	1a52703a 	and	r9,r3,r9
   15058:	2210703a 	and	r8,r4,r8
   1505c:	4250b03a 	or	r8,r8,r9
   15060:	4010c03a 	cmpne	r8,r8,zero
   15064:	42d0b03a 	or	r8,r8,r11
   15068:	7013883a 	mov	r9,r14
   1506c:	11000117 	ldw	r4,4(r2)
   15070:	28800117 	ldw	r2,4(r5)
   15074:	20804126 	beq	r4,r2,1517c <_fpadd_parts+0x1b4>
   15078:	20006326 	beq	r4,zero,15208 <_fpadd_parts+0x240>
   1507c:	4305c83a 	sub	r2,r8,r12
   15080:	4091803a 	cmpltu	r8,r8,r2
   15084:	4b47c83a 	sub	r3,r9,r13
   15088:	1a07c83a 	sub	r3,r3,r8
   1508c:	18006316 	blt	r3,zero,1521c <_fpadd_parts+0x254>
   15090:	30000115 	stw	zero,4(r6)
   15094:	31c00215 	stw	r7,8(r6)
   15098:	30800315 	stw	r2,12(r6)
   1509c:	30c00415 	stw	r3,16(r6)
   150a0:	11ffffc4 	addi	r7,r2,-1
   150a4:	388b403a 	cmpgeu	r5,r7,r2
   150a8:	194bc83a 	sub	r5,r3,r5
   150ac:	01040034 	movhi	r4,4096
   150b0:	213fffc4 	addi	r4,r4,-1
   150b4:	21401736 	bltu	r4,r5,15114 <_fpadd_parts+0x14c>
   150b8:	29008226 	beq	r5,r4,152c4 <_fpadd_parts+0x2fc>
   150bc:	31400217 	ldw	r5,8(r6)
   150c0:	02840034 	movhi	r10,4096
   150c4:	52bfffc4 	addi	r10,r10,-1
   150c8:	033fff84 	movi	r12,-2
   150cc:	297fffc4 	addi	r5,r5,-1
   150d0:	00000106 	br	150d8 <_fpadd_parts+0x110>
   150d4:	3a804a26 	beq	r7,r10,15200 <_fpadd_parts+0x238>
   150d8:	1089883a 	add	r4,r2,r2
   150dc:	2091803a 	cmpltu	r8,r4,r2
   150e0:	18c7883a 	add	r3,r3,r3
   150e4:	227fffc4 	addi	r9,r4,-1
   150e8:	40d1883a 	add	r8,r8,r3
   150ec:	490f403a 	cmpgeu	r7,r9,r4
   150f0:	41cfc83a 	sub	r7,r8,r7
   150f4:	2817883a 	mov	r11,r5
   150f8:	2005883a 	mov	r2,r4
   150fc:	4007883a 	mov	r3,r8
   15100:	297fffc4 	addi	r5,r5,-1
   15104:	51fff32e 	bgeu	r10,r7,150d4 <_fpadd_parts+0x10c>
   15108:	31000315 	stw	r4,12(r6)
   1510c:	32000415 	stw	r8,16(r6)
   15110:	32c00215 	stw	r11,8(r6)
   15114:	010000c4 	movi	r4,3
   15118:	31000015 	stw	r4,0(r6)
   1511c:	01080034 	movhi	r4,8192
   15120:	213fffc4 	addi	r4,r4,-1
   15124:	20c00b2e 	bgeu	r4,r3,15154 <_fpadd_parts+0x18c>
   15128:	180e97fa 	slli	r7,r3,31
   1512c:	1008d07a 	srli	r4,r2,1
   15130:	31400217 	ldw	r5,8(r6)
   15134:	1806d07a 	srli	r3,r3,1
   15138:	1080004c 	andi	r2,r2,1
   1513c:	3908b03a 	or	r4,r7,r4
   15140:	1108b03a 	or	r4,r2,r4
   15144:	29400044 	addi	r5,r5,1
   15148:	31000315 	stw	r4,12(r6)
   1514c:	30c00415 	stw	r3,16(r6)
   15150:	31400215 	stw	r5,8(r6)
   15154:	3005883a 	mov	r2,r6
   15158:	f800283a 	ret
   1515c:	2805883a 	mov	r2,r5
   15160:	f800283a 	ret
   15164:	59c01e0e 	bge	r11,r7,151e0 <_fpadd_parts+0x218>
   15168:	11000117 	ldw	r4,4(r2)
   1516c:	28800117 	ldw	r2,4(r5)
   15170:	0011883a 	mov	r8,zero
   15174:	0013883a 	mov	r9,zero
   15178:	20bfbf1e 	bne	r4,r2,15078 <_fpadd_parts+0xb0>
   1517c:	4305883a 	add	r2,r8,r12
   15180:	1207803a 	cmpltu	r3,r2,r8
   15184:	4b53883a 	add	r9,r9,r13
   15188:	1a47883a 	add	r3,r3,r9
   1518c:	31000115 	stw	r4,4(r6)
   15190:	31c00215 	stw	r7,8(r6)
   15194:	30800315 	stw	r2,12(r6)
   15198:	30c00415 	stw	r3,16(r6)
   1519c:	003fdd06 	br	15114 <_fpadd_parts+0x14c>
   151a0:	20ffef1e 	bne	r4,r3,15160 <_fpadd_parts+0x198>
   151a4:	31000015 	stw	r4,0(r6)
   151a8:	10c00117 	ldw	r3,4(r2)
   151ac:	30c00115 	stw	r3,4(r6)
   151b0:	10c00217 	ldw	r3,8(r2)
   151b4:	11000117 	ldw	r4,4(r2)
   151b8:	29400117 	ldw	r5,4(r5)
   151bc:	30c00215 	stw	r3,8(r6)
   151c0:	10c00317 	ldw	r3,12(r2)
   151c4:	2908703a 	and	r4,r5,r4
   151c8:	30c00315 	stw	r3,12(r6)
   151cc:	10c00417 	ldw	r3,16(r2)
   151d0:	31000115 	stw	r4,4(r6)
   151d4:	3005883a 	mov	r2,r6
   151d8:	30c00415 	stw	r3,16(r6)
   151dc:	f800283a 	ret
   151e0:	580f883a 	mov	r7,r11
   151e4:	0019883a 	mov	r12,zero
   151e8:	001b883a 	mov	r13,zero
   151ec:	003f9f06 	br	1506c <_fpadd_parts+0xa4>
   151f0:	0115c83a 	sub	r10,zero,r4
   151f4:	00c00fc4 	movi	r3,63
   151f8:	1abfda16 	blt	r3,r10,15164 <_fpadd_parts+0x19c>
   151fc:	003f8906 	br	15024 <_fpadd_parts+0x5c>
   15200:	627fb52e 	bgeu	r12,r9,150d8 <_fpadd_parts+0x110>
   15204:	003fc006 	br	15108 <_fpadd_parts+0x140>
   15208:	6205c83a 	sub	r2,r12,r8
   1520c:	6099803a 	cmpltu	r12,r12,r2
   15210:	6a47c83a 	sub	r3,r13,r9
   15214:	1b07c83a 	sub	r3,r3,r12
   15218:	183f9d0e 	bge	r3,zero,15090 <_fpadd_parts+0xc8>
   1521c:	0085c83a 	sub	r2,zero,r2
   15220:	1008c03a 	cmpne	r4,r2,zero
   15224:	00c7c83a 	sub	r3,zero,r3
   15228:	1907c83a 	sub	r3,r3,r4
   1522c:	01000044 	movi	r4,1
   15230:	31000115 	stw	r4,4(r6)
   15234:	31c00215 	stw	r7,8(r6)
   15238:	30800315 	stw	r2,12(r6)
   1523c:	30c00415 	stw	r3,16(r6)
   15240:	003f9706 	br	150a0 <_fpadd_parts+0xd8>
   15244:	203f8926 	beq	r4,zero,1506c <_fpadd_parts+0xa4>
   15248:	50fff804 	addi	r3,r10,-32
   1524c:	3a8f883a 	add	r7,r7,r10
   15250:	18002316 	blt	r3,zero,152e0 <_fpadd_parts+0x318>
   15254:	68d6d83a 	srl	r11,r13,r3
   15258:	001d883a 	mov	r14,zero
   1525c:	18001c16 	blt	r3,zero,152d0 <_fpadd_parts+0x308>
   15260:	01000044 	movi	r4,1
   15264:	20c6983a 	sll	r3,r4,r3
   15268:	0015883a 	mov	r10,zero
   1526c:	513fffc4 	addi	r4,r10,-1
   15270:	2295403a 	cmpgeu	r10,r4,r10
   15274:	1a87c83a 	sub	r3,r3,r10
   15278:	1b5a703a 	and	r13,r3,r13
   1527c:	2318703a 	and	r12,r4,r12
   15280:	6358b03a 	or	r12,r12,r13
   15284:	6018c03a 	cmpne	r12,r12,zero
   15288:	62d8b03a 	or	r12,r12,r11
   1528c:	701b883a 	mov	r13,r14
   15290:	003f7606 	br	1506c <_fpadd_parts+0xa4>
   15294:	4808907a 	slli	r4,r9,1
   15298:	02c007c4 	movi	r11,31
   1529c:	5a97c83a 	sub	r11,r11,r10
   152a0:	22c8983a 	sll	r4,r4,r11
   152a4:	4296d83a 	srl	r11,r8,r10
   152a8:	4a9cd83a 	srl	r14,r9,r10
   152ac:	22d6b03a 	or	r11,r4,r11
   152b0:	003f6106 	br	15038 <_fpadd_parts+0x70>
   152b4:	00c00044 	movi	r3,1
   152b8:	1a94983a 	sll	r10,r3,r10
   152bc:	0007883a 	mov	r3,zero
   152c0:	003f6106 	br	15048 <_fpadd_parts+0x80>
   152c4:	013fff84 	movi	r4,-2
   152c8:	21ff7c2e 	bgeu	r4,r7,150bc <_fpadd_parts+0xf4>
   152cc:	003f9106 	br	15114 <_fpadd_parts+0x14c>
   152d0:	00c00044 	movi	r3,1
   152d4:	1a94983a 	sll	r10,r3,r10
   152d8:	0007883a 	mov	r3,zero
   152dc:	003fe306 	br	1526c <_fpadd_parts+0x2a4>
   152e0:	6816907a 	slli	r11,r13,1
   152e4:	010007c4 	movi	r4,31
   152e8:	2289c83a 	sub	r4,r4,r10
   152ec:	5908983a 	sll	r4,r11,r4
   152f0:	6296d83a 	srl	r11,r12,r10
   152f4:	6a9cd83a 	srl	r14,r13,r10
   152f8:	22d6b03a 	or	r11,r4,r11
   152fc:	003fd706 	br	1525c <_fpadd_parts+0x294>
   15300:	193f971e 	bne	r3,r4,15160 <_fpadd_parts+0x198>
   15304:	11000117 	ldw	r4,4(r2)
   15308:	28c00117 	ldw	r3,4(r5)
   1530c:	20ff9426 	beq	r4,r3,15160 <_fpadd_parts+0x198>
   15310:	008000b4 	movhi	r2,2
   15314:	10a3ae04 	addi	r2,r2,-29000
   15318:	f800283a 	ret

0001531c <__adddf3>:
   1531c:	deffec04 	addi	sp,sp,-80
   15320:	d9001115 	stw	r4,68(sp)
   15324:	d9401215 	stw	r5,72(sp)
   15328:	d9001104 	addi	r4,sp,68
   1532c:	d9400a04 	addi	r5,sp,40
   15330:	dfc01315 	stw	ra,76(sp)
   15334:	d9c01015 	stw	r7,64(sp)
   15338:	d9800f15 	stw	r6,60(sp)
   1533c:	00163680 	call	16368 <__unpack_d>
   15340:	d9000f04 	addi	r4,sp,60
   15344:	d9400504 	addi	r5,sp,20
   15348:	00163680 	call	16368 <__unpack_d>
   1534c:	d9000a04 	addi	r4,sp,40
   15350:	d9400504 	addi	r5,sp,20
   15354:	d80d883a 	mov	r6,sp
   15358:	0014fc80 	call	14fc8 <_fpadd_parts>
   1535c:	1009883a 	mov	r4,r2
   15360:	00161440 	call	16144 <__pack_d>
   15364:	dfc01317 	ldw	ra,76(sp)
   15368:	dec01404 	addi	sp,sp,80
   1536c:	f800283a 	ret

00015370 <__subdf3>:
   15370:	deffec04 	addi	sp,sp,-80
   15374:	d9001115 	stw	r4,68(sp)
   15378:	d9401215 	stw	r5,72(sp)
   1537c:	d9001104 	addi	r4,sp,68
   15380:	d9400a04 	addi	r5,sp,40
   15384:	dfc01315 	stw	ra,76(sp)
   15388:	d9c01015 	stw	r7,64(sp)
   1538c:	d9800f15 	stw	r6,60(sp)
   15390:	00163680 	call	16368 <__unpack_d>
   15394:	d9000f04 	addi	r4,sp,60
   15398:	d9400504 	addi	r5,sp,20
   1539c:	00163680 	call	16368 <__unpack_d>
   153a0:	d8800617 	ldw	r2,24(sp)
   153a4:	d9000a04 	addi	r4,sp,40
   153a8:	d9400504 	addi	r5,sp,20
   153ac:	d80d883a 	mov	r6,sp
   153b0:	1080005c 	xori	r2,r2,1
   153b4:	d8800615 	stw	r2,24(sp)
   153b8:	0014fc80 	call	14fc8 <_fpadd_parts>
   153bc:	1009883a 	mov	r4,r2
   153c0:	00161440 	call	16144 <__pack_d>
   153c4:	dfc01317 	ldw	ra,76(sp)
   153c8:	dec01404 	addi	sp,sp,80
   153cc:	f800283a 	ret

000153d0 <__muldf3>:
   153d0:	deffe404 	addi	sp,sp,-112
   153d4:	d9001115 	stw	r4,68(sp)
   153d8:	d9401215 	stw	r5,72(sp)
   153dc:	d9001104 	addi	r4,sp,68
   153e0:	d9400a04 	addi	r5,sp,40
   153e4:	dfc01b15 	stw	ra,108(sp)
   153e8:	d9800f15 	stw	r6,60(sp)
   153ec:	d9c01015 	stw	r7,64(sp)
   153f0:	ddc01a15 	stw	r23,104(sp)
   153f4:	dd801915 	stw	r22,100(sp)
   153f8:	dd401815 	stw	r21,96(sp)
   153fc:	dd001715 	stw	r20,92(sp)
   15400:	dcc01615 	stw	r19,88(sp)
   15404:	dc801515 	stw	r18,84(sp)
   15408:	dc401415 	stw	r17,80(sp)
   1540c:	dc001315 	stw	r16,76(sp)
   15410:	00163680 	call	16368 <__unpack_d>
   15414:	d9000f04 	addi	r4,sp,60
   15418:	d9400504 	addi	r5,sp,20
   1541c:	00163680 	call	16368 <__unpack_d>
   15420:	d8c00a17 	ldw	r3,40(sp)
   15424:	00800044 	movi	r2,1
   15428:	10c01136 	bltu	r2,r3,15470 <__muldf3+0xa0>
   1542c:	d8c00b17 	ldw	r3,44(sp)
   15430:	d8800617 	ldw	r2,24(sp)
   15434:	d9000a04 	addi	r4,sp,40
   15438:	1884c03a 	cmpne	r2,r3,r2
   1543c:	d8800b15 	stw	r2,44(sp)
   15440:	00161440 	call	16144 <__pack_d>
   15444:	dfc01b17 	ldw	ra,108(sp)
   15448:	ddc01a17 	ldw	r23,104(sp)
   1544c:	dd801917 	ldw	r22,100(sp)
   15450:	dd401817 	ldw	r21,96(sp)
   15454:	dd001717 	ldw	r20,92(sp)
   15458:	dcc01617 	ldw	r19,88(sp)
   1545c:	dc801517 	ldw	r18,84(sp)
   15460:	dc401417 	ldw	r17,80(sp)
   15464:	dc001317 	ldw	r16,76(sp)
   15468:	dec01c04 	addi	sp,sp,112
   1546c:	f800283a 	ret
   15470:	d9000517 	ldw	r4,20(sp)
   15474:	11000636 	bltu	r2,r4,15490 <__muldf3+0xc0>
   15478:	d8800617 	ldw	r2,24(sp)
   1547c:	d8c00b17 	ldw	r3,44(sp)
   15480:	d9000504 	addi	r4,sp,20
   15484:	1884c03a 	cmpne	r2,r3,r2
   15488:	d8800615 	stw	r2,24(sp)
   1548c:	003fec06 	br	15440 <__muldf3+0x70>
   15490:	00800104 	movi	r2,4
   15494:	1880051e 	bne	r3,r2,154ac <__muldf3+0xdc>
   15498:	00800084 	movi	r2,2
   1549c:	20bfe31e 	bne	r4,r2,1542c <__muldf3+0x5c>
   154a0:	010000b4 	movhi	r4,2
   154a4:	2123ae04 	addi	r4,r4,-29000
   154a8:	003fe506 	br	15440 <__muldf3+0x70>
   154ac:	2080031e 	bne	r4,r2,154bc <__muldf3+0xec>
   154b0:	00800084 	movi	r2,2
   154b4:	18bffa26 	beq	r3,r2,154a0 <__muldf3+0xd0>
   154b8:	003fef06 	br	15478 <__muldf3+0xa8>
   154bc:	00800084 	movi	r2,2
   154c0:	18bfda26 	beq	r3,r2,1542c <__muldf3+0x5c>
   154c4:	20bfec26 	beq	r4,r2,15478 <__muldf3+0xa8>
   154c8:	dc000d17 	ldw	r16,52(sp)
   154cc:	dd000817 	ldw	r20,32(sp)
   154d0:	dc800917 	ldw	r18,36(sp)
   154d4:	8009883a 	mov	r4,r16
   154d8:	000b883a 	mov	r5,zero
   154dc:	a00d883a 	mov	r6,r20
   154e0:	000f883a 	mov	r7,zero
   154e4:	0015e180 	call	15e18 <__muldi3>
   154e8:	dc400e17 	ldw	r17,56(sp)
   154ec:	9009883a 	mov	r4,r18
   154f0:	800d883a 	mov	r6,r16
   154f4:	000b883a 	mov	r5,zero
   154f8:	000f883a 	mov	r7,zero
   154fc:	102f883a 	mov	r23,r2
   15500:	1827883a 	mov	r19,r3
   15504:	0015e180 	call	15e18 <__muldi3>
   15508:	900d883a 	mov	r6,r18
   1550c:	8809883a 	mov	r4,r17
   15510:	000b883a 	mov	r5,zero
   15514:	000f883a 	mov	r7,zero
   15518:	102b883a 	mov	r21,r2
   1551c:	1821883a 	mov	r16,r3
   15520:	0015e180 	call	15e18 <__muldi3>
   15524:	8809883a 	mov	r4,r17
   15528:	000b883a 	mov	r5,zero
   1552c:	a00d883a 	mov	r6,r20
   15530:	000f883a 	mov	r7,zero
   15534:	102d883a 	mov	r22,r2
   15538:	1825883a 	mov	r18,r3
   1553c:	0015e180 	call	15e18 <__muldi3>
   15540:	154b883a 	add	r5,r2,r21
   15544:	2889803a 	cmpltu	r4,r5,r2
   15548:	1c07883a 	add	r3,r3,r16
   1554c:	20c9883a 	add	r4,r4,r3
   15550:	24004b36 	bltu	r4,r16,15680 <__muldf3+0x2b0>
   15554:	8100011e 	bne	r16,r4,1555c <__muldf3+0x18c>
   15558:	2d404936 	bltu	r5,r21,15680 <__muldf3+0x2b0>
   1555c:	0011883a 	mov	r8,zero
   15560:	0007883a 	mov	r3,zero
   15564:	2ccb883a 	add	r5,r5,r19
   15568:	b80d883a 	mov	r6,r23
   1556c:	2cc0012e 	bgeu	r5,r19,15574 <__muldf3+0x1a4>
   15570:	02000044 	movi	r8,1
   15574:	258f883a 	add	r7,r4,r22
   15578:	3909803a 	cmpltu	r4,r7,r4
   1557c:	da400c17 	ldw	r9,48(sp)
   15580:	2489883a 	add	r4,r4,r18
   15584:	d8800717 	ldw	r2,28(sp)
   15588:	20c9883a 	add	r4,r4,r3
   1558c:	da800b17 	ldw	r10,44(sp)
   15590:	d8c00617 	ldw	r3,24(sp)
   15594:	3a11883a 	add	r8,r7,r8
   15598:	4885883a 	add	r2,r9,r2
   1559c:	50c6c03a 	cmpne	r3,r10,r3
   155a0:	41cf803a 	cmpltu	r7,r8,r7
   155a4:	12400104 	addi	r9,r2,4
   155a8:	d8c00115 	stw	r3,4(sp)
   155ac:	3909883a 	add	r4,r7,r4
   155b0:	da400215 	stw	r9,8(sp)
   155b4:	03480034 	movhi	r13,8192
   155b8:	6b7fffc4 	addi	r13,r13,-1
   155bc:	4007883a 	mov	r3,r8
   155c0:	6900102e 	bgeu	r13,r4,15604 <__muldf3+0x234>
   155c4:	10800144 	addi	r2,r2,5
   155c8:	180ed07a 	srli	r7,r3,1
   155cc:	18c0004c 	andi	r3,r3,1
   155d0:	201097fa 	slli	r8,r4,31
   155d4:	281697fa 	slli	r11,r5,31
   155d8:	2008d07a 	srli	r4,r4,1
   155dc:	3014d07a 	srli	r10,r6,1
   155e0:	2812d07a 	srli	r9,r5,1
   155e4:	1019883a 	mov	r12,r2
   155e8:	18000226 	beq	r3,zero,155f4 <__muldf3+0x224>
   155ec:	5a8cb03a 	or	r6,r11,r10
   155f0:	49600034 	orhi	r5,r9,32768
   155f4:	41c6b03a 	or	r3,r8,r7
   155f8:	10800044 	addi	r2,r2,1
   155fc:	693ff236 	bltu	r13,r4,155c8 <__muldf3+0x1f8>
   15600:	db000215 	stw	r12,8(sp)
   15604:	03440034 	movhi	r13,4096
   15608:	6b7fffc4 	addi	r13,r13,-1
   1560c:	69001336 	bltu	r13,r4,1565c <__muldf3+0x28c>
   15610:	d8800217 	ldw	r2,8(sp)
   15614:	10bfffc4 	addi	r2,r2,-1
   15618:	18d3883a 	add	r9,r3,r3
   1561c:	48c7803a 	cmpltu	r3,r9,r3
   15620:	2109883a 	add	r4,r4,r4
   15624:	190f883a 	add	r7,r3,r4
   15628:	3191883a 	add	r8,r6,r6
   1562c:	4197803a 	cmpltu	r11,r8,r6
   15630:	2955883a 	add	r10,r5,r5
   15634:	1019883a 	mov	r12,r2
   15638:	4807883a 	mov	r3,r9
   1563c:	3809883a 	mov	r4,r7
   15640:	2800010e 	bge	r5,zero,15648 <__muldf3+0x278>
   15644:	48c00054 	ori	r3,r9,1
   15648:	400d883a 	mov	r6,r8
   1564c:	5a8b883a 	add	r5,r11,r10
   15650:	10bfffc4 	addi	r2,r2,-1
   15654:	69fff02e 	bgeu	r13,r7,15618 <__muldf3+0x248>
   15658:	db000215 	stw	r12,8(sp)
   1565c:	18803fcc 	andi	r2,r3,255
   15660:	01c02004 	movi	r7,128
   15664:	11c00926 	beq	r2,r7,1568c <__muldf3+0x2bc>
   15668:	008000c4 	movi	r2,3
   1566c:	d9000415 	stw	r4,16(sp)
   15670:	d8c00315 	stw	r3,12(sp)
   15674:	d8800015 	stw	r2,0(sp)
   15678:	d809883a 	mov	r4,sp
   1567c:	003f7006 	br	15440 <__muldf3+0x70>
   15680:	0011883a 	mov	r8,zero
   15684:	00c00044 	movi	r3,1
   15688:	003fb606 	br	15564 <__muldf3+0x194>
   1568c:	19c0400c 	andi	r7,r3,256
   15690:	383ff51e 	bne	r7,zero,15668 <__muldf3+0x298>
   15694:	314ab03a 	or	r5,r6,r5
   15698:	283ff326 	beq	r5,zero,15668 <__muldf3+0x298>
   1569c:	1885883a 	add	r2,r3,r2
   156a0:	10cb803a 	cmpltu	r5,r2,r3
   156a4:	00ffc004 	movi	r3,-256
   156a8:	10c6703a 	and	r3,r2,r3
   156ac:	2909883a 	add	r4,r5,r4
   156b0:	003fed06 	br	15668 <__muldf3+0x298>

000156b4 <__divdf3>:
   156b4:	defff104 	addi	sp,sp,-60
   156b8:	d9000c15 	stw	r4,48(sp)
   156bc:	d9400d15 	stw	r5,52(sp)
   156c0:	d9000c04 	addi	r4,sp,48
   156c4:	d9400504 	addi	r5,sp,20
   156c8:	dfc00e15 	stw	ra,56(sp)
   156cc:	d9800a15 	stw	r6,40(sp)
   156d0:	d9c00b15 	stw	r7,44(sp)
   156d4:	00163680 	call	16368 <__unpack_d>
   156d8:	d9000a04 	addi	r4,sp,40
   156dc:	d80b883a 	mov	r5,sp
   156e0:	00163680 	call	16368 <__unpack_d>
   156e4:	d8c00517 	ldw	r3,20(sp)
   156e8:	00800044 	movi	r2,1
   156ec:	10c00536 	bltu	r2,r3,15704 <__divdf3+0x50>
   156f0:	d9000504 	addi	r4,sp,20
   156f4:	00161440 	call	16144 <__pack_d>
   156f8:	dfc00e17 	ldw	ra,56(sp)
   156fc:	dec00f04 	addi	sp,sp,60
   15700:	f800283a 	ret
   15704:	d9000017 	ldw	r4,0(sp)
   15708:	11000536 	bltu	r2,r4,15720 <__divdf3+0x6c>
   1570c:	d809883a 	mov	r4,sp
   15710:	00161440 	call	16144 <__pack_d>
   15714:	dfc00e17 	ldw	ra,56(sp)
   15718:	dec00f04 	addi	sp,sp,60
   1571c:	f800283a 	ret
   15720:	d9800617 	ldw	r6,24(sp)
   15724:	d9400117 	ldw	r5,4(sp)
   15728:	00800104 	movi	r2,4
   1572c:	314af03a 	xor	r5,r6,r5
   15730:	d9400615 	stw	r5,24(sp)
   15734:	18800226 	beq	r3,r2,15740 <__divdf3+0x8c>
   15738:	01400084 	movi	r5,2
   1573c:	1940041e 	bne	r3,r5,15750 <__divdf3+0x9c>
   15740:	193feb1e 	bne	r3,r4,156f0 <__divdf3+0x3c>
   15744:	010000b4 	movhi	r4,2
   15748:	2123ae04 	addi	r4,r4,-29000
   1574c:	003fe906 	br	156f4 <__divdf3+0x40>
   15750:	20803326 	beq	r4,r2,15820 <__divdf3+0x16c>
   15754:	21403726 	beq	r4,r5,15834 <__divdf3+0x180>
   15758:	d8800217 	ldw	r2,8(sp)
   1575c:	d9000717 	ldw	r4,28(sp)
   15760:	d8c00917 	ldw	r3,36(sp)
   15764:	da000417 	ldw	r8,16(sp)
   15768:	2089c83a 	sub	r4,r4,r2
   1576c:	d9000715 	stw	r4,28(sp)
   15770:	d8800817 	ldw	r2,32(sp)
   15774:	dbc00317 	ldw	r15,12(sp)
   15778:	1a000236 	bltu	r3,r8,15784 <__divdf3+0xd0>
   1577c:	40c0081e 	bne	r8,r3,157a0 <__divdf3+0xec>
   15780:	13c0072e 	bgeu	r2,r15,157a0 <__divdf3+0xec>
   15784:	108b883a 	add	r5,r2,r2
   15788:	288d803a 	cmpltu	r6,r5,r2
   1578c:	18c7883a 	add	r3,r3,r3
   15790:	213fffc4 	addi	r4,r4,-1
   15794:	2805883a 	mov	r2,r5
   15798:	30c7883a 	add	r3,r6,r3
   1579c:	d9000715 	stw	r4,28(sp)
   157a0:	01400f44 	movi	r5,61
   157a4:	000f883a 	mov	r7,zero
   157a8:	01040034 	movhi	r4,4096
   157ac:	0019883a 	mov	r12,zero
   157b0:	001b883a 	mov	r13,zero
   157b4:	201697fa 	slli	r11,r4,31
   157b8:	3814d07a 	srli	r10,r7,1
   157bc:	297fffc4 	addi	r5,r5,-1
   157c0:	1a000936 	bltu	r3,r8,157e8 <__divdf3+0x134>
   157c4:	13cdc83a 	sub	r6,r2,r15
   157c8:	1193803a 	cmpltu	r9,r2,r6
   157cc:	1a1dc83a 	sub	r14,r3,r8
