
unite.elf:     file format elf32-littlenios2
unite.elf
architecture: nios2:r1, flags 0x00000112:
EXEC_P, HAS_SYMS, D_PAGED
start address 0x000101c0

Program Header:
    LOAD off    0x00001020 vaddr 0x00010020 paddr 0x00010020 align 2**12
         filesz 0x0000ba68 memsz 0x0000ba68 flags r-x
    LOAD off    0x0000ca88 vaddr 0x0001ba88 paddr 0x0001c090 align 2**12
         filesz 0x00000608 memsz 0x00000608 flags rw-
    LOAD off    0x0000d698 vaddr 0x0001c698 paddr 0x0001c698 align 2**12
         filesz 0x00000000 memsz 0x000002e0 flags rw-
    LOAD off    0x0000e000 vaddr 0x00021000 paddr 0x00021000 align 2**12
         filesz 0x00000020 memsz 0x00000020 flags r-x

Sections:
Idx Name          Size      VMA       LMA       File off  Algn
  0 .entry        00000020  00021000  00021000  0000e000  2**5
                  CONTENTS, ALLOC, LOAD, READONLY, CODE
  1 .exceptions   000001a0  00010020  00010020  00001020  2**2
                  CONTENTS, ALLOC, LOAD, READONLY, CODE
  2 .text         0000b180  000101c0  000101c0  000011c0  2**2
                  CONTENTS, ALLOC, LOAD, READONLY, CODE
  3 .rodata       00000748  0001b340  0001b340  0000c340  2**2
                  CONTENTS, ALLOC, LOAD, READONLY, DATA
  4 .rwdata       00000608  0001ba88  0001c090  0000ca88  2**2
                  CONTENTS, ALLOC, LOAD, DATA, SMALL_DATA
  5 .bss          000002e0  0001c698  0001c698  0000d698  2**2
                  ALLOC, SMALL_DATA
  6 .RAM          00000000  0001c978  0001c978  0000e020  2**0
                  CONTENTS
  7 .EPCS         00000000  00021020  00021020  0000e020  2**0
                  CONTENTS
  8 .comment      00000023  00000000  00000000  0000e020  2**0
                  CONTENTS, READONLY
  9 .debug_aranges 00000c98  00000000  00000000  0000e048  2**3
                  CONTENTS, READONLY, DEBUGGING
 10 .debug_info   00011647  00000000  00000000  0000ece0  2**0
                  CONTENTS, READONLY, DEBUGGING
 11 .debug_abbrev 0000629e  00000000  00000000  00020327  2**0
                  CONTENTS, READONLY, DEBUGGING
 12 .debug_line   00007c50  00000000  00000000  000265c5  2**0
                  CONTENTS, READONLY, DEBUGGING
 13 .debug_frame  00001bd0  00000000  00000000  0002e218  2**2
                  CONTENTS, READONLY, DEBUGGING
 14 .debug_str    00002f3d  00000000  00000000  0002fde8  2**0
                  CONTENTS, READONLY, DEBUGGING
 15 .debug_loc    0000d923  00000000  00000000  00032d25  2**0
                  CONTENTS, READONLY, DEBUGGING
 16 .debug_alt_sim_info 00000020  00000000  00000000  00040648  2**2
                  CONTENTS, READONLY, DEBUGGING
 17 .debug_ranges 000012e8  00000000  00000000  00040668  2**3
                  CONTENTS, READONLY, DEBUGGING
 18 .thread_model 00000003  00000000  00000000  0004448a  2**0
                  CONTENTS, READONLY
 19 .cpu          00000003  00000000  00000000  0004448d  2**0
                  CONTENTS, READONLY
 20 .qsys         00000001  00000000  00000000  00044490  2**0
                  CONTENTS, READONLY
 21 .simulation_enabled 00000001  00000000  00000000  00044491  2**0
                  CONTENTS, READONLY
 22 .sysid_hash   00000004  00000000  00000000  00044492  2**0
                  CONTENTS, READONLY
 23 .sysid_base   00000004  00000000  00000000  00044496  2**0
                  CONTENTS, READONLY
 24 .sysid_time   00000004  00000000  00000000  0004449a  2**0
                  CONTENTS, READONLY
 25 .stderr_dev   00000009  00000000  00000000  0004449e  2**0
                  CONTENTS, READONLY
 26 .stdin_dev    00000009  00000000  00000000  000444a7  2**0
                  CONTENTS, READONLY
 27 .stdout_dev   00000009  00000000  00000000  000444b0  2**0
                  CONTENTS, READONLY
 28 .sopc_system_name 0000000b  00000000  00000000  000444b9  2**0
                  CONTENTS, READONLY
 29 .quartus_project_dir 00000015  00000000  00000000  000444c4  2**0
                  CONTENTS, READONLY
 30 .jdi          00003970  00000000  00000000  000444d9  2**0
                  CONTENTS, READONLY
 31 .sopcinfo     0007c282  00000000  00000000  00047e49  2**0
                  CONTENTS, READONLY
SYMBOL TABLE:
00021000 l    d  .entry	00000000 .entry
00010020 l    d  .exceptions	00000000 .exceptions
000101c0 l    d  .text	00000000 .text
0001b340 l    d  .rodata	00000000 .rodata
0001ba88 l    d  .rwdata	00000000 .rwdata
0001c698 l    d  .bss	00000000 .bss
0001c978 l    d  .RAM	00000000 .RAM
00021020 l    d  .EPCS	00000000 .EPCS
00000000 l    d  .comment	00000000 .comment
00000000 l    d  .debug_aranges	00000000 .debug_aranges
00000000 l    d  .debug_info	00000000 .debug_info
00000000 l    d  .debug_abbrev	00000000 .debug_abbrev
00000000 l    d  .debug_line	00000000 .debug_line
00000000 l    d  .debug_frame	00000000 .debug_frame
00000000 l    d  .debug_str	00000000 .debug_str
00000000 l    d  .debug_loc	00000000 .debug_loc
00000000 l    d  .debug_alt_sim_info	00000000 .debug_alt_sim_info
00000000 l    d  .debug_ranges	00000000 .debug_ranges
00000000 l    df *ABS*	00000000 ../unite_bsp//obj/HAL/src/crt0.o
000101f8 l       .text	00000000 alt_after_alt_main
00000000 l    df *ABS*	00000000 alt_exception_entry.o
00010094 l       .exceptions	00000000 alt_exception_unknown
00000000 l    df *ABS*	00000000 alt_irq_handler.c
00000000 l    df *ABS*	00000000 ad.c
00000000 l    df *ABS*	00000000 ad9833.c
000105e0 l     F .text	0000003c AD9833_Delay
00000000 l    df *ABS*	00000000 fft.c
00000000 l    df *ABS*	00000000 hello_world.c
0001b44c l     O .rodata	0000000a __FUNCTION__.4087
0001c060 l     O .rwdata	00000005 __FUNCTION__.4111
00000000 l    df *ABS*	00000000 log.c
00000000 l    df *ABS*	00000000 message.c
00000000 l    df *ABS*	00000000 uart.c
00012118 l     F .text	00000058 uart_send_byte
00012170 l     F .text	00000060 uart_send_string
000121d0 l     F .text	0000006c uart_init
00012598 l     F .text	00000090 set_baudrate
0001223c l     F .text	00000070 uart_input_init
00012628 l     F .text	00000090 set_baudrate_input
000122ac l     F .text	00000070 uart_output_init
000126b8 l     F .text	00000090 set_baudrate_output
0001231c l     F .text	00000094 uart_ISR
000123b0 l     F .text	000000f4 uart_input_ISR
000124a4 l     F .text	000000f4 uart_output_ISR
00000000 l    df *ABS*	00000000 s_cos.c
00000000 l    df *ABS*	00000000 s_sin.c
00000000 l    df *ABS*	00000000 e_rem_pio2.c
0001b54c l     O .rodata	00000108 two_over_pi
0001b4cc l     O .rodata	00000080 npio2_hw
00000000 l    df *ABS*	00000000 k_cos.c
00000000 l    df *ABS*	00000000 k_rem_pio2.c
0001b694 l     O .rodata	00000010 init_jk
0001b654 l     O .rodata	00000040 PIo2
00000000 l    df *ABS*	00000000 k_sin.c
00000000 l    df *ABS*	00000000 s_fabs.c
00000000 l    df *ABS*	00000000 s_floor.c
00000000 l    df *ABS*	00000000 s_scalbn.c
00000000 l    df *ABS*	00000000 s_copysign.c
00000000 l    df *ABS*	00000000 libgcc2.c
00000000 l    df *ABS*	00000000 lib2-divmod.c
00000000 l    df *ABS*	00000000 addsf3.c
00000000 l    df *ABS*	00000000 divsf3.c
00000000 l    df *ABS*	00000000 mulsf3.c
00000000 l    df *ABS*	00000000 subsf3.c
00000000 l    df *ABS*	00000000 fixsfsi.c
00000000 l    df *ABS*	00000000 floatsisf.c
00000000 l    df *ABS*	00000000 adddf3.c
00000000 l    df *ABS*	00000000 divdf3.c
00000000 l    df *ABS*	00000000 eqdf2.c
00000000 l    df *ABS*	00000000 gedf2.c
00000000 l    df *ABS*	00000000 muldf3.c
00000000 l    df *ABS*	00000000 subdf3.c
00000000 l    df *ABS*	00000000 fixdfsi.c
00000000 l    df *ABS*	00000000 floatsidf.c
00000000 l    df *ABS*	00000000 floatunsidf.c
00000000 l    df *ABS*	00000000 extendsfdf2.c
00000000 l    df *ABS*	00000000 truncdfsf2.c
00000000 l    df *ABS*	00000000 libgcc2.c
00000000 l    df *ABS*	00000000 libgcc2.c
00000000 l    df *ABS*	00000000 atoi.c
00000000 l    df *ABS*	00000000 exit.c
00000000 l    df *ABS*	00000000 memcpy.c
00000000 l    df *ABS*	00000000 memset.c
00000000 l    df *ABS*	00000000 printf.c
00000000 l    df *ABS*	00000000 putchar.c
00000000 l    df *ABS*	00000000 puts.c
00000000 l    df *ABS*	00000000 sprintf.c
00000000 l    df *ABS*	00000000 strchr.c
00000000 l    df *ABS*	00000000 strlen.c
00000000 l    df *ABS*	00000000 strstr.c
00000000 l    df *ABS*	00000000 strtol.c
00000000 l    df *ABS*	00000000 vfprintf.c
00018c8c l     F .text	0000006c print_repeat
00000000 l    df *ABS*	00000000 vfprintf.c
00019238 l     F .text	0000006c print_repeat
00000000 l    df *ABS*	00000000 __call_atexit.c
00000000 l    df *ABS*	00000000 ctype_.c
0001b8a9 l     O .rodata	00000180 _ctype_b
00000000 l    df *ABS*	00000000 fvwrite_small_dev.c
00000000 l    df *ABS*	00000000 fvwrite_small_str.c
00000000 l    df *ABS*	00000000 impure.c
0001bd28 l     O .rwdata	000000e0 impure_data
00000000 l    df *ABS*	00000000 memmove.c
00000000 l    df *ABS*	00000000 putc.c
00000000 l    df *ABS*	00000000 writer.c
00000000 l    df *ABS*	00000000 int_errno.c
00000000 l    df *ABS*	00000000 alt_exit.c
00000000 l    df *ABS*	00000000 alt_iic.c
00000000 l    df *ABS*	00000000 alt_iic_isr_register.c
00000000 l    df *ABS*	00000000 alt_irq_vars.c
00000000 l    df *ABS*	00000000 alt_load.c
00019f0c l     F .text	00000068 alt_load_section
00000000 l    df *ABS*	00000000 alt_main.c
00000000 l    df *ABS*	00000000 alt_write.c
0001a074 l     F .text	0000003c alt_get_errno
00000000 l    df *ABS*	00000000 alt_sys_init.c
0001a1a8 l     F .text	00000034 alt_dev_reg
0001be08 l     O .rwdata	0000002c JTAG_UART
0001be34 l     O .rwdata	0000002c UART
0001be60 l     O .rwdata	0000002c uart_input
0001be8c l     O .rwdata	0000002c uart_output
00000000 l    df *ABS*	00000000 altera_avalon_jtag_uart_fd.c
00000000 l    df *ABS*	00000000 altera_avalon_jtag_uart_read.c
00000000 l    df *ABS*	00000000 altera_avalon_jtag_uart_write.c
00000000 l    df *ABS*	00000000 altera_avalon_uart_fd.c
00000000 l    df *ABS*	00000000 altera_avalon_uart_read.c
0001a574 l     F .text	0000003c alt_get_errno
00000000 l    df *ABS*	00000000 altera_avalon_uart_write.c
0001a674 l     F .text	0000003c alt_get_errno
00000000 l    df *ABS*	00000000 alt_close.c
0001a790 l     F .text	0000003c alt_get_errno
00000000 l    df *ABS*	00000000 alt_dcache_flush_all.c
00000000 l    df *ABS*	00000000 alt_dev.c
0001a8bc l     F .text	0000002c alt_dev_null_write
00000000 l    df *ABS*	00000000 alt_dev_llist_insert.c
0001a8e8 l     F .text	0000003c alt_get_errno
00000000 l    df *ABS*	00000000 alt_do_ctors.c
00000000 l    df *ABS*	00000000 alt_do_dtors.c
00000000 l    df *ABS*	00000000 alt_errno.c
00000000 l    df *ABS*	00000000 alt_icache_flush_all.c
00000000 l    df *ABS*	00000000 alt_io_redirect.c
0001aabc l     F .text	000000c4 alt_open_fd
00000000 l    df *ABS*	00000000 alt_open.c
0001abfc l     F .text	0000003c alt_get_errno
0001ac38 l     F .text	000000c4 alt_file_locked
00000000 l    df *ABS*	00000000 alt_release_fd.c
00000000 l    df *ABS*	00000000 altera_nios2_qsys_irq.c
00000000 l    df *ABS*	00000000 alt_find_dev.c
00000000 l    df *ABS*	00000000 alt_find_file.c
00000000 l    df *ABS*	00000000 alt_get_fd.c
00000000 l    df *ABS*	00000000 alt_icache_flush.c
00000000 l    df *ABS*	00000000 atexit.c
00000000 l    df *ABS*	00000000 memcmp.c
00000000 l    df *ABS*	00000000 __atexit.c
00018828 g     F .text	0000001c putchar
0001061c g     F .text	00000158 AD9833_Write
00019ff8 g     F .text	0000007c alt_main
00018844 g     F .text	00000080 _puts_r
0001c878 g     O .bss	00000100 alt_irq
00014590 g     F .text	00000014 fabs
0001c090 g       *ABS*	00000000 __flash_rwdata_start
00017080 g     F .text	00000088 .hidden __eqdf2
000187d4 g     F .text	0000004c printf
0001c7dc g     O .bss	00000018 Result
00010320 g     F .text	00000150 ReadAdRes
00015038 g     F .text	00000440 .hidden __divsf3
00019ad4 g     F .text	00000060 memmove
00015d58 g     F .text	00000070 .hidden __fixsfsi
00017108 g     F .text	000000dc .hidden __gtdf2
0001c7c8 g     O .bss	00000014 ReceiveMessage
00019a2c g     F .text	000000a8 __sfvwrite_small_str
00021000 g     F .entry	0000001c __reset
0001c7b0 g     O .bss	00000018 FInfo
00010020 g       *ABS*	00000000 __flash_exceptions_start
0001c69c g     O .bss	00000004 errno
000145a4 g     F .text	000001ec floor
0001c6a8 g     O .bss	00000004 alt_argv
00024060 g       *ABS*	00000000 _gp
00015874 g     F .text	000004e4 .hidden __subsf3
0001c730 g     O .bss	00000080 output
0001bee0 g     O .rwdata	00000180 alt_fd_list
00012924 g     F .text	0000076c __ieee754_rem_pio2
00018820 g     F .text	00000008 _putchar_r
0001bc48 g     O .rwdata	000000e0 uart_output
0001aed8 g     F .text	00000090 alt_find_dev
00018750 g     F .text	00000028 memcpy
000105b0 g     F .text	00000030 AD9833_Init_GPIO
00018278 g     F .text	000000dc .hidden __floatsidf
0001ab80 g     F .text	0000007c alt_io_redirect
0001b340 g       *ABS*	00000000 __DTOR_END__
000188c4 g     F .text	00000014 puts
0001a334 g     F .text	000000ec altera_avalon_jtag_uart_read
00018798 g     F .text	0000003c _printf_r
00014ab4 g     F .text	00000064 .hidden __udivsi3
00013090 g     F .text	000004a4 __kernel_cos
00014948 g     F .text	00000074 .hidden __fixunsdfsi
0001b114 g     F .text	00000090 alt_icache_flush
0001c6b0 g     O .bss	00000080 input
0001c088 g     O .rwdata	00000004 alt_max_fd
00011be8 g     F .text	0000029c log_hex
000142c4 g     F .text	000002cc __kernel_sin
000183fc g     F .text	00000110 .hidden __extendsfdf2
00015eec g     F .text	000008ac .hidden __adddf3
000111bc g     F .text	00000028 getBeginMessge
0001c06c g     O .rwdata	00000004 _global_impure_ptr
0001c978 g       *ABS*	00000000 __bss_end
00019e1c g     F .text	000000f0 alt_iic_isr_register
00018354 g     F .text	000000a8 .hidden __floatunsidf
00010e6c g     F .text	00000350 FFT
00019dd0 g     F .text	0000004c alt_ic_irq_enabled
00018c70 g     F .text	0000001c strtol
0001c6a0 g     O .bss	00000004 alt_irq_active
00010c98 g     F .text	000001d4 FFT_remap
000100ec g     F .exceptions	000000d4 alt_irq_handler
0001beb8 g     O .rwdata	00000028 alt_dev_null
000109c4 g     F .text	0000008c Sub_Complex
00013534 g     F .text	00000d90 __kernel_rem_pio2
0001a89c g     F .text	00000020 alt_dcache_flush_all
000181f8 g     F .text	00000080 .hidden __fixdfsi
0001c090 g       *ABS*	00000000 __ram_rwdata_end
0001c080 g     O .rwdata	00000008 alt_dev_list
0001a0b0 g     F .text	000000f8 write
00019b88 g     F .text	00000058 _putc_r
0001ba88 g       *ABS*	00000000 __ram_rodata_end
000111e4 g     F .text	000002d4 setDDSFre
00014b18 g     F .text	00000058 .hidden __umodsi3
0001c978 g       *ABS*	00000000 end
00018724 g     F .text	0000000c _atoi_r
0001a6b0 g     F .text	000000e0 altera_avalon_uart_write
0001b340 g       *ABS*	00000000 __CTOR_LIST__
0001cf08 g       *ABS*	00000000 __alt_stack_pointer
0001a514 g     F .text	00000060 altera_avalon_uart_write_fd
000186b4 g     F .text	00000064 .hidden __clzsi2
00010470 g     F .text	00000140 computeAd
0001a420 g     F .text	00000094 altera_avalon_jtag_uart_write
00012748 g     F .text	000000ec cos
000192a4 g     F .text	00000524 ___vfprintf_internal_r
000188d8 g     F .text	00000064 _sprintf_r
000197e4 g     F .text	00000190 __call_exitprocs
000114b8 g     F .text	00000028 testIsOver
000101c0 g     F .text	0000003c _start
00018a00 g     F .text	00000060 strstr
00012834 g     F .text	000000f0 sin
0001a214 g     F .text	00000060 alt_sys_init
00015dc8 g     F .text	00000124 .hidden __floatsisf
0001b1e8 g     F .text	00000158 __register_exitproc
00011e84 g     F .text	00000054 getStartMessge
0001ba88 g       *ABS*	00000000 __ram_rwdata_start
0001b340 g       *ABS*	00000000 __ram_rodata_start
0001a274 g     F .text	00000060 altera_avalon_jtag_uart_read_fd
0001b070 g     F .text	000000a4 alt_get_fd
0001b1b8 g     F .text	00000030 memcmp
0001c978 g       *ABS*	00000000 __alt_stack_base
000117fc g     F .text	00000064 init
00016798 g     F .text	000008e8 .hidden __divdf3
00011ed8 g     F .text	00000240 parseMessage
000171e4 g     F .text	00000718 .hidden __muldf3
0001af68 g     F .text	00000108 alt_find_file
00021000 g       *ABS*	00000000 __alt_mem_EPCS
0001a924 g     F .text	000000a4 alt_dev_llist_insert
00018cf8 g     F .text	00000524 ___svfprintf_internal_r
000101fc g     F .text	00000124 parseAdData
00019974 g     F .text	000000b8 __sfvwrite_small_dev
0001c698 g       *ABS*	00000000 __bss_start
00018778 g     F .text	00000020 memset
00011940 g     F .text	00000268 main
00010000 g       *ABS*	00000000 __alt_mem_RAM
0001c6ac g     O .bss	00000004 alt_envp
0001a2d4 g     F .text	00000060 altera_avalon_jtag_uart_write_fd
00018a60 g     F .text	00000210 _strtol_r
0001850c g     F .text	000001a8 .hidden __truncdfsf2
0001c08c g     O .rwdata	00000004 alt_errno
00019b34 g     F .text	00000054 putc
000149bc g     F .text	00000084 .hidden __divsi3
0001b340 g       *ABS*	00000000 __CTOR_END__
00015478 g     F .text	000003fc .hidden __mulsf3
0001b340 g       *ABS*	00000000 __flash_rodata_start
0001b340 g       *ABS*	00000000 __DTOR_LIST__
0001492c g     F .text	0000001c copysign
00011ba8 g     F .text	00000040 delay
00010a50 g     F .text	00000104 Multy_Complex
00017080 g     F .text	00000088 .hidden __nedf2
0001a1dc g     F .text	00000038 alt_irq_init
0001ae50 g     F .text	00000064 alt_release_fd
0001893c g     F .text	00000078 sprintf
0001b6a4 g     O .rodata	00000100 .hidden __clz_tab
0001b1a4 g     F .text	00000014 atexit
00019be0 g     F .text	00000058 _write_r
0001c070 g     O .rwdata	00000004 _impure_ptr
0001c6a4 g     O .bss	00000004 alt_argc
00010b54 g     F .text	00000144 getWN
00014790 g     F .text	0000019c scalbn
0001aa28 g     F .text	00000060 _do_dtors
00010020 g       .exceptions	00000000 alt_irq_entry
0001bb68 g     O .rwdata	000000e0 uart_input
0001c078 g     O .rwdata	00000008 alt_fs_list
0001921c g     F .text	0000001c __vfprintf_internal_unused
00011608 g     F .text	000001ac sendMessage
00011860 g     F .text	00000030 show
0001c7f4 g     O .bss	00000041 outputData
00010020 g       *ABS*	00000000 __ram_exceptions_start
00011890 g     F .text	000000b0 msg_proc
00019c6c g     F .text	00000050 alt_ic_isr_register
00010938 g     F .text	0000008c Add_Complex
0001c090 g       *ABS*	00000000 _edata
0001a4b4 g     F .text	00000060 altera_avalon_uart_read_fd
0001c978 g       *ABS*	00000000 _end
000101c0 g       *ABS*	00000000 __ram_exceptions_end
00019d44 g     F .text	0000008c alt_ic_irq_disable
0001aeb4 g     F .text	00000024 altera_nios2_qsys_irq_init
000117b4 g     F .text	00000048 sampleIsReady
00018730 g     F .text	00000020 exit
00014a40 g     F .text	00000074 .hidden __modsi3
0001c068 g     O .rwdata	00000004 __ctype_ptr__
0001cf08 g       *ABS*	00000000 __alt_data_end
00010020 g     F .exceptions	00000000 alt_exception
0001ba88 g     O .rwdata	000000e0 uart
00018718 g     F .text	0000000c atoi
0001b7a8 g     O .rodata	00000101 _ctype_
00019c38 g     F .text	00000034 _exit
000189e4 g     F .text	0000001c strlen
0001acfc g     F .text	00000154 open
00017108 g     F .text	000000dc .hidden __gedf2
000114e0 g     F .text	00000128 beginFFT
0001aa88 g     F .text	00000034 alt_icache_flush_all
000189b4 g     F .text	00000030 strchr
0001c074 g     O .rwdata	00000004 alt_priority_mask
00019cbc g     F .text	00000088 alt_ic_irq_enable
00010774 g     F .text	000001c4 AD9833_WaveSeting
000197c8 g     F .text	0000001c __vfprintf_internal
0001a5b0 g     F .text	000000c4 altera_avalon_uart_read
000178fc g     F .text	000008fc .hidden __subdf3
0001a9c8 g     F .text	00000060 _do_ctors
0001c835 g     O .bss	00000041 inputData
0001a7cc g     F .text	000000d0 close
00014b70 g     F .text	000004c8 .hidden __addsf3
00019f74 g     F .text	00000084 alt_load
0001c698 g     O .bss	00000004 value



Disassembly of section .entry:

00021000 <__reset>:
#if NIOS2_ICACHE_SIZE > 0 && defined(ALT_ALLOW_CODE_AT_RESET) && !defined(ALT_SIM_OPTIMIZE)
    /* Assume the instruction cache size is always a power of two. */
#if NIOS2_ICACHE_SIZE > 0x8000
    movhi r2, %hi(NIOS2_ICACHE_SIZE)
#else
    movui r2, NIOS2_ICACHE_SIZE
   21000:	00840014 	movui	r2,4096
#endif

0:
    initi r2
   21004:	1001483a 	initi	r2
    addi r2, r2, -NIOS2_ICACHE_LINE_SIZE
   21008:	10bff804 	addi	r2,r2,-32
    bgt r2, zero, 0b
   2100c:	00bffd16 	blt	zero,r2,21004 <_gp+0xffffcfa4>
 * Jump to the _start entry point in the .text section if reset code
 * is allowed or if optimizing for RTL simulation.
 */
#if defined(ALT_ALLOW_CODE_AT_RESET) || defined(ALT_SIM_OPTIMIZE)
    /* Jump to the _start entry point in the .text section. */
    movhi r1, %hi(_start)
   21010:	00400074 	movhi	at,1
    ori r1, r1, %lo(_start)
   21014:	08407014 	ori	at,at,448
    jmp r1
   21018:	0800683a 	jmp	at
   2101c:	00000000 	call	0 <__alt_mem_RAM-0x10000>

Disassembly of section .exceptions:

00010020 <alt_exception>:

#else /* ALT_EXCEPTION_STACK disabled */
        /* 
         * Reserve space on normal stack for registers about to be pushed.
         */
        addi  sp, sp, -76
   10020:	deffed04 	addi	sp,sp,-76
         * documentation for details).
         *
         * Leave a gap in the stack frame at 4(sp) for the muldiv handler to
         * store zero into.
         */
        stw   ra,  0(sp)
   10024:	dfc00015 	stw	ra,0(sp)
        stw   r1,   8(sp)
   10028:	d8400215 	stw	at,8(sp)
        stw   r2,  12(sp)
   1002c:	d8800315 	stw	r2,12(sp)
        stw   r3,  16(sp)
   10030:	d8c00415 	stw	r3,16(sp)
        stw   r4,  20(sp)
   10034:	d9000515 	stw	r4,20(sp)
        stw   r5,  24(sp)
   10038:	d9400615 	stw	r5,24(sp)
        stw   r6,  28(sp)
   1003c:	d9800715 	stw	r6,28(sp)
        stw   r7,  32(sp)
   10040:	d9c00815 	stw	r7,32(sp)
        rdctl r5, estatus   /* Read early to avoid usage stall */
   10044:	000b307a 	rdctl	r5,estatus
        stw   r8,  36(sp)
   10048:	da000915 	stw	r8,36(sp)
        stw   r9,  40(sp)
   1004c:	da400a15 	stw	r9,40(sp)
        stw   r10, 44(sp)
   10050:	da800b15 	stw	r10,44(sp)
        stw   r11, 48(sp)
   10054:	dac00c15 	stw	r11,48(sp)
        stw   r12, 52(sp)
   10058:	db000d15 	stw	r12,52(sp)
        stw   r13, 56(sp)
   1005c:	db400e15 	stw	r13,56(sp)
        stw   r14, 60(sp)
   10060:	db800f15 	stw	r14,60(sp)
        stw   r15, 64(sp)
   10064:	dbc01015 	stw	r15,64(sp)
        /*
         * ea-4 contains the address of the instruction being executed
         * when the exception occured. For interrupt exceptions, we will
         * will be re-issue the isntruction. Store it in 72(sp)
         */
        stw   r5,  68(sp)  /* estatus */
   10068:	d9401115 	stw	r5,68(sp)
        addi  r15, ea, -4  /* instruction that caused exception */
   1006c:	ebffff04 	addi	r15,ea,-4
        stw   r15,  72(sp)
   10070:	dbc01215 	stw	r15,72(sp)
#else
        /*
         * Test to see if the exception was a software exception or caused 
         * by an external interrupt, and vector accordingly.
         */
        rdctl r4, ipending
   10074:	0009313a 	rdctl	r4,ipending
        andi  r2, r5, 1
   10078:	2880004c 	andi	r2,r5,1
        beq   r2, zero, .Lnot_irq
   1007c:	10000326 	beq	r2,zero,1008c <alt_exception+0x6c>
        beq   r4, zero, .Lnot_irq
   10080:	20000226 	beq	r4,zero,1008c <alt_exception+0x6c>
        /*
         * Now that all necessary registers have been preserved, call 
         * alt_irq_handler() to process the interrupts.
         */

        call alt_irq_handler
   10084:	00100ec0 	call	100ec <alt_irq_handler>

        .section .exceptions.irqreturn, "xa"

        br    .Lexception_exit
   10088:	00000306 	br	10098 <alt_exception_unknown+0x4>
         * upon completion, so we write ea (address of instruction *after*
         * the one where the exception occured) into 72(sp). The actual
         * instruction that caused the exception is written in r2, which these
         * handlers will utilize.
         */
        stw   ea,  72(sp)  /* Don't re-issue */
   1008c:	df401215 	stw	ea,72(sp)
        ldw   r2, -4(ea)   /* Instruction that caused exception */
   10090:	e8bfff17 	ldw	r2,-4(ea)

00010094 <alt_exception_unknown>:
#ifdef NIOS2_HAS_DEBUG_STUB
       /*
        *  Either tell the user now (if there is a debugger attached) or go into
        *  the debug monitor which will loop until a debugger is attached.
        */
        break
   10094:	003da03a 	break	0
        /* 
         * Restore the saved registers, so that all general purpose registers 
         * have been restored to their state at the time the interrupt occured.
         */

        ldw   r5,  68(sp)
   10098:	d9401117 	ldw	r5,68(sp)
        ldw   ea,  72(sp)  /* This becomes the PC once eret is executed */
   1009c:	df401217 	ldw	ea,72(sp)
        ldw   ra,   0(sp)
   100a0:	dfc00017 	ldw	ra,0(sp)

        wrctl estatus, r5
   100a4:	2801707a 	wrctl	estatus,r5

        ldw   r1,   8(sp)
   100a8:	d8400217 	ldw	at,8(sp)
        ldw   r2,  12(sp)
   100ac:	d8800317 	ldw	r2,12(sp)
        ldw   r3,  16(sp)
   100b0:	d8c00417 	ldw	r3,16(sp)
        ldw   r4,  20(sp)
   100b4:	d9000517 	ldw	r4,20(sp)
        ldw   r5,  24(sp)
   100b8:	d9400617 	ldw	r5,24(sp)
        ldw   r6,  28(sp)
   100bc:	d9800717 	ldw	r6,28(sp)
        ldw   r7,  32(sp)
   100c0:	d9c00817 	ldw	r7,32(sp)

#if defined(ALT_EXCEPTION_STACK) && defined(ALT_STACK_CHECK)
        ldw   et, %gprel(alt_exception_old_stack_limit)(gp)
#endif

        ldw   r8,  36(sp)
   100c4:	da000917 	ldw	r8,36(sp)
        ldw   r9,  40(sp)
   100c8:	da400a17 	ldw	r9,40(sp)
        ldw   r10, 44(sp)
   100cc:	da800b17 	ldw	r10,44(sp)
        ldw   r11, 48(sp)
   100d0:	dac00c17 	ldw	r11,48(sp)
        ldw   r12, 52(sp)
   100d4:	db000d17 	ldw	r12,52(sp)
        ldw   r13, 56(sp)
   100d8:	db400e17 	ldw	r13,56(sp)
        ldw   r14, 60(sp)
   100dc:	db800f17 	ldw	r14,60(sp)
        ldw   r15, 64(sp)
   100e0:	dbc01017 	ldw	r15,64(sp)
        stw   et, %gprel(alt_stack_limit_value)(gp)
        stw   zero, %gprel(alt_exception_old_stack_limit)(gp)
#endif /* ALT_STACK_CHECK */
        ldw   sp,  76(sp)
#else /* ALT_EXCEPTION_STACK disabled */
        addi  sp, sp, 76
   100e4:	dec01304 	addi	sp,sp,76

        /*
         * Return to the interrupted instruction.
         */

        eret
   100e8:	ef80083a 	eret

000100ec <alt_irq_handler>:
 * instruction is present if the macro ALT_CI_INTERRUPT_VECTOR defined.
 */

void alt_irq_handler (void) __attribute__ ((section (".exceptions")));
void alt_irq_handler (void)
{
   100ec:	defff904 	addi	sp,sp,-28
   100f0:	dfc00615 	stw	ra,24(sp)
   100f4:	df000515 	stw	fp,20(sp)
   100f8:	df000504 	addi	fp,sp,20
  
  /*
   * Notify the operating system that we are at interrupt level.
   */ 
  
  ALT_OS_INT_ENTER();
   100fc:	0001883a 	nop
#ifndef NIOS2_EIC_PRESENT
static ALT_INLINE alt_u32 ALT_ALWAYS_INLINE alt_irq_pending (void)
{
  alt_u32 active;

  NIOS2_READ_IPENDING (active);
   10100:	0005313a 	rdctl	r2,ipending
   10104:	e0bffe15 	stw	r2,-8(fp)

  return active;
   10108:	e0bffe17 	ldw	r2,-8(fp)
   * Consider the case where the high priority interupt is asserted during
   * the interrupt entry sequence for a lower priority interrupt to see why
   * this is the case.
   */

  active = alt_irq_pending ();
   1010c:	e0bffb15 	stw	r2,-20(fp)

  do
  {
    i = 0;
   10110:	e03ffd15 	stw	zero,-12(fp)
    mask = 1;
   10114:	00800044 	movi	r2,1
   10118:	e0bffc15 	stw	r2,-16(fp)
     * called to clear the interrupt condition.
     */

    do
    {
      if (active & mask)
   1011c:	e0fffb17 	ldw	r3,-20(fp)
   10120:	e0bffc17 	ldw	r2,-16(fp)
   10124:	1884703a 	and	r2,r3,r2
   10128:	10001426 	beq	r2,zero,1017c <alt_irq_handler+0x90>
      { 
#ifdef ALT_ENHANCED_INTERRUPT_API_PRESENT
        alt_irq[i].handler(alt_irq[i].context); 
   1012c:	008000b4 	movhi	r2,2
   10130:	10b21e04 	addi	r2,r2,-14216
   10134:	e0fffd17 	ldw	r3,-12(fp)
   10138:	180690fa 	slli	r3,r3,3
   1013c:	10c5883a 	add	r2,r2,r3
   10140:	10c00017 	ldw	r3,0(r2)
   10144:	008000b4 	movhi	r2,2
   10148:	10b21e04 	addi	r2,r2,-14216
   1014c:	e13ffd17 	ldw	r4,-12(fp)
   10150:	200890fa 	slli	r4,r4,3
   10154:	1105883a 	add	r2,r2,r4
   10158:	10800104 	addi	r2,r2,4
   1015c:	10800017 	ldw	r2,0(r2)
   10160:	1009883a 	mov	r4,r2
   10164:	183ee83a 	callr	r3
#else
        alt_irq[i].handler(alt_irq[i].context, i); 
#endif
        break;
   10168:	0001883a 	nop
#ifndef NIOS2_EIC_PRESENT
static ALT_INLINE alt_u32 ALT_ALWAYS_INLINE alt_irq_pending (void)
{
  alt_u32 active;

  NIOS2_READ_IPENDING (active);
   1016c:	0005313a 	rdctl	r2,ipending
   10170:	e0bfff15 	stw	r2,-4(fp)

  return active;
   10174:	e0bfff17 	ldw	r2,-4(fp)
   10178:	00000706 	br	10198 <alt_irq_handler+0xac>
      }
      mask <<= 1;
   1017c:	e0bffc17 	ldw	r2,-16(fp)
   10180:	1085883a 	add	r2,r2,r2
   10184:	e0bffc15 	stw	r2,-16(fp)
      i++;
   10188:	e0bffd17 	ldw	r2,-12(fp)
   1018c:	10800044 	addi	r2,r2,1
   10190:	e0bffd15 	stw	r2,-12(fp)

    } while (1);
   10194:	003fe106 	br	1011c <_gp+0xfffec0bc>

    active = alt_irq_pending ();
   10198:	e0bffb15 	stw	r2,-20(fp)
    
  } while (active);
   1019c:	e0bffb17 	ldw	r2,-20(fp)
   101a0:	103fdb1e 	bne	r2,zero,10110 <_gp+0xfffec0b0>

  /*
   * Notify the operating system that interrupt processing is complete.
   */ 

  ALT_OS_INT_EXIT();
   101a4:	0001883a 	nop
}
   101a8:	0001883a 	nop
   101ac:	e037883a 	mov	sp,fp
   101b0:	dfc00117 	ldw	ra,4(sp)
   101b4:	df000017 	ldw	fp,0(sp)
   101b8:	dec00204 	addi	sp,sp,8
   101bc:	f800283a 	ret

Disassembly of section .text:

000101c0 <_start>:

    /*
     * Now that the caches are initialized, set up the stack pointer and global pointer.
     * The values provided by the linker are assumed to be correctly aligned.
     */
    movhi sp, %hi(__alt_stack_pointer)
   101c0:	06c00074 	movhi	sp,1
    ori sp, sp, %lo(__alt_stack_pointer)
   101c4:	def3c214 	ori	sp,sp,53000
    movhi gp, %hi(_gp)
   101c8:	068000b4 	movhi	gp,2
    ori gp, gp, %lo(_gp)
   101cc:	d6901814 	ori	gp,gp,16480
 */
#ifndef ALT_SIM_OPTIMIZE
    /* Log that the BSS is about to be cleared. */
    ALT_LOG_PUTS(alt_log_msg_bss)

    movhi r2, %hi(__bss_start)
   101d0:	00800074 	movhi	r2,1
    ori r2, r2, %lo(__bss_start)
   101d4:	10b1a614 	ori	r2,r2,50840

    movhi r3, %hi(__bss_end)
   101d8:	00c00074 	movhi	r3,1
    ori r3, r3, %lo(__bss_end)
   101dc:	18f25e14 	ori	r3,r3,51576

    beq r2, r3, 1f
   101e0:	10c00326 	beq	r2,r3,101f0 <_start+0x30>

0:
    stw zero, (r2)
   101e4:	10000015 	stw	zero,0(r2)
    addi r2, r2, 4
   101e8:	10800104 	addi	r2,r2,4
    bltu r2, r3, 0b
   101ec:	10fffd36 	bltu	r2,r3,101e4 <_gp+0xfffec184>
     * section aren't defined until alt_load() has been called).
     */
    mov   et, zero
#endif

    call alt_load
   101f0:	0019f740 	call	19f74 <alt_load>

    /* Log that alt_main is about to be called. */
    ALT_LOG_PUTS(alt_log_msg_alt_main)

    /* Call the C entry point. It should never return. */
    call alt_main
   101f4:	0019ff80 	call	19ff8 <alt_main>

000101f8 <alt_after_alt_main>:

    /* Wait in infinite loop in case alt_main does return. */
alt_after_alt_main:
    br alt_after_alt_main
   101f8:	003fff06 	br	101f8 <_gp+0xfffec198>

000101fc <parseAdData>:
 */

#include "ad.h"
#include "log.h"
void parseAdData(float *input, unsigned char * source)
{
   101fc:	defff604 	addi	sp,sp,-40
   10200:	dfc00915 	stw	ra,36(sp)
   10204:	df000815 	stw	fp,32(sp)
   10208:	dc000715 	stw	r16,28(sp)
   1020c:	df000804 	addi	fp,sp,32
   10210:	e13ffd15 	stw	r4,-12(fp)
   10214:	e17ffe15 	stw	r5,-8(fp)
	int i;
	int j = 0;
   10218:	e03ff915 	stw	zero,-28(fp)
	int data = 0;
   1021c:	e03ffa15 	stw	zero,-24(fp)
//	LOG_DEBUG("data:");
	for (i = 0; i < 32; i ++)
   10220:	e03ff815 	stw	zero,-32(fp)
   10224:	00003406 	br	102f8 <parseAdData+0xfc>
	{
		unsigned char low = source[j];
   10228:	e0bff917 	ldw	r2,-28(fp)
   1022c:	e0fffe17 	ldw	r3,-8(fp)
   10230:	1885883a 	add	r2,r3,r2
   10234:	10800003 	ldbu	r2,0(r2)
   10238:	e0bffb05 	stb	r2,-20(fp)
		unsigned char high = source[j+1];
   1023c:	e0bff917 	ldw	r2,-28(fp)
   10240:	10800044 	addi	r2,r2,1
   10244:	e0fffe17 	ldw	r3,-8(fp)
   10248:	1885883a 	add	r2,r3,r2
   1024c:	10800003 	ldbu	r2,0(r2)
   10250:	e0bffb45 	stb	r2,-19(fp)
		unsigned int result = high;
   10254:	e0bffb43 	ldbu	r2,-19(fp)
   10258:	e0bffc15 	stw	r2,-16(fp)
		result = result << 8;
   1025c:	e0bffc17 	ldw	r2,-16(fp)
   10260:	1004923a 	slli	r2,r2,8
   10264:	e0bffc15 	stw	r2,-16(fp)
		result = result | low;
   10268:	e0bffb03 	ldbu	r2,-20(fp)
   1026c:	e0fffc17 	ldw	r3,-16(fp)
   10270:	1884b03a 	or	r2,r3,r2
   10274:	e0bffc15 	stw	r2,-16(fp)
		input[i] = computeAd(result);
   10278:	e0bff817 	ldw	r2,-32(fp)
   1027c:	1085883a 	add	r2,r2,r2
   10280:	1085883a 	add	r2,r2,r2
   10284:	1007883a 	mov	r3,r2
   10288:	e0bffd17 	ldw	r2,-12(fp)
   1028c:	10e1883a 	add	r16,r2,r3
   10290:	e0bffc17 	ldw	r2,-16(fp)
   10294:	1009883a 	mov	r4,r2
   10298:	00104700 	call	10470 <computeAd>
   1029c:	1007883a 	mov	r3,r2
   102a0:	80c00015 	stw	r3,0(r16)
		j += 2;
   102a4:	e0bff917 	ldw	r2,-28(fp)
   102a8:	10800084 	addi	r2,r2,2
   102ac:	e0bff915 	stw	r2,-28(fp)
		data = input[i] * 1000;
   102b0:	e0bff817 	ldw	r2,-32(fp)
   102b4:	1085883a 	add	r2,r2,r2
   102b8:	1085883a 	add	r2,r2,r2
   102bc:	1007883a 	mov	r3,r2
   102c0:	e0bffd17 	ldw	r2,-12(fp)
   102c4:	10c5883a 	add	r2,r2,r3
   102c8:	10c00017 	ldw	r3,0(r2)
   102cc:	01511eb4 	movhi	r5,17530
   102d0:	1809883a 	mov	r4,r3
   102d4:	00154780 	call	15478 <__mulsf3>
   102d8:	1007883a 	mov	r3,r2
   102dc:	1805883a 	mov	r2,r3
   102e0:	1009883a 	mov	r4,r2
   102e4:	0015d580 	call	15d58 <__fixsfsi>
   102e8:	e0bffa15 	stw	r2,-24(fp)
{
	int i;
	int j = 0;
	int data = 0;
//	LOG_DEBUG("data:");
	for (i = 0; i < 32; i ++)
   102ec:	e0bff817 	ldw	r2,-32(fp)
   102f0:	10800044 	addi	r2,r2,1
   102f4:	e0bff815 	stw	r2,-32(fp)
   102f8:	e0bff817 	ldw	r2,-32(fp)
   102fc:	10800810 	cmplti	r2,r2,32
   10300:	103fc91e 	bne	r2,zero,10228 <_gp+0xfffec1c8>
		j += 2;
		data = input[i] * 1000;
//		printf("%d ", data);
	}
//	printf("\r\n");
}
   10304:	0001883a 	nop
   10308:	e6ffff04 	addi	sp,fp,-4
   1030c:	dfc00217 	ldw	ra,8(sp)
   10310:	df000117 	ldw	fp,4(sp)
   10314:	dc000017 	ldw	r16,0(sp)
   10318:	dec00304 	addi	sp,sp,12
   1031c:	f800283a 	ret

00010320 <ReadAdRes>:
 * 调用函数可读取AD转换结果（二补数），并返回其真实值
 * 参数说明：
 * BASE为相应AD模块数据位链接的并行IO口的基地址
 */
float ReadAdRes(int BASE)
{
   10320:	defffa04 	addi	sp,sp,-24
   10324:	dfc00515 	stw	ra,20(sp)
   10328:	df000415 	stw	fp,16(sp)
   1032c:	df000404 	addi	fp,sp,16
   10330:	e13fff15 	stw	r4,-4(fp)
    float Res = 0;                              //待计算的AD结果
   10334:	e03ffc15 	stw	zero,-16(fp)
	int databits = 0;                           //AD结果数值位
   10338:	e03ffd15 	stw	zero,-12(fp)
	int DVolt = 0;                              //ADC得到二补数结果
   1033c:	e03ffe15 	stw	zero,-8(fp)
	DVolt = IORD_ALTERA_AVALON_PIO_DATA(BASE);
   10340:	e0bfff17 	ldw	r2,-4(fp)
   10344:	10800037 	ldwio	r2,0(r2)
   10348:	e0bffe15 	stw	r2,-8(fp)
	databits = DVolt & 0x7FF;
   1034c:	e0bffe17 	ldw	r2,-8(fp)
   10350:	1081ffcc 	andi	r2,r2,2047
   10354:	e0bffd15 	stw	r2,-12(fp)
	if(0x800==(DVolt & 0x800))
   10358:	e0bffe17 	ldw	r2,-8(fp)
   1035c:	1082000c 	andi	r2,r2,2048
   10360:	10001f26 	beq	r2,zero,103e0 <ReadAdRes+0xc0>
	{
		Res = (databits - 0x800)/4095.0*10;
   10364:	e0bffd17 	ldw	r2,-12(fp)
   10368:	10be0004 	addi	r2,r2,-2048
   1036c:	1009883a 	mov	r4,r2
   10370:	00182780 	call	18278 <__floatsidf>
   10374:	1011883a 	mov	r8,r2
   10378:	1813883a 	mov	r9,r3
   1037c:	000d883a 	mov	r6,zero
   10380:	01d02c34 	movhi	r7,16560
   10384:	39ff8004 	addi	r7,r7,-512
   10388:	4009883a 	mov	r4,r8
   1038c:	480b883a 	mov	r5,r9
   10390:	00167980 	call	16798 <__divdf3>
   10394:	1009883a 	mov	r4,r2
   10398:	180b883a 	mov	r5,r3
   1039c:	2005883a 	mov	r2,r4
   103a0:	2807883a 	mov	r3,r5
   103a4:	000d883a 	mov	r6,zero
   103a8:	01d00934 	movhi	r7,16420
   103ac:	1009883a 	mov	r4,r2
   103b0:	180b883a 	mov	r5,r3
   103b4:	00171e40 	call	171e4 <__muldf3>
   103b8:	1009883a 	mov	r4,r2
   103bc:	180b883a 	mov	r5,r3
   103c0:	2005883a 	mov	r2,r4
   103c4:	2807883a 	mov	r3,r5
   103c8:	1009883a 	mov	r4,r2
   103cc:	180b883a 	mov	r5,r3
   103d0:	001850c0 	call	1850c <__truncdfsf2>
   103d4:	1007883a 	mov	r3,r2
   103d8:	e0fffc15 	stw	r3,-16(fp)
   103dc:	00001c06 	br	10450 <ReadAdRes+0x130>
	}
	else
	{
		Res = (databits)/4095.0*10;
   103e0:	e13ffd17 	ldw	r4,-12(fp)
   103e4:	00182780 	call	18278 <__floatsidf>
   103e8:	1011883a 	mov	r8,r2
   103ec:	1813883a 	mov	r9,r3
   103f0:	000d883a 	mov	r6,zero
   103f4:	01d02c34 	movhi	r7,16560
   103f8:	39ff8004 	addi	r7,r7,-512
   103fc:	4009883a 	mov	r4,r8
   10400:	480b883a 	mov	r5,r9
   10404:	00167980 	call	16798 <__divdf3>
   10408:	1009883a 	mov	r4,r2
   1040c:	180b883a 	mov	r5,r3
   10410:	2005883a 	mov	r2,r4
   10414:	2807883a 	mov	r3,r5
   10418:	000d883a 	mov	r6,zero
   1041c:	01d00934 	movhi	r7,16420
   10420:	1009883a 	mov	r4,r2
   10424:	180b883a 	mov	r5,r3
   10428:	00171e40 	call	171e4 <__muldf3>
   1042c:	1009883a 	mov	r4,r2
   10430:	180b883a 	mov	r5,r3
   10434:	2005883a 	mov	r2,r4
   10438:	2807883a 	mov	r3,r5
   1043c:	1009883a 	mov	r4,r2
   10440:	180b883a 	mov	r5,r3
   10444:	001850c0 	call	1850c <__truncdfsf2>
   10448:	1007883a 	mov	r3,r2
   1044c:	e0fffc15 	stw	r3,-16(fp)
	}
	return Res;
   10450:	e0bffc17 	ldw	r2,-16(fp)
   10454:	1007883a 	mov	r3,r2
}
   10458:	1805883a 	mov	r2,r3
   1045c:	e037883a 	mov	sp,fp
   10460:	dfc00117 	ldw	ra,4(sp)
   10464:	df000017 	ldw	fp,0(sp)
   10468:	dec00204 	addi	sp,sp,8
   1046c:	f800283a 	ret

00010470 <computeAd>:

float computeAd(int adValue)
{
   10470:	defffb04 	addi	sp,sp,-20
   10474:	dfc00415 	stw	ra,16(sp)
   10478:	df000315 	stw	fp,12(sp)
   1047c:	df000304 	addi	fp,sp,12
   10480:	e13fff15 	stw	r4,-4(fp)
	float Res = 0;                              //待计算的AD结果
   10484:	e03ffd15 	stw	zero,-12(fp)
	int databits = 0;                           //AD结果数值位
   10488:	e03ffe15 	stw	zero,-8(fp)

	databits = adValue & 0x7FF;
   1048c:	e0bfff17 	ldw	r2,-4(fp)
   10490:	1081ffcc 	andi	r2,r2,2047
   10494:	e0bffe15 	stw	r2,-8(fp)
	if(0x800==(adValue & 0x800))
   10498:	e0bfff17 	ldw	r2,-4(fp)
   1049c:	1082000c 	andi	r2,r2,2048
   104a0:	10001f26 	beq	r2,zero,10520 <computeAd+0xb0>
	{
		Res = (databits - 0x800)/4095.0*10;
   104a4:	e0bffe17 	ldw	r2,-8(fp)
   104a8:	10be0004 	addi	r2,r2,-2048
   104ac:	1009883a 	mov	r4,r2
   104b0:	00182780 	call	18278 <__floatsidf>
   104b4:	1011883a 	mov	r8,r2
   104b8:	1813883a 	mov	r9,r3
   104bc:	000d883a 	mov	r6,zero
   104c0:	01d02c34 	movhi	r7,16560
   104c4:	39ff8004 	addi	r7,r7,-512
   104c8:	4009883a 	mov	r4,r8
   104cc:	480b883a 	mov	r5,r9
   104d0:	00167980 	call	16798 <__divdf3>
   104d4:	1009883a 	mov	r4,r2
   104d8:	180b883a 	mov	r5,r3
   104dc:	2005883a 	mov	r2,r4
   104e0:	2807883a 	mov	r3,r5
   104e4:	000d883a 	mov	r6,zero
   104e8:	01d00934 	movhi	r7,16420
   104ec:	1009883a 	mov	r4,r2
   104f0:	180b883a 	mov	r5,r3
   104f4:	00171e40 	call	171e4 <__muldf3>
   104f8:	1009883a 	mov	r4,r2
   104fc:	180b883a 	mov	r5,r3
   10500:	2005883a 	mov	r2,r4
   10504:	2807883a 	mov	r3,r5
   10508:	1009883a 	mov	r4,r2
   1050c:	180b883a 	mov	r5,r3
   10510:	001850c0 	call	1850c <__truncdfsf2>
   10514:	1007883a 	mov	r3,r2
   10518:	e0fffd15 	stw	r3,-12(fp)
   1051c:	00001c06 	br	10590 <computeAd+0x120>
	}
	else
	{
		Res = (databits)/4095.0*10;
   10520:	e13ffe17 	ldw	r4,-8(fp)
   10524:	00182780 	call	18278 <__floatsidf>
   10528:	1011883a 	mov	r8,r2
   1052c:	1813883a 	mov	r9,r3
   10530:	000d883a 	mov	r6,zero
   10534:	01d02c34 	movhi	r7,16560
   10538:	39ff8004 	addi	r7,r7,-512
   1053c:	4009883a 	mov	r4,r8
   10540:	480b883a 	mov	r5,r9
   10544:	00167980 	call	16798 <__divdf3>
   10548:	1009883a 	mov	r4,r2
   1054c:	180b883a 	mov	r5,r3
   10550:	2005883a 	mov	r2,r4
   10554:	2807883a 	mov	r3,r5
   10558:	000d883a 	mov	r6,zero
   1055c:	01d00934 	movhi	r7,16420
   10560:	1009883a 	mov	r4,r2
   10564:	180b883a 	mov	r5,r3
   10568:	00171e40 	call	171e4 <__muldf3>
   1056c:	1009883a 	mov	r4,r2
   10570:	180b883a 	mov	r5,r3
   10574:	2005883a 	mov	r2,r4
   10578:	2807883a 	mov	r3,r5
   1057c:	1009883a 	mov	r4,r2
   10580:	180b883a 	mov	r5,r3
   10584:	001850c0 	call	1850c <__truncdfsf2>
   10588:	1007883a 	mov	r3,r2
   1058c:	e0fffd15 	stw	r3,-12(fp)
	}
	return Res;
   10590:	e0bffd17 	ldw	r2,-12(fp)
   10594:	1007883a 	mov	r3,r2
}
   10598:	1805883a 	mov	r2,r3
   1059c:	e037883a 	mov	sp,fp
   105a0:	dfc00117 	ldw	ra,4(sp)
   105a4:	df000017 	ldw	fp,0(sp)
   105a8:	dec00204 	addi	sp,sp,8
   105ac:	f800283a 	ret

000105b0 <AD9833_Init_GPIO>:
#define DAT_1()		value = value | 0b001; IOWR_ALTERA_AVALON_PIO_DATA(DDS_BASE, value )

//初始化AD9833 GPIO

void AD9833_Init_GPIO()
{
   105b0:	deffff04 	addi	sp,sp,-4
   105b4:	df000015 	stw	fp,0(sp)
   105b8:	d839883a 	mov	fp,sp
//    RCC_APB2PeriphClockCmd(RCC_APB2Periph_GPIOB, ENABLE);
//    GPIO_InitStructure.GPIO_Pin = PIN_FSYNC|PIN_SCK|PIN_DAT;
//    GPIO_InitStructure.GPIO_Speed = GPIO_Speed_50MHz;
//    GPIO_InitStructure.GPIO_Mode = GPIO_Mode_Out_PP;
//    GPIO_Init(PORT_SCK, &GPIO_InitStructure);
	IOWR_ALTERA_AVALON_PIO_DIRECTION(DDS_BASE, 0x0);
   105bc:	0007883a 	mov	r3,zero
   105c0:	008000b4 	movhi	r2,2
   105c4:	10881904 	addi	r2,r2,8292
   105c8:	10c00035 	stwio	r3,0(r2)
}
   105cc:	0001883a 	nop
   105d0:	e037883a 	mov	sp,fp
   105d4:	df000017 	ldw	fp,0(sp)
   105d8:	dec00104 	addi	sp,sp,4
   105dc:	f800283a 	ret

000105e0 <AD9833_Delay>:
*	形    参: 无
*	返 回 值: 无
*********************************************************************************************************
*/
static void AD9833_Delay(void)
{
   105e0:	defffe04 	addi	sp,sp,-8
   105e4:	df000115 	stw	fp,4(sp)
   105e8:	df000104 	addi	fp,sp,4
	int i;
	for (i = 0; i < 1; i++);
   105ec:	e03fff15 	stw	zero,-4(fp)
   105f0:	00000306 	br	10600 <AD9833_Delay+0x20>
   105f4:	e0bfff17 	ldw	r2,-4(fp)
   105f8:	10800044 	addi	r2,r2,1
   105fc:	e0bfff15 	stw	r2,-4(fp)
   10600:	e0bfff17 	ldw	r2,-4(fp)
   10604:	00bffb0e 	bge	zero,r2,105f4 <_gp+0xfffec594>
}
   10608:	0001883a 	nop
   1060c:	e037883a 	mov	sp,fp
   10610:	df000017 	ldw	fp,0(sp)
   10614:	dec00104 	addi	sp,sp,4
   10618:	f800283a 	ret

0001061c <AD9833_Write>:
*	形    参: TxData : 数据
*	返 回 值: 无
*********************************************************************************************************
*/
void AD9833_Write(unsigned int TxData)
{
   1061c:	defffc04 	addi	sp,sp,-16
   10620:	dfc00315 	stw	ra,12(sp)
   10624:	df000215 	stw	fp,8(sp)
   10628:	df000204 	addi	fp,sp,8
   1062c:	e13fff15 	stw	r4,-4(fp)
	unsigned char i;

	SCK_1();
   10630:	d0a18e17 	ldw	r2,-31176(gp)
   10634:	10800094 	ori	r2,r2,2
   10638:	d0a18e15 	stw	r2,-31176(gp)
   1063c:	d0e18e17 	ldw	r3,-31176(gp)
   10640:	008000b4 	movhi	r2,2
   10644:	10881804 	addi	r2,r2,8288
   10648:	10c00035 	stwio	r3,0(r2)
	//AD9833_Delay();
	FSYNC_1();
   1064c:	d0a18e17 	ldw	r2,-31176(gp)
   10650:	10800114 	ori	r2,r2,4
   10654:	d0a18e15 	stw	r2,-31176(gp)
   10658:	d0e18e17 	ldw	r3,-31176(gp)
   1065c:	008000b4 	movhi	r2,2
   10660:	10881804 	addi	r2,r2,8288
   10664:	10c00035 	stwio	r3,0(r2)
	AD9833_Delay();
   10668:	00105e00 	call	105e0 <AD9833_Delay>
	FSYNC_0();
   1066c:	d0a18e17 	ldw	r2,-31176(gp)
   10670:	108000cc 	andi	r2,r2,3
   10674:	d0a18e15 	stw	r2,-31176(gp)
   10678:	d0e18e17 	ldw	r3,-31176(gp)
   1067c:	008000b4 	movhi	r2,2
   10680:	10881804 	addi	r2,r2,8288
   10684:	10c00035 	stwio	r3,0(r2)
	AD9833_Delay();
   10688:	00105e00 	call	105e0 <AD9833_Delay>
	for(i = 0; i < 16; i++)
   1068c:	e03ffe05 	stb	zero,-8(fp)
   10690:	00002806 	br	10734 <AD9833_Write+0x118>
	{
		if (TxData & 0x8000)
   10694:	e0bfff17 	ldw	r2,-4(fp)
   10698:	10a0000c 	andi	r2,r2,32768
   1069c:	10000826 	beq	r2,zero,106c0 <AD9833_Write+0xa4>
		{
			DAT_1();
   106a0:	d0a18e17 	ldw	r2,-31176(gp)
   106a4:	10800054 	ori	r2,r2,1
   106a8:	d0a18e15 	stw	r2,-31176(gp)
   106ac:	d0e18e17 	ldw	r3,-31176(gp)
   106b0:	008000b4 	movhi	r2,2
   106b4:	10881804 	addi	r2,r2,8288
   106b8:	10c00035 	stwio	r3,0(r2)
   106bc:	00000706 	br	106dc <AD9833_Write+0xc0>
		}
		else
		{
			DAT_0();
   106c0:	d0a18e17 	ldw	r2,-31176(gp)
   106c4:	1080018c 	andi	r2,r2,6
   106c8:	d0a18e15 	stw	r2,-31176(gp)
   106cc:	d0e18e17 	ldw	r3,-31176(gp)
   106d0:	008000b4 	movhi	r2,2
   106d4:	10881804 	addi	r2,r2,8288
   106d8:	10c00035 	stwio	r3,0(r2)
		}

		AD9833_Delay();
   106dc:	00105e00 	call	105e0 <AD9833_Delay>
		SCK_0();
   106e0:	d0a18e17 	ldw	r2,-31176(gp)
   106e4:	1080014c 	andi	r2,r2,5
   106e8:	d0a18e15 	stw	r2,-31176(gp)
   106ec:	d0e18e17 	ldw	r3,-31176(gp)
   106f0:	008000b4 	movhi	r2,2
   106f4:	10881804 	addi	r2,r2,8288
   106f8:	10c00035 	stwio	r3,0(r2)
		AD9833_Delay();
   106fc:	00105e00 	call	105e0 <AD9833_Delay>
		SCK_1();
   10700:	d0a18e17 	ldw	r2,-31176(gp)
   10704:	10800094 	ori	r2,r2,2
   10708:	d0a18e15 	stw	r2,-31176(gp)
   1070c:	d0e18e17 	ldw	r3,-31176(gp)
   10710:	008000b4 	movhi	r2,2
   10714:	10881804 	addi	r2,r2,8288
   10718:	10c00035 	stwio	r3,0(r2)

		TxData <<= 1;
   1071c:	e0bfff17 	ldw	r2,-4(fp)
   10720:	1085883a 	add	r2,r2,r2
   10724:	e0bfff15 	stw	r2,-4(fp)
	//AD9833_Delay();
	FSYNC_1();
	AD9833_Delay();
	FSYNC_0();
	AD9833_Delay();
	for(i = 0; i < 16; i++)
   10728:	e0bffe03 	ldbu	r2,-8(fp)
   1072c:	10800044 	addi	r2,r2,1
   10730:	e0bffe05 	stb	r2,-8(fp)
   10734:	e0bffe03 	ldbu	r2,-8(fp)
   10738:	10800430 	cmpltui	r2,r2,16
   1073c:	103fd51e 	bne	r2,zero,10694 <_gp+0xfffec634>
		AD9833_Delay();
		SCK_1();

		TxData <<= 1;
	}
	FSYNC_1();
   10740:	d0a18e17 	ldw	r2,-31176(gp)
   10744:	10800114 	ori	r2,r2,4
   10748:	d0a18e15 	stw	r2,-31176(gp)
   1074c:	d0e18e17 	ldw	r3,-31176(gp)
   10750:	008000b4 	movhi	r2,2
   10754:	10881804 	addi	r2,r2,8288
   10758:	10c00035 	stwio	r3,0(r2)

}
   1075c:	0001883a 	nop
   10760:	e037883a 	mov	sp,fp
   10764:	dfc00117 	ldw	ra,4(sp)
   10768:	df000017 	ldw	fp,0(sp)
   1076c:	dec00204 	addi	sp,sp,8
   10770:	f800283a 	ret

00010774 <AD9833_WaveSeting>:
			  4.Phase : 波形的初相位
*	返 回 值: 无
*********************************************************************************************************
*/
void AD9833_WaveSeting(double Freq,unsigned int Freq_SFR,unsigned int WaveMode,unsigned int Phase )
{
   10774:	defff204 	addi	sp,sp,-56
   10778:	dfc00d15 	stw	ra,52(sp)
   1077c:	df000c15 	stw	fp,48(sp)
   10780:	df000c04 	addi	fp,sp,48
   10784:	e13ffc15 	stw	r4,-16(fp)
   10788:	e17ffd15 	stw	r5,-12(fp)
   1078c:	e1bffe15 	stw	r6,-8(fp)
   10790:	e1ffff15 	stw	r7,-4(fp)
	int frequence_LSB,frequence_MSB,Phs_data;
	double   frequence_mid,frequence_DATA;
	long int frequence_hex;

	/*********************************计算频率的16进制值***********************************/
	frequence_mid=268435456/25;//适合25M晶振
   10794:	00900034 	movhi	r2,16384
   10798:	e0bff615 	stw	r2,-40(fp)
   1079c:	00905934 	movhi	r2,16740
   107a0:	109eb844 	addi	r2,r2,31457
   107a4:	e0bff715 	stw	r2,-36(fp)
	//如果时钟频率不为25MHZ，修改该处的频率值，单位MHz ，AD9833最大支持25MHz
	frequence_DATA=Freq;
   107a8:	e0bffc17 	ldw	r2,-16(fp)
   107ac:	e0bff815 	stw	r2,-32(fp)
   107b0:	e0bffd17 	ldw	r2,-12(fp)
   107b4:	e0bff915 	stw	r2,-28(fp)
	frequence_DATA=frequence_DATA/1000000;
   107b8:	000d883a 	mov	r6,zero
   107bc:	01d04bf4 	movhi	r7,16687
   107c0:	39e12004 	addi	r7,r7,-31616
   107c4:	e13ff817 	ldw	r4,-32(fp)
   107c8:	e17ff917 	ldw	r5,-28(fp)
   107cc:	00167980 	call	16798 <__divdf3>
   107d0:	1009883a 	mov	r4,r2
   107d4:	180b883a 	mov	r5,r3
   107d8:	e13ff815 	stw	r4,-32(fp)
   107dc:	e17ff915 	stw	r5,-28(fp)
	frequence_DATA=frequence_DATA*frequence_mid;
   107e0:	e1bff617 	ldw	r6,-40(fp)
   107e4:	e1fff717 	ldw	r7,-36(fp)
   107e8:	e13ff817 	ldw	r4,-32(fp)
   107ec:	e17ff917 	ldw	r5,-28(fp)
   107f0:	00171e40 	call	171e4 <__muldf3>
   107f4:	1009883a 	mov	r4,r2
   107f8:	180b883a 	mov	r5,r3
   107fc:	e13ff815 	stw	r4,-32(fp)
   10800:	e17ff915 	stw	r5,-28(fp)
	frequence_hex=frequence_DATA;  //这个frequence_hex的值是32位的一个很大的数字，需要拆分成两个14位进行处理；
   10804:	e13ff817 	ldw	r4,-32(fp)
   10808:	e17ff917 	ldw	r5,-28(fp)
   1080c:	00181f80 	call	181f8 <__fixdfsi>
   10810:	e0bffa15 	stw	r2,-24(fp)
	frequence_LSB=frequence_hex; //frequence_hex低16位送给frequence_LSB
   10814:	e0bffa17 	ldw	r2,-24(fp)
   10818:	e0bff415 	stw	r2,-48(fp)
	frequence_LSB=frequence_LSB&0x3fff;//去除最高两位，16位数换去掉高位后变成了14位
   1081c:	e0bff417 	ldw	r2,-48(fp)
   10820:	108fffcc 	andi	r2,r2,16383
   10824:	e0bff415 	stw	r2,-48(fp)
	frequence_MSB=frequence_hex>>14; //frequence_hex高16位送给frequence_HSB
   10828:	e0bffa17 	ldw	r2,-24(fp)
   1082c:	1005d3ba 	srai	r2,r2,14
   10830:	e0bff515 	stw	r2,-44(fp)
	frequence_MSB=frequence_MSB&0x3fff;//去除最高两位，16位数换去掉高位后变成了14位
   10834:	e0bff517 	ldw	r2,-44(fp)
   10838:	108fffcc 	andi	r2,r2,16383
   1083c:	e0bff515 	stw	r2,-44(fp)

	Phs_data=Phase|0xC000;	//相位值
   10840:	e0800217 	ldw	r2,8(fp)
   10844:	10b00014 	ori	r2,r2,49152
   10848:	e0bffb15 	stw	r2,-20(fp)
	AD9833_Write(0x0100); //复位AD9833,即RESET位为1
   1084c:	01004004 	movi	r4,256
   10850:	001061c0 	call	1061c <AD9833_Write>
	AD9833_Write(0x2100); //选择数据一次写入，B28位和RESET位为1
   10854:	01084004 	movi	r4,8448
   10858:	001061c0 	call	1061c <AD9833_Write>

	if(Freq_SFR==0)				  //把数据设置到设置频率寄存器0
   1085c:	e0bffe17 	ldw	r2,-8(fp)
   10860:	10000f1e 	bne	r2,zero,108a0 <AD9833_WaveSeting+0x12c>
	{
		frequence_LSB=frequence_LSB|0x4000;
   10864:	e0bff417 	ldw	r2,-48(fp)
   10868:	10900014 	ori	r2,r2,16384
   1086c:	e0bff415 	stw	r2,-48(fp)
		frequence_MSB=frequence_MSB|0x4000;
   10870:	e0bff517 	ldw	r2,-44(fp)
   10874:	10900014 	ori	r2,r2,16384
   10878:	e0bff515 	stw	r2,-44(fp)
		 //使用频率寄存器0输出波形
		AD9833_Write(frequence_LSB); //L14，选择频率寄存器0的低14位数据输入
   1087c:	e0bff417 	ldw	r2,-48(fp)
   10880:	1009883a 	mov	r4,r2
   10884:	001061c0 	call	1061c <AD9833_Write>
		AD9833_Write(frequence_MSB); //H14 频率寄存器的高14位数据输入
   10888:	e0bff517 	ldw	r2,-44(fp)
   1088c:	1009883a 	mov	r4,r2
   10890:	001061c0 	call	1061c <AD9833_Write>
		AD9833_Write(Phs_data);	//设置相位
   10894:	e0bffb17 	ldw	r2,-20(fp)
   10898:	1009883a 	mov	r4,r2
   1089c:	001061c0 	call	1061c <AD9833_Write>
		//AD9833_Write(0x2000); /**设置FSELECT位为0，芯片进入工作状态,频率寄存器0输出波形**/
	}
	if(Freq_SFR==1)				//把数据设置到设置频率寄存器1
   108a0:	e0bffe17 	ldw	r2,-8(fp)
   108a4:	10800058 	cmpnei	r2,r2,1
   108a8:	10000f1e 	bne	r2,zero,108e8 <AD9833_WaveSeting+0x174>
	{
		 frequence_LSB=frequence_LSB|0x8000;
   108ac:	e0bff417 	ldw	r2,-48(fp)
   108b0:	10a00014 	ori	r2,r2,32768
   108b4:	e0bff415 	stw	r2,-48(fp)
		 frequence_MSB=frequence_MSB|0x8000;
   108b8:	e0bff517 	ldw	r2,-44(fp)
   108bc:	10a00014 	ori	r2,r2,32768
   108c0:	e0bff515 	stw	r2,-44(fp)
		//使用频率寄存器1输出波形
		AD9833_Write(frequence_LSB); //L14，选择频率寄存器1的低14位输入
   108c4:	e0bff417 	ldw	r2,-48(fp)
   108c8:	1009883a 	mov	r4,r2
   108cc:	001061c0 	call	1061c <AD9833_Write>
		AD9833_Write(frequence_MSB); //H14 频率寄存器1为
   108d0:	e0bff517 	ldw	r2,-44(fp)
   108d4:	1009883a 	mov	r4,r2
   108d8:	001061c0 	call	1061c <AD9833_Write>
		AD9833_Write(Phs_data);	//设置相位
   108dc:	e0bffb17 	ldw	r2,-20(fp)
   108e0:	1009883a 	mov	r4,r2
   108e4:	001061c0 	call	1061c <AD9833_Write>
		//AD9833_Write(0x2800); /**设置FSELECT位为0，设置FSELECT位为1，即使用频率寄存器1的值，芯片进入工作状态,频率寄存器1输出波形**/
	}

	if(WaveMode==TRI_WAVE) //输出三角波波形
   108e8:	e0bfff17 	ldw	r2,-4(fp)
   108ec:	1000021e 	bne	r2,zero,108f8 <AD9833_WaveSeting+0x184>
		AD9833_Write(0x2002);
   108f0:	01080084 	movi	r4,8194
   108f4:	001061c0 	call	1061c <AD9833_Write>
	if(WaveMode==SQU_WAVE)	//输出方波波形
   108f8:	e0bfff17 	ldw	r2,-4(fp)
   108fc:	10800098 	cmpnei	r2,r2,2
   10900:	1000021e 	bne	r2,zero,1090c <AD9833_WaveSeting+0x198>
		AD9833_Write(0x2028);
   10904:	01080a04 	movi	r4,8232
   10908:	001061c0 	call	1061c <AD9833_Write>
	if(WaveMode==SIN_WAVE)	//输出正弦波形
   1090c:	e0bfff17 	ldw	r2,-4(fp)
   10910:	10800058 	cmpnei	r2,r2,1
   10914:	1000021e 	bne	r2,zero,10920 <AD9833_WaveSeting+0x1ac>
		AD9833_Write(0x2000);
   10918:	01080004 	movi	r4,8192
   1091c:	001061c0 	call	1061c <AD9833_Write>

}
   10920:	0001883a 	nop
   10924:	e037883a 	mov	sp,fp
   10928:	dfc00117 	ldw	ra,4(sp)
   1092c:	df000017 	ldw	fp,0(sp)
   10930:	dec00204 	addi	sp,sp,8
   10934:	f800283a 	ret

00010938 <Add_Complex>:
////////////////////////////////////////////////////////////////////  
//璇叉唉椤椤т绘挎绘ㄩ搞椤璺ㄦ锝￠℃缂杈ㄥ浮楠妯硷拷瀚瑰┑舵缂骞锟///////////////////////////////////////////////////////////////////

////////////////////////////////////////////////////////////////////  
//璇叉唉椤椤т绘挎绘ㄩ搞椤璺ㄦ锝￠℃瑰嘲宥宕椤哥浣瑰х椤婊锋慨妤风达纭舵い甯缁绘寰ｎも缂浣介哺缁诲峰┑瀣规娲㈤浠姊洪稿海兼椿跺藉传璺ㄥ凤拷///////////////////////////////////////////////////////////////////
void Add_Complex(Complex * src1,Complex *src2,Complex *dst){  
   10938:	defffb04 	addi	sp,sp,-20
   1093c:	dfc00415 	stw	ra,16(sp)
   10940:	df000315 	stw	fp,12(sp)
   10944:	df000304 	addi	fp,sp,12
   10948:	e13ffd15 	stw	r4,-12(fp)
   1094c:	e17ffe15 	stw	r5,-8(fp)
   10950:	e1bfff15 	stw	r6,-4(fp)
    dst->imagin=src1->imagin+src2->imagin;  
   10954:	e0bffd17 	ldw	r2,-12(fp)
   10958:	10c00117 	ldw	r3,4(r2)
   1095c:	e0bffe17 	ldw	r2,-8(fp)
   10960:	11000117 	ldw	r4,4(r2)
   10964:	200b883a 	mov	r5,r4
   10968:	1809883a 	mov	r4,r3
   1096c:	0014b700 	call	14b70 <__addsf3>
   10970:	1009883a 	mov	r4,r2
   10974:	2007883a 	mov	r3,r4
   10978:	e0bfff17 	ldw	r2,-4(fp)
   1097c:	10c00115 	stw	r3,4(r2)
    dst->real=src1->real+src2->real;  
   10980:	e0bffd17 	ldw	r2,-12(fp)
   10984:	10c00017 	ldw	r3,0(r2)
   10988:	e0bffe17 	ldw	r2,-8(fp)
   1098c:	11000017 	ldw	r4,0(r2)
   10990:	200b883a 	mov	r5,r4
   10994:	1809883a 	mov	r4,r3
   10998:	0014b700 	call	14b70 <__addsf3>
   1099c:	1009883a 	mov	r4,r2
   109a0:	2007883a 	mov	r3,r4
   109a4:	e0bfff17 	ldw	r2,-4(fp)
   109a8:	10c00015 	stw	r3,0(r2)
}  
   109ac:	0001883a 	nop
   109b0:	e037883a 	mov	sp,fp
   109b4:	dfc00117 	ldw	ra,4(sp)
   109b8:	df000017 	ldw	fp,0(sp)
   109bc:	dec00204 	addi	sp,sp,8
   109c0:	f800283a 	ret

000109c4 <Sub_Complex>:
void Sub_Complex(Complex * src1,Complex *src2,Complex *dst){  
   109c4:	defffb04 	addi	sp,sp,-20
   109c8:	dfc00415 	stw	ra,16(sp)
   109cc:	df000315 	stw	fp,12(sp)
   109d0:	df000304 	addi	fp,sp,12
   109d4:	e13ffd15 	stw	r4,-12(fp)
   109d8:	e17ffe15 	stw	r5,-8(fp)
   109dc:	e1bfff15 	stw	r6,-4(fp)
    dst->imagin=src1->imagin-src2->imagin;  
   109e0:	e0bffd17 	ldw	r2,-12(fp)
   109e4:	10c00117 	ldw	r3,4(r2)
   109e8:	e0bffe17 	ldw	r2,-8(fp)
   109ec:	11000117 	ldw	r4,4(r2)
   109f0:	200b883a 	mov	r5,r4
   109f4:	1809883a 	mov	r4,r3
   109f8:	00158740 	call	15874 <__subsf3>
   109fc:	1009883a 	mov	r4,r2
   10a00:	2007883a 	mov	r3,r4
   10a04:	e0bfff17 	ldw	r2,-4(fp)
   10a08:	10c00115 	stw	r3,4(r2)
    dst->real=src1->real-src2->real;  
   10a0c:	e0bffd17 	ldw	r2,-12(fp)
   10a10:	10c00017 	ldw	r3,0(r2)
   10a14:	e0bffe17 	ldw	r2,-8(fp)
   10a18:	11000017 	ldw	r4,0(r2)
   10a1c:	200b883a 	mov	r5,r4
   10a20:	1809883a 	mov	r4,r3
   10a24:	00158740 	call	15874 <__subsf3>
   10a28:	1009883a 	mov	r4,r2
   10a2c:	2007883a 	mov	r3,r4
   10a30:	e0bfff17 	ldw	r2,-4(fp)
   10a34:	10c00015 	stw	r3,0(r2)
}  
   10a38:	0001883a 	nop
   10a3c:	e037883a 	mov	sp,fp
   10a40:	dfc00117 	ldw	ra,4(sp)
   10a44:	df000017 	ldw	fp,0(sp)
   10a48:	dec00204 	addi	sp,sp,8
   10a4c:	f800283a 	ret

00010a50 <Multy_Complex>:
void Multy_Complex(Complex * src1,Complex *src2,Complex *dst){  
   10a50:	defff604 	addi	sp,sp,-40
   10a54:	dfc00915 	stw	ra,36(sp)
   10a58:	df000815 	stw	fp,32(sp)
   10a5c:	dc000715 	stw	r16,28(sp)
   10a60:	df000804 	addi	fp,sp,32
   10a64:	e13ffc15 	stw	r4,-16(fp)
   10a68:	e17ffd15 	stw	r5,-12(fp)
   10a6c:	e1bffe15 	stw	r6,-8(fp)
    float r1=0.0,r2=0.0;
   10a70:	e03ff815 	stw	zero,-32(fp)
   10a74:	e03ff915 	stw	zero,-28(fp)
    float i1=0.0,i2=0.0;
   10a78:	e03ffa15 	stw	zero,-24(fp)
   10a7c:	e03ffb15 	stw	zero,-20(fp)
    r1=src1->real;  
   10a80:	e0bffc17 	ldw	r2,-16(fp)
   10a84:	10800017 	ldw	r2,0(r2)
   10a88:	e0bff815 	stw	r2,-32(fp)
    r2=src2->real;  
   10a8c:	e0bffd17 	ldw	r2,-12(fp)
   10a90:	10800017 	ldw	r2,0(r2)
   10a94:	e0bff915 	stw	r2,-28(fp)
    i1=src1->imagin;  
   10a98:	e0bffc17 	ldw	r2,-16(fp)
   10a9c:	10800117 	ldw	r2,4(r2)
   10aa0:	e0bffa15 	stw	r2,-24(fp)
    i2=src2->imagin;  
   10aa4:	e0bffd17 	ldw	r2,-12(fp)
   10aa8:	10800117 	ldw	r2,4(r2)
   10aac:	e0bffb15 	stw	r2,-20(fp)
    dst->imagin=r1*i2+r2*i1;  
   10ab0:	e17ffb17 	ldw	r5,-20(fp)
   10ab4:	e13ff817 	ldw	r4,-32(fp)
   10ab8:	00154780 	call	15478 <__mulsf3>
   10abc:	1007883a 	mov	r3,r2
   10ac0:	1821883a 	mov	r16,r3
   10ac4:	e17ffa17 	ldw	r5,-24(fp)
   10ac8:	e13ff917 	ldw	r4,-28(fp)
   10acc:	00154780 	call	15478 <__mulsf3>
   10ad0:	1007883a 	mov	r3,r2
   10ad4:	1805883a 	mov	r2,r3
   10ad8:	100b883a 	mov	r5,r2
   10adc:	8009883a 	mov	r4,r16
   10ae0:	0014b700 	call	14b70 <__addsf3>
   10ae4:	1009883a 	mov	r4,r2
   10ae8:	2007883a 	mov	r3,r4
   10aec:	e0bffe17 	ldw	r2,-8(fp)
   10af0:	10c00115 	stw	r3,4(r2)
    dst->real=r1*r2-i1*i2;  
   10af4:	e17ff917 	ldw	r5,-28(fp)
   10af8:	e13ff817 	ldw	r4,-32(fp)
   10afc:	00154780 	call	15478 <__mulsf3>
   10b00:	1007883a 	mov	r3,r2
   10b04:	1821883a 	mov	r16,r3
   10b08:	e17ffb17 	ldw	r5,-20(fp)
   10b0c:	e13ffa17 	ldw	r4,-24(fp)
   10b10:	00154780 	call	15478 <__mulsf3>
   10b14:	1007883a 	mov	r3,r2
   10b18:	1805883a 	mov	r2,r3
   10b1c:	100b883a 	mov	r5,r2
   10b20:	8009883a 	mov	r4,r16
   10b24:	00158740 	call	15874 <__subsf3>
   10b28:	1009883a 	mov	r4,r2
   10b2c:	2007883a 	mov	r3,r4
   10b30:	e0bffe17 	ldw	r2,-8(fp)
   10b34:	10c00015 	stw	r3,0(r2)
}  
   10b38:	0001883a 	nop
   10b3c:	e6ffff04 	addi	sp,fp,-4
   10b40:	dfc00217 	ldw	ra,8(sp)
   10b44:	df000117 	ldw	fp,4(sp)
   10b48:	dc000017 	ldw	r16,0(sp)
   10b4c:	dec00304 	addi	sp,sp,12
   10b50:	f800283a 	ret

00010b54 <getWN>:
////////////////////////////////////////////////////////////////////  
//渚娼婚靛缁辩濠电村堕尖宕㈤澶垮ù锝婀遍绘ㄩ搞N浣圭归宀宕洪х鹃糕崇婢фユ″锟芥靛у伴宕妯渚娼荤煎韫娑绀妞ゆㄧ椤ㄥ┑告稿绱濡わ拷妾ㄧ殿椤㈡╅ｎ归浣告＄濠婵缁у锟界澶搁宄扳淬￠浼缍椤㈤抽宠妫濞姊洪甸瑰ゆ
///////////////////////////////////////////////////////////////////
void getWN(float n,float size_n,Complex * dst){
   10b54:	defff804 	addi	sp,sp,-32
   10b58:	dfc00715 	stw	ra,28(sp)
   10b5c:	df000615 	stw	fp,24(sp)
   10b60:	dc400515 	stw	r17,20(sp)
   10b64:	dc000415 	stw	r16,16(sp)
   10b68:	df000604 	addi	fp,sp,24
   10b6c:	e13ffb15 	stw	r4,-20(fp)
   10b70:	e17ffc15 	stw	r5,-16(fp)
   10b74:	e1bffd15 	stw	r6,-12(fp)
    float x=2.0*M_PI*n/size_n;
   10b78:	e13ffb17 	ldw	r4,-20(fp)
   10b7c:	00183fc0 	call	183fc <__extendsfdf2>
   10b80:	1011883a 	mov	r8,r2
   10b84:	1813883a 	mov	r9,r3
   10b88:	01951134 	movhi	r6,21572
   10b8c:	318b4604 	addi	r6,r6,11544
   10b90:	01d00674 	movhi	r7,16409
   10b94:	39c87ec4 	addi	r7,r7,8699
   10b98:	4009883a 	mov	r4,r8
   10b9c:	480b883a 	mov	r5,r9
   10ba0:	00171e40 	call	171e4 <__muldf3>
   10ba4:	1009883a 	mov	r4,r2
   10ba8:	180b883a 	mov	r5,r3
   10bac:	2021883a 	mov	r16,r4
   10bb0:	2823883a 	mov	r17,r5
   10bb4:	e13ffc17 	ldw	r4,-16(fp)
   10bb8:	00183fc0 	call	183fc <__extendsfdf2>
   10bbc:	1009883a 	mov	r4,r2
   10bc0:	180b883a 	mov	r5,r3
   10bc4:	200d883a 	mov	r6,r4
   10bc8:	280f883a 	mov	r7,r5
   10bcc:	8009883a 	mov	r4,r16
   10bd0:	880b883a 	mov	r5,r17
   10bd4:	00167980 	call	16798 <__divdf3>
   10bd8:	1009883a 	mov	r4,r2
   10bdc:	180b883a 	mov	r5,r3
   10be0:	2005883a 	mov	r2,r4
   10be4:	2807883a 	mov	r3,r5
   10be8:	1009883a 	mov	r4,r2
   10bec:	180b883a 	mov	r5,r3
   10bf0:	001850c0 	call	1850c <__truncdfsf2>
   10bf4:	1007883a 	mov	r3,r2
   10bf8:	e0fffa15 	stw	r3,-24(fp)
    dst->imagin=-sin(x);  
   10bfc:	e13ffa17 	ldw	r4,-24(fp)
   10c00:	00183fc0 	call	183fc <__extendsfdf2>
   10c04:	100b883a 	mov	r5,r2
   10c08:	180d883a 	mov	r6,r3
   10c0c:	2809883a 	mov	r4,r5
   10c10:	300b883a 	mov	r5,r6
   10c14:	00128340 	call	12834 <sin>
   10c18:	100b883a 	mov	r5,r2
   10c1c:	180d883a 	mov	r6,r3
   10c20:	2809883a 	mov	r4,r5
   10c24:	300b883a 	mov	r5,r6
   10c28:	001850c0 	call	1850c <__truncdfsf2>
   10c2c:	1007883a 	mov	r3,r2
   10c30:	18e0003c 	xorhi	r3,r3,32768
   10c34:	e0bffd17 	ldw	r2,-12(fp)
   10c38:	10c00115 	stw	r3,4(r2)
    dst->real=cos(x);  
   10c3c:	e13ffa17 	ldw	r4,-24(fp)
   10c40:	00183fc0 	call	183fc <__extendsfdf2>
   10c44:	100b883a 	mov	r5,r2
   10c48:	180d883a 	mov	r6,r3
   10c4c:	2809883a 	mov	r4,r5
   10c50:	300b883a 	mov	r5,r6
   10c54:	00127480 	call	12748 <cos>
   10c58:	100b883a 	mov	r5,r2
   10c5c:	180d883a 	mov	r6,r3
   10c60:	2809883a 	mov	r4,r5
   10c64:	300b883a 	mov	r5,r6
   10c68:	001850c0 	call	1850c <__truncdfsf2>
   10c6c:	1007883a 	mov	r3,r2
   10c70:	e0bffd17 	ldw	r2,-12(fp)
   10c74:	10c00015 	stw	r3,0(r2)
}  
   10c78:	0001883a 	nop
   10c7c:	e6fffe04 	addi	sp,fp,-8
   10c80:	dfc00317 	ldw	ra,12(sp)
   10c84:	df000217 	ldw	fp,8(sp)
   10c88:	dc400117 	ldw	r17,4(sp)
   10c8c:	dc000017 	ldw	r16,0(sp)
   10c90:	dec00404 	addi	sp,sp,16
   10c94:	f800283a 	ret

00010c98 <FFT_remap>:

////////////////////////////////////////////////////////////////////  
//璇叉唉椤椤т绘T浣圭归宀锟介割蹇搴绨绘いㄧ濞达椤ｈ╋拷捐绐轰礁绉舵锕妯濠电村堕搁濠电浣圭归宀锟介姹查绘х汇ユ瀵℃担版╃稻ｉ割ゅ娓锟藉堕ㄦ搁电х哄苯楠骞х娆圭款烽妤锟//////////////////////////////////////////////////////////////////
int FFT_remap(float * src,int size_n)
{
   10c98:	deffdb04 	addi	sp,sp,-148
   10c9c:	dfc02415 	stw	ra,144(sp)
   10ca0:	df002315 	stw	fp,140(sp)
   10ca4:	df002304 	addi	fp,sp,140
   10ca8:	e13ffe15 	stw	r4,-8(fp)
   10cac:	e17fff15 	stw	r5,-4(fp)
	int i;
    float temp[32] = {0};
   10cb0:	e0bfde04 	addi	r2,fp,-136
   10cb4:	00c02004 	movi	r3,128
   10cb8:	180d883a 	mov	r6,r3
   10cbc:	000b883a 	mov	r5,zero
   10cc0:	1009883a 	mov	r4,r2
   10cc4:	00187780 	call	18778 <memset>
    if(size_n == 1)
   10cc8:	e0bfff17 	ldw	r2,-4(fp)
   10ccc:	10800058 	cmpnei	r2,r2,1
   10cd0:	1000021e 	bne	r2,zero,10cdc <FFT_remap+0x44>
    {
        return 0;
   10cd4:	0005883a 	mov	r2,zero
   10cd8:	00005f06 	br	10e58 <FFT_remap+0x1c0>
    }
    for(i = 0; i < size_n; i++)
   10cdc:	e03fdd15 	stw	zero,-140(fp)
   10ce0:	00002d06 	br	10d98 <FFT_remap+0x100>
    {
        if(i % 2 == 0)
   10ce4:	e0bfdd17 	ldw	r2,-140(fp)
   10ce8:	1080004c 	andi	r2,r2,1
   10cec:	1000131e 	bne	r2,zero,10d3c <FFT_remap+0xa4>
        {
            temp[i / 2] = src[i];
   10cf0:	e0bfdd17 	ldw	r2,-140(fp)
   10cf4:	1006d7fa 	srli	r3,r2,31
   10cf8:	1885883a 	add	r2,r3,r2
   10cfc:	1005d07a 	srai	r2,r2,1
   10d00:	1007883a 	mov	r3,r2
   10d04:	e0bfdd17 	ldw	r2,-140(fp)
   10d08:	1085883a 	add	r2,r2,r2
   10d0c:	1085883a 	add	r2,r2,r2
   10d10:	1009883a 	mov	r4,r2
   10d14:	e0bffe17 	ldw	r2,-8(fp)
   10d18:	1105883a 	add	r2,r2,r4
   10d1c:	11000017 	ldw	r4,0(r2)
   10d20:	18c5883a 	add	r2,r3,r3
   10d24:	1085883a 	add	r2,r2,r2
   10d28:	e0ffdd04 	addi	r3,fp,-140
   10d2c:	1885883a 	add	r2,r3,r2
   10d30:	10800104 	addi	r2,r2,4
   10d34:	11000015 	stw	r4,0(r2)
   10d38:	00001406 	br	10d8c <FFT_remap+0xf4>
        }
        else  
        {
            temp[(size_n + i) / 2] = src[i];
   10d3c:	e0ffff17 	ldw	r3,-4(fp)
   10d40:	e0bfdd17 	ldw	r2,-140(fp)
   10d44:	1885883a 	add	r2,r3,r2
   10d48:	1006d7fa 	srli	r3,r2,31
   10d4c:	1885883a 	add	r2,r3,r2
   10d50:	1005d07a 	srai	r2,r2,1
   10d54:	1007883a 	mov	r3,r2
   10d58:	e0bfdd17 	ldw	r2,-140(fp)
   10d5c:	1085883a 	add	r2,r2,r2
   10d60:	1085883a 	add	r2,r2,r2
   10d64:	1009883a 	mov	r4,r2
   10d68:	e0bffe17 	ldw	r2,-8(fp)
   10d6c:	1105883a 	add	r2,r2,r4
   10d70:	11000017 	ldw	r4,0(r2)
   10d74:	18c5883a 	add	r2,r3,r3
   10d78:	1085883a 	add	r2,r2,r2
   10d7c:	e0ffdd04 	addi	r3,fp,-140
   10d80:	1885883a 	add	r2,r3,r2
   10d84:	10800104 	addi	r2,r2,4
   10d88:	11000015 	stw	r4,0(r2)
    float temp[32] = {0};
    if(size_n == 1)
    {
        return 0;
    }
    for(i = 0; i < size_n; i++)
   10d8c:	e0bfdd17 	ldw	r2,-140(fp)
   10d90:	10800044 	addi	r2,r2,1
   10d94:	e0bfdd15 	stw	r2,-140(fp)
   10d98:	e0ffdd17 	ldw	r3,-140(fp)
   10d9c:	e0bfff17 	ldw	r2,-4(fp)
   10da0:	18bfd016 	blt	r3,r2,10ce4 <_gp+0xfffecc84>
        else  
        {
            temp[(size_n + i) / 2] = src[i];
        }
    }
    for(i = 0; i < size_n; i++)
   10da4:	e03fdd15 	stw	zero,-140(fp)
   10da8:	00001106 	br	10df0 <FFT_remap+0x158>
    {
        src[i] = temp[i];
   10dac:	e0bfdd17 	ldw	r2,-140(fp)
   10db0:	1085883a 	add	r2,r2,r2
   10db4:	1085883a 	add	r2,r2,r2
   10db8:	1007883a 	mov	r3,r2
   10dbc:	e0bffe17 	ldw	r2,-8(fp)
   10dc0:	10c7883a 	add	r3,r2,r3
   10dc4:	e0bfdd17 	ldw	r2,-140(fp)
   10dc8:	1085883a 	add	r2,r2,r2
   10dcc:	1085883a 	add	r2,r2,r2
   10dd0:	e13fdd04 	addi	r4,fp,-140
   10dd4:	2085883a 	add	r2,r4,r2
   10dd8:	11000104 	addi	r4,r2,4
   10ddc:	20800017 	ldw	r2,0(r4)
   10de0:	18800015 	stw	r2,0(r3)
        else  
        {
            temp[(size_n + i) / 2] = src[i];
        }
    }
    for(i = 0; i < size_n; i++)
   10de4:	e0bfdd17 	ldw	r2,-140(fp)
   10de8:	10800044 	addi	r2,r2,1
   10dec:	e0bfdd15 	stw	r2,-140(fp)
   10df0:	e0ffdd17 	ldw	r3,-140(fp)
   10df4:	e0bfff17 	ldw	r2,-4(fp)
   10df8:	18bfec16 	blt	r3,r2,10dac <_gp+0xfffecd4c>
    {
        src[i] = temp[i];
    }
    FFT_remap(src, size_n/2);  
   10dfc:	e0bfff17 	ldw	r2,-4(fp)
   10e00:	1006d7fa 	srli	r3,r2,31
   10e04:	1885883a 	add	r2,r3,r2
   10e08:	1005d07a 	srai	r2,r2,1
   10e0c:	100b883a 	mov	r5,r2
   10e10:	e13ffe17 	ldw	r4,-8(fp)
   10e14:	0010c980 	call	10c98 <FFT_remap>
    FFT_remap(src+size_n/2, size_n/2);  
   10e18:	e0bfff17 	ldw	r2,-4(fp)
   10e1c:	1006d7fa 	srli	r3,r2,31
   10e20:	1885883a 	add	r2,r3,r2
   10e24:	1005d07a 	srai	r2,r2,1
   10e28:	1085883a 	add	r2,r2,r2
   10e2c:	1085883a 	add	r2,r2,r2
   10e30:	1007883a 	mov	r3,r2
   10e34:	e0bffe17 	ldw	r2,-8(fp)
   10e38:	10c9883a 	add	r4,r2,r3
   10e3c:	e0bfff17 	ldw	r2,-4(fp)
   10e40:	1006d7fa 	srli	r3,r2,31
   10e44:	1885883a 	add	r2,r3,r2
   10e48:	1005d07a 	srai	r2,r2,1
   10e4c:	100b883a 	mov	r5,r2
   10e50:	0010c980 	call	10c98 <FFT_remap>
    return 1;  
   10e54:	00800044 	movi	r2,1
}  
   10e58:	e037883a 	mov	sp,fp
   10e5c:	dfc00117 	ldw	ra,4(sp)
   10e60:	df000017 	ldw	fp,0(sp)
   10e64:	dec00204 	addi	sp,sp,8
   10e68:	f800283a 	ret

00010e6c <FFT>:

////////////////////////////////////////////////////////////////////  
//璇叉唉椤椤т绘T浣瑰х椤茬圭垮╂刊规靛诲寒缁辨╅颁焦缂缁㈠兼晶搴ㄥ纰锋俊妞块浠姊洪稿海哄瀵妯煎婵靛Тょ博绢界靛垮遍淇椤姘兼缂肩ゆい蹇瀚婵姊洪濠绗婵☆ｆ⒒峰㈤搴㈢缁绮告ㄥ锋ャュ洪轰礁绉舵锕婢跺寒瑰┑差婵浼村绢癸拷濞达灏ㄩ风芥ｉ婵澶介锛锟介搁
///////////////////////////////////////////////////////////////////  
void FFT(float * src, Complex * dst, int size_n)
{
   10e6c:	deffb104 	addi	sp,sp,-316
   10e70:	dfc04e15 	stw	ra,312(sp)
   10e74:	df004d15 	stw	fp,308(sp)
   10e78:	dc004c15 	stw	r16,304(sp)
   10e7c:	df004d04 	addi	fp,sp,308
   10e80:	e13ffc15 	stw	r4,-16(fp)
   10e84:	e17ffd15 	stw	r5,-12(fp)
   10e88:	e1bffe15 	stw	r6,-8(fp)
	int i,j;
	int k=size_n;
   10e8c:	e0bffe17 	ldw	r2,-8(fp)
   10e90:	e0bfb515 	stw	r2,-300(fp)
	int z=0;
   10e94:	e03fb615 	stw	zero,-296(fp)
    FFT_remap(src, size_n); 
   10e98:	e17ffe17 	ldw	r5,-8(fp)
   10e9c:	e13ffc17 	ldw	r4,-16(fp)
   10ea0:	0010c980 	call	10c98 <FFT_remap>

    while (k/=2)
   10ea4:	00000306 	br	10eb4 <FFT+0x48>
    {
        z++;  
   10ea8:	e0bfb617 	ldw	r2,-296(fp)
   10eac:	10800044 	addi	r2,r2,1
   10eb0:	e0bfb615 	stw	r2,-296(fp)
	int i,j;
	int k=size_n;
	int z=0;
    FFT_remap(src, size_n); 

    while (k/=2)
   10eb4:	e0bfb517 	ldw	r2,-300(fp)
   10eb8:	1006d7fa 	srli	r3,r2,31
   10ebc:	1885883a 	add	r2,r3,r2
   10ec0:	1005d07a 	srai	r2,r2,1
   10ec4:	e0bfb515 	stw	r2,-300(fp)
   10ec8:	e0bfb517 	ldw	r2,-300(fp)
   10ecc:	103ff61e 	bne	r2,zero,10ea8 <_gp+0xfffece48>
    {
        z++;  
    }  
    k=z;  
   10ed0:	e0bfb617 	ldw	r2,-296(fp)
   10ed4:	e0bfb515 	stw	r2,-300(fp)
    if(size_n!=(1<<k))
   10ed8:	00c00044 	movi	r3,1
   10edc:	e0bfb517 	ldw	r2,-300(fp)
   10ee0:	1886983a 	sll	r3,r3,r2
   10ee4:	e0bffe17 	ldw	r2,-8(fp)
   10ee8:	18800226 	beq	r3,r2,10ef4 <FFT+0x88>
    {
        exit(0);  
   10eec:	0009883a 	mov	r4,zero
   10ef0:	00187300 	call	18730 <exit>
    Complex src_com[32];
    if(src_com==NULL)  
    {
        exit(0);
    }
    for(i=0;i<size_n;i++)
   10ef4:	e03fb315 	stw	zero,-308(fp)
   10ef8:	00001606 	br	10f54 <FFT+0xe8>
    {
        src_com[i].real=src[i];  
   10efc:	e0bfb317 	ldw	r2,-308(fp)
   10f00:	1085883a 	add	r2,r2,r2
   10f04:	1085883a 	add	r2,r2,r2
   10f08:	1007883a 	mov	r3,r2
   10f0c:	e0bffc17 	ldw	r2,-16(fp)
   10f10:	10c5883a 	add	r2,r2,r3
   10f14:	10c00017 	ldw	r3,0(r2)
   10f18:	e0bfb317 	ldw	r2,-308(fp)
   10f1c:	100490fa 	slli	r2,r2,3
   10f20:	e13fb304 	addi	r4,fp,-308
   10f24:	2085883a 	add	r2,r4,r2
   10f28:	10800504 	addi	r2,r2,20
   10f2c:	10c00015 	stw	r3,0(r2)
        src_com[i].imagin=0;  
   10f30:	e0bfb317 	ldw	r2,-308(fp)
   10f34:	100490fa 	slli	r2,r2,3
   10f38:	e0ffb304 	addi	r3,fp,-308
   10f3c:	1885883a 	add	r2,r3,r2
   10f40:	10800604 	addi	r2,r2,24
   10f44:	10000015 	stw	zero,0(r2)
    Complex src_com[32];
    if(src_com==NULL)  
    {
        exit(0);
    }
    for(i=0;i<size_n;i++)
   10f48:	e0bfb317 	ldw	r2,-308(fp)
   10f4c:	10800044 	addi	r2,r2,1
   10f50:	e0bfb315 	stw	r2,-308(fp)
   10f54:	e0ffb317 	ldw	r3,-308(fp)
   10f58:	e0bffe17 	ldw	r2,-8(fp)
   10f5c:	18bfe716 	blt	r3,r2,10efc <_gp+0xfffece9c>
    {
        src_com[i].real=src[i];  
        src_com[i].imagin=0;  
    }
    for(i=0;i<k;i++)
   10f60:	e03fb315 	stw	zero,-308(fp)
   10f64:	00006d06 	br	1111c <FFT+0x2b0>
    {
        z=0;  
   10f68:	e03fb615 	stw	zero,-296(fp)
        for(j=0;j<size_n;j++)
   10f6c:	e03fb415 	stw	zero,-304(fp)
   10f70:	00006406 	br	11104 <FFT+0x298>
        {
            if((j/(1<<i))%2==1)
   10f74:	00c00044 	movi	r3,1
   10f78:	e0bfb317 	ldw	r2,-308(fp)
   10f7c:	1884983a 	sll	r2,r3,r2
   10f80:	100b883a 	mov	r5,r2
   10f84:	e13fb417 	ldw	r4,-304(fp)
   10f88:	00149bc0 	call	149bc <__divsi3>
   10f8c:	1007883a 	mov	r3,r2
   10f90:	00a00034 	movhi	r2,32768
   10f94:	10800044 	addi	r2,r2,1
   10f98:	1884703a 	and	r2,r3,r2
   10f9c:	1000040e 	bge	r2,zero,10fb0 <FFT+0x144>
   10fa0:	10bfffc4 	addi	r2,r2,-1
   10fa4:	00ffff84 	movi	r3,-2
   10fa8:	10c4b03a 	or	r2,r2,r3
   10fac:	10800044 	addi	r2,r2,1
   10fb0:	10800058 	cmpnei	r2,r2,1
   10fb4:	10004f1e 	bne	r2,zero,110f4 <FFT+0x288>
            {
                Complex wn;  
                getWN(z, size_n, &wn);  
   10fb8:	e13fb617 	ldw	r4,-296(fp)
   10fbc:	0015dc80 	call	15dc8 <__floatsisf>
   10fc0:	1021883a 	mov	r16,r2
   10fc4:	e13ffe17 	ldw	r4,-8(fp)
   10fc8:	0015dc80 	call	15dc8 <__floatsisf>
   10fcc:	1007883a 	mov	r3,r2
   10fd0:	e0bff804 	addi	r2,fp,-32
   10fd4:	100d883a 	mov	r6,r2
   10fd8:	180b883a 	mov	r5,r3
   10fdc:	8009883a 	mov	r4,r16
   10fe0:	0010b540 	call	10b54 <getWN>
                Multy_Complex(&src_com[j], &wn,&src_com[j]);  
   10fe4:	e0ffb804 	addi	r3,fp,-288
   10fe8:	e0bfb417 	ldw	r2,-304(fp)
   10fec:	100490fa 	slli	r2,r2,3
   10ff0:	1889883a 	add	r4,r3,r2
   10ff4:	e0ffb804 	addi	r3,fp,-288
   10ff8:	e0bfb417 	ldw	r2,-304(fp)
   10ffc:	100490fa 	slli	r2,r2,3
   11000:	1887883a 	add	r3,r3,r2
   11004:	e0bff804 	addi	r2,fp,-32
   11008:	180d883a 	mov	r6,r3
   1100c:	100b883a 	mov	r5,r2
   11010:	0010a500 	call	10a50 <Multy_Complex>
                z+=1<<(k-i-1);  
   11014:	e0ffb517 	ldw	r3,-300(fp)
   11018:	e0bfb317 	ldw	r2,-308(fp)
   1101c:	1885c83a 	sub	r2,r3,r2
   11020:	10bfffc4 	addi	r2,r2,-1
   11024:	00c00044 	movi	r3,1
   11028:	1884983a 	sll	r2,r3,r2
   1102c:	e0ffb617 	ldw	r3,-296(fp)
   11030:	1885883a 	add	r2,r3,r2
   11034:	e0bfb615 	stw	r2,-296(fp)
                Complex temp;  
                int neighbour=j-(1<<(i));  
   11038:	00c00044 	movi	r3,1
   1103c:	e0bfb317 	ldw	r2,-308(fp)
   11040:	1884983a 	sll	r2,r3,r2
   11044:	e0ffb417 	ldw	r3,-304(fp)
   11048:	1885c83a 	sub	r2,r3,r2
   1104c:	e0bfb715 	stw	r2,-292(fp)
                temp.real=src_com[neighbour].real;  
   11050:	e0bfb717 	ldw	r2,-292(fp)
   11054:	100490fa 	slli	r2,r2,3
   11058:	e13fb304 	addi	r4,fp,-308
   1105c:	2085883a 	add	r2,r4,r2
   11060:	10c00504 	addi	r3,r2,20
   11064:	18800017 	ldw	r2,0(r3)
   11068:	e0bffa15 	stw	r2,-24(fp)
                temp.imagin=src_com[neighbour].imagin;  
   1106c:	e0bfb717 	ldw	r2,-292(fp)
   11070:	100490fa 	slli	r2,r2,3
   11074:	e0ffb304 	addi	r3,fp,-308
   11078:	1885883a 	add	r2,r3,r2
   1107c:	10c00604 	addi	r3,r2,24
   11080:	18800017 	ldw	r2,0(r3)
   11084:	e0bffb15 	stw	r2,-20(fp)
                Add_Complex(&temp, &src_com[j], &src_com[neighbour]);  
   11088:	e0ffb804 	addi	r3,fp,-288
   1108c:	e0bfb417 	ldw	r2,-304(fp)
   11090:	100490fa 	slli	r2,r2,3
   11094:	1889883a 	add	r4,r3,r2
   11098:	e0ffb804 	addi	r3,fp,-288
   1109c:	e0bfb717 	ldw	r2,-292(fp)
   110a0:	100490fa 	slli	r2,r2,3
   110a4:	1887883a 	add	r3,r3,r2
   110a8:	e0bffa04 	addi	r2,fp,-24
   110ac:	180d883a 	mov	r6,r3
   110b0:	200b883a 	mov	r5,r4
   110b4:	1009883a 	mov	r4,r2
   110b8:	00109380 	call	10938 <Add_Complex>
                Sub_Complex(&temp, &src_com[j], &src_com[j]);  
   110bc:	e0ffb804 	addi	r3,fp,-288
   110c0:	e0bfb417 	ldw	r2,-304(fp)
   110c4:	100490fa 	slli	r2,r2,3
   110c8:	1889883a 	add	r4,r3,r2
   110cc:	e0ffb804 	addi	r3,fp,-288
   110d0:	e0bfb417 	ldw	r2,-304(fp)
   110d4:	100490fa 	slli	r2,r2,3
   110d8:	1887883a 	add	r3,r3,r2
   110dc:	e0bffa04 	addi	r2,fp,-24
   110e0:	180d883a 	mov	r6,r3
   110e4:	200b883a 	mov	r5,r4
   110e8:	1009883a 	mov	r4,r2
   110ec:	00109c40 	call	109c4 <Sub_Complex>
   110f0:	00000106 	br	110f8 <FFT+0x28c>
            }  
            else  
            {
                z=0;
   110f4:	e03fb615 	stw	zero,-296(fp)
        src_com[i].imagin=0;  
    }
    for(i=0;i<k;i++)
    {
        z=0;  
        for(j=0;j<size_n;j++)
   110f8:	e0bfb417 	ldw	r2,-304(fp)
   110fc:	10800044 	addi	r2,r2,1
   11100:	e0bfb415 	stw	r2,-304(fp)
   11104:	e0ffb417 	ldw	r3,-304(fp)
   11108:	e0bffe17 	ldw	r2,-8(fp)
   1110c:	18bf9916 	blt	r3,r2,10f74 <_gp+0xfffecf14>
    for(i=0;i<size_n;i++)
    {
        src_com[i].real=src[i];  
        src_com[i].imagin=0;  
    }
    for(i=0;i<k;i++)
   11110:	e0bfb317 	ldw	r2,-308(fp)
   11114:	10800044 	addi	r2,r2,1
   11118:	e0bfb315 	stw	r2,-308(fp)
   1111c:	e0ffb317 	ldw	r3,-308(fp)
   11120:	e0bfb517 	ldw	r2,-300(fp)
   11124:	18bf9016 	blt	r3,r2,10f68 <_gp+0xfffecf08>
//        }
//        else
//            printf("%d%dj\n",(int)(src_com[i].real * 1000000),(int)(src_com[i].imagin * 1000000));
//   }
//    LOG_DEBUG("fft result:");
    for(i=0 ; i < size_n; i++)
   11128:	e03fb315 	stw	zero,-308(fp)
   1112c:	00001906 	br	11194 <FFT+0x328>
    {
        dst[i].imagin = src_com[i].imagin;
   11130:	e0bfb317 	ldw	r2,-308(fp)
   11134:	100490fa 	slli	r2,r2,3
   11138:	e0fffd17 	ldw	r3,-12(fp)
   1113c:	1885883a 	add	r2,r3,r2
   11140:	e0ffb317 	ldw	r3,-308(fp)
   11144:	180690fa 	slli	r3,r3,3
   11148:	e13fb304 	addi	r4,fp,-308
   1114c:	20c7883a 	add	r3,r4,r3
   11150:	19000604 	addi	r4,r3,24
   11154:	20c00017 	ldw	r3,0(r4)
   11158:	10c00115 	stw	r3,4(r2)
        dst[i].real = src_com[i].real;
   1115c:	e0bfb317 	ldw	r2,-308(fp)
   11160:	100490fa 	slli	r2,r2,3
   11164:	e0fffd17 	ldw	r3,-12(fp)
   11168:	1885883a 	add	r2,r3,r2
   1116c:	e0ffb317 	ldw	r3,-308(fp)
   11170:	180690fa 	slli	r3,r3,3
   11174:	e13fb304 	addi	r4,fp,-308
   11178:	20c7883a 	add	r3,r4,r3
   1117c:	19000504 	addi	r4,r3,20
   11180:	20c00017 	ldw	r3,0(r4)
   11184:	10c00015 	stw	r3,0(r2)
//        }
//        else
//            printf("%d%dj\n",(int)(src_com[i].real * 1000000),(int)(src_com[i].imagin * 1000000));
//   }
//    LOG_DEBUG("fft result:");
    for(i=0 ; i < size_n; i++)
   11188:	e0bfb317 	ldw	r2,-308(fp)
   1118c:	10800044 	addi	r2,r2,1
   11190:	e0bfb315 	stw	r2,-308(fp)
   11194:	e0ffb317 	ldw	r3,-308(fp)
   11198:	e0bffe17 	ldw	r2,-8(fp)
   1119c:	18bfe416 	blt	r3,r2,11130 <_gp+0xfffed0d0>
    {
        dst[i].imagin = src_com[i].imagin;
        dst[i].real = src_com[i].real;
//        printf("%d + %d i\r\n", dst[i].real, dst[i].imagin);
    }
}
   111a0:	0001883a 	nop
   111a4:	e6ffff04 	addi	sp,fp,-4
   111a8:	dfc00217 	ldw	ra,8(sp)
   111ac:	df000117 	ldw	fp,4(sp)
   111b0:	dc000017 	ldw	r16,0(sp)
   111b4:	dec00304 	addi	sp,sp,12
   111b8:	f800283a 	ret

000111bc <getBeginMessge>:
FreInfo FInfo = {0,0,0,0};
TestMessage ReceiveMessage = {0,0,0,0,0};
OutputMessage Result = {0};

int getBeginMessge()
{
   111bc:	deffff04 	addi	sp,sp,-4
   111c0:	df000015 	stw	fp,0(sp)
   111c4:	d839883a 	mov	fp,sp
//	return 0;
//	return 1;
	return ReceiveMessage.getMessege;
   111c8:	008000b4 	movhi	r2,2
   111cc:	10b1f204 	addi	r2,r2,-14392
   111d0:	10800417 	ldw	r2,16(r2)
}
   111d4:	e037883a 	mov	sp,fp
   111d8:	df000017 	ldw	fp,0(sp)
   111dc:	dec00104 	addi	sp,sp,4
   111e0:	f800283a 	ret

000111e4 <setDDSFre>:

void setDDSFre()
{
   111e4:	defffd04 	addi	sp,sp,-12
   111e8:	dfc00215 	stw	ra,8(sp)
   111ec:	df000115 	stw	fp,4(sp)
   111f0:	df000104 	addi	fp,sp,4
	AD9833_WaveSeting(FInfo.CurFre, 0, SIN_WAVE, 0);
   111f4:	010000b4 	movhi	r4,2
   111f8:	2131ec04 	addi	r4,r4,-14416
   111fc:	20800017 	ldw	r2,0(r4)
   11200:	20c00117 	ldw	r3,4(r4)
   11204:	d8000015 	stw	zero,0(sp)
   11208:	01c00044 	movi	r7,1
   1120c:	000d883a 	mov	r6,zero
   11210:	1009883a 	mov	r4,r2
   11214:	180b883a 	mov	r5,r3
   11218:	00107740 	call	10774 <AD9833_WaveSeting>
	IOWR_ALTERA_AVALON_PIO_DATA(PIO_INPUT_BASE, FInfo.divideFre);
   1121c:	008000b4 	movhi	r2,2
   11220:	10b1ec04 	addi	r2,r2,-14416
   11224:	10c00417 	ldw	r3,16(r2)
   11228:	008000b4 	movhi	r2,2
   1122c:	10881c04 	addi	r2,r2,8304
   11230:	10c00035 	stwio	r3,0(r2)
	IOWR_ALTERA_AVALON_PIO_DATA(PIO_OUTPUT_BASE, FInfo.divideFre);
   11234:	008000b4 	movhi	r2,2
   11238:	10b1ec04 	addi	r2,r2,-14416
   1123c:	10c00417 	ldw	r3,16(r2)
   11240:	008000b4 	movhi	r2,2
   11244:	10882004 	addi	r2,r2,8320
   11248:	10c00035 	stwio	r3,0(r2)

	IOWR_ALTERA_AVALON_PIO_DATA(PIO_RST_BASE,0);
   1124c:	0007883a 	mov	r3,zero
   11250:	008000b4 	movhi	r2,2
   11254:	10882804 	addi	r2,r2,8352
   11258:	10c00035 	stwio	r3,0(r2)
	delay();
   1125c:	0011ba80 	call	11ba8 <delay>
	IOWR_ALTERA_AVALON_PIO_DATA(PIO_RST_BASE,1);
   11260:	00c00044 	movi	r3,1
   11264:	008000b4 	movhi	r2,2
   11268:	10882804 	addi	r2,r2,8352
   1126c:	10c00035 	stwio	r3,0(r2)
	IOWR_ALTERA_AVALON_PIO_DATA(PIO_START_BASE,1);
   11270:	00c00044 	movi	r3,1
   11274:	008000b4 	movhi	r2,2
   11278:	10882404 	addi	r2,r2,8336
   1127c:	10c00035 	stwio	r3,0(r2)

	if (FInfo.divideFre <= 200000 && FInfo.divideFre > 20000) {
   11280:	008000b4 	movhi	r2,2
   11284:	10b1ec04 	addi	r2,r2,-14416
   11288:	10c00417 	ldw	r3,16(r2)
   1128c:	008000f4 	movhi	r2,3
   11290:	10835004 	addi	r2,r2,3392
   11294:	10c00d16 	blt	r2,r3,112cc <setDDSFre+0xe8>
   11298:	008000b4 	movhi	r2,2
   1129c:	10b1ec04 	addi	r2,r2,-14416
   112a0:	10800417 	ldw	r2,16(r2)
   112a4:	10938850 	cmplti	r2,r2,20001
   112a8:	1000081e 	bne	r2,zero,112cc <setDDSFre+0xe8>
		FInfo.divideFre = FInfo.divideFre - 2000;
   112ac:	008000b4 	movhi	r2,2
   112b0:	10b1ec04 	addi	r2,r2,-14416
   112b4:	10800417 	ldw	r2,16(r2)
   112b8:	10fe0c04 	addi	r3,r2,-2000
   112bc:	008000b4 	movhi	r2,2
   112c0:	10b1ec04 	addi	r2,r2,-14416
   112c4:	10c00415 	stw	r3,16(r2)
   112c8:	00004706 	br	113e8 <setDDSFre+0x204>
	}
	else if (FInfo.divideFre <= 20000 && FInfo.divideFre > 2000) {
   112cc:	008000b4 	movhi	r2,2
   112d0:	10b1ec04 	addi	r2,r2,-14416
   112d4:	10800417 	ldw	r2,16(r2)
   112d8:	10938848 	cmpgei	r2,r2,20001
   112dc:	10000d1e 	bne	r2,zero,11314 <setDDSFre+0x130>
   112e0:	008000b4 	movhi	r2,2
   112e4:	10b1ec04 	addi	r2,r2,-14416
   112e8:	10800417 	ldw	r2,16(r2)
   112ec:	1081f450 	cmplti	r2,r2,2001
   112f0:	1000081e 	bne	r2,zero,11314 <setDDSFre+0x130>
		FInfo.divideFre = FInfo.divideFre - 200;
   112f4:	008000b4 	movhi	r2,2
   112f8:	10b1ec04 	addi	r2,r2,-14416
   112fc:	10800417 	ldw	r2,16(r2)
   11300:	10ffce04 	addi	r3,r2,-200
   11304:	008000b4 	movhi	r2,2
   11308:	10b1ec04 	addi	r2,r2,-14416
   1130c:	10c00415 	stw	r3,16(r2)
   11310:	00003506 	br	113e8 <setDDSFre+0x204>
	}
	else if (FInfo.divideFre <= 2000 && FInfo.divideFre > 200) {
   11314:	008000b4 	movhi	r2,2
   11318:	10b1ec04 	addi	r2,r2,-14416
   1131c:	10800417 	ldw	r2,16(r2)
   11320:	1081f448 	cmpgei	r2,r2,2001
   11324:	10000d1e 	bne	r2,zero,1135c <setDDSFre+0x178>
   11328:	008000b4 	movhi	r2,2
   1132c:	10b1ec04 	addi	r2,r2,-14416
   11330:	10800417 	ldw	r2,16(r2)
   11334:	10803250 	cmplti	r2,r2,201
   11338:	1000081e 	bne	r2,zero,1135c <setDDSFre+0x178>
		FInfo.divideFre = FInfo.divideFre - 20;
   1133c:	008000b4 	movhi	r2,2
   11340:	10b1ec04 	addi	r2,r2,-14416
   11344:	10800417 	ldw	r2,16(r2)
   11348:	10fffb04 	addi	r3,r2,-20
   1134c:	008000b4 	movhi	r2,2
   11350:	10b1ec04 	addi	r2,r2,-14416
   11354:	10c00415 	stw	r3,16(r2)
   11358:	00002306 	br	113e8 <setDDSFre+0x204>
	}
	else if (FInfo.divideFre <= 200 && FInfo.divideFre > 20) {
   1135c:	008000b4 	movhi	r2,2
   11360:	10b1ec04 	addi	r2,r2,-14416
   11364:	10800417 	ldw	r2,16(r2)
   11368:	10803248 	cmpgei	r2,r2,201
   1136c:	10000d1e 	bne	r2,zero,113a4 <setDDSFre+0x1c0>
   11370:	008000b4 	movhi	r2,2
   11374:	10b1ec04 	addi	r2,r2,-14416
   11378:	10800417 	ldw	r2,16(r2)
   1137c:	10800550 	cmplti	r2,r2,21
   11380:	1000081e 	bne	r2,zero,113a4 <setDDSFre+0x1c0>
		FInfo.divideFre = FInfo.divideFre - 2;
   11384:	008000b4 	movhi	r2,2
   11388:	10b1ec04 	addi	r2,r2,-14416
   1138c:	10800417 	ldw	r2,16(r2)
   11390:	10ffff84 	addi	r3,r2,-2
   11394:	008000b4 	movhi	r2,2
   11398:	10b1ec04 	addi	r2,r2,-14416
   1139c:	10c00415 	stw	r3,16(r2)
   113a0:	00001106 	br	113e8 <setDDSFre+0x204>
	}
	else if (FInfo.divideFre <= 20 && FInfo.divideFre > 2) {
   113a4:	008000b4 	movhi	r2,2
   113a8:	10b1ec04 	addi	r2,r2,-14416
   113ac:	10800417 	ldw	r2,16(r2)
   113b0:	10800548 	cmpgei	r2,r2,21
   113b4:	10000c1e 	bne	r2,zero,113e8 <setDDSFre+0x204>
   113b8:	008000b4 	movhi	r2,2
   113bc:	10b1ec04 	addi	r2,r2,-14416
   113c0:	10800417 	ldw	r2,16(r2)
   113c4:	108000d0 	cmplti	r2,r2,3
   113c8:	1000071e 	bne	r2,zero,113e8 <setDDSFre+0x204>
		FInfo.divideFre = FInfo.divideFre - 1;
   113cc:	008000b4 	movhi	r2,2
   113d0:	10b1ec04 	addi	r2,r2,-14416
   113d4:	10800417 	ldw	r2,16(r2)
   113d8:	10ffffc4 	addi	r3,r2,-1
   113dc:	008000b4 	movhi	r2,2
   113e0:	10b1ec04 	addi	r2,r2,-14416
   113e4:	10c00415 	stw	r3,16(r2)
	}

	FInfo.CurFre = 3125000 / (float)FInfo.divideFre;
   113e8:	008000b4 	movhi	r2,2
   113ec:	10b1ec04 	addi	r2,r2,-14416
   113f0:	10800417 	ldw	r2,16(r2)
   113f4:	1009883a 	mov	r4,r2
   113f8:	0015dc80 	call	15dc8 <__floatsisf>
   113fc:	1007883a 	mov	r3,r2
   11400:	180b883a 	mov	r5,r3
   11404:	01128ff4 	movhi	r4,19007
   11408:	212f0804 	addi	r4,r4,-17376
   1140c:	00150380 	call	15038 <__divsf3>
   11410:	1007883a 	mov	r3,r2
   11414:	1805883a 	mov	r2,r3
   11418:	1009883a 	mov	r4,r2
   1141c:	00183fc0 	call	183fc <__extendsfdf2>
   11420:	1009883a 	mov	r4,r2
   11424:	180b883a 	mov	r5,r3
   11428:	008000b4 	movhi	r2,2
   1142c:	10b1ec04 	addi	r2,r2,-14416
   11430:	11000015 	stw	r4,0(r2)
   11434:	11400115 	stw	r5,4(r2)

//	LOG_DEBUG("next fre %d", (int)(FInfo.CurFre));
//	LOG_DEBUG("next num %d", FInfo.divideFre);
	if(FInfo.divideFre <= 3) {
   11438:	008000b4 	movhi	r2,2
   1143c:	10b1ec04 	addi	r2,r2,-14416
   11440:	10800417 	ldw	r2,16(r2)
   11444:	10800108 	cmpgei	r2,r2,4
   11448:	10000f1e 	bne	r2,zero,11488 <setDDSFre+0x2a4>
		FInfo.endTest = 1;
   1144c:	008000b4 	movhi	r2,2
   11450:	10b1ec04 	addi	r2,r2,-14416
   11454:	00c00044 	movi	r3,1
   11458:	10c00515 	stw	r3,20(r2)
		LOG_DEBUG("end test ");
   1145c:	01c000b4 	movhi	r7,2
   11460:	39ed1304 	addi	r7,r7,-19380
   11464:	01801504 	movi	r6,84
   11468:	014000b4 	movhi	r5,2
   1146c:	296cd004 	addi	r5,r5,-19648
   11470:	010000b4 	movhi	r4,2
   11474:	212cd404 	addi	r4,r4,-19632
   11478:	00187d40 	call	187d4 <printf>
   1147c:	010000b4 	movhi	r4,2
   11480:	212cda04 	addi	r4,r4,-19608
   11484:	00188c40 	call	188c4 <puts>
	}

	uart_input.receive_flag = 0;
   11488:	008000b4 	movhi	r2,2
   1148c:	10aeda04 	addi	r2,r2,-17560
   11490:	10000015 	stw	zero,0(r2)
	uart_output.receive_flag = 0;
   11494:	008000b4 	movhi	r2,2
   11498:	10af1204 	addi	r2,r2,-17336
   1149c:	10000015 	stw	zero,0(r2)
}
   114a0:	0001883a 	nop
   114a4:	e037883a 	mov	sp,fp
   114a8:	dfc00117 	ldw	ra,4(sp)
   114ac:	df000017 	ldw	fp,0(sp)
   114b0:	dec00204 	addi	sp,sp,8
   114b4:	f800283a 	ret

000114b8 <testIsOver>:

int testIsOver()
{
   114b8:	deffff04 	addi	sp,sp,-4
   114bc:	df000015 	stw	fp,0(sp)
   114c0:	d839883a 	mov	fp,sp
//	return 0;
	return FInfo.endTest;
   114c4:	008000b4 	movhi	r2,2
   114c8:	10b1ec04 	addi	r2,r2,-14416
   114cc:	10800517 	ldw	r2,20(r2)
}
   114d0:	e037883a 	mov	sp,fp
   114d4:	df000017 	ldw	fp,0(sp)
   114d8:	dec00104 	addi	sp,sp,4
   114dc:	f800283a 	ret

000114e0 <beginFFT>:

void beginFFT()
{
   114e0:	deffbd04 	addi	sp,sp,-268
   114e4:	dfc04215 	stw	ra,264(sp)
   114e8:	df004115 	stw	fp,260(sp)
   114ec:	dc004015 	stw	r16,256(sp)
   114f0:	df004104 	addi	fp,sp,260
	Complex result[SIZE];
	FFT(input,result,SIZE);
   114f4:	01800804 	movi	r6,32
   114f8:	e17fbf04 	addi	r5,fp,-260
   114fc:	010000b4 	movhi	r4,2
   11500:	2131ac04 	addi	r4,r4,-14672
   11504:	0010e6c0 	call	10e6c <FFT>

	Result.inputIm = result[1].imagin;
   11508:	e0ffc217 	ldw	r3,-248(fp)
   1150c:	008000b4 	movhi	r2,2
   11510:	10b1f704 	addi	r2,r2,-14372
   11514:	10c00115 	stw	r3,4(r2)
	Result.inputRe = result[1].real;
   11518:	e0ffc117 	ldw	r3,-252(fp)
   1151c:	008000b4 	movhi	r2,2
   11520:	10b1f704 	addi	r2,r2,-14372
   11524:	10c00015 	stw	r3,0(r2)
//	LOG_DEBUG("OK");
	printf("complex(%d, %d),\r\n", (int)(Result.inputRe * 10000), (int)(Result.inputIm * 10000));
   11528:	008000b4 	movhi	r2,2
   1152c:	10b1f704 	addi	r2,r2,-14372
   11530:	10c00017 	ldw	r3,0(r2)
   11534:	01518734 	movhi	r5,17948
   11538:	29500004 	addi	r5,r5,16384
   1153c:	1809883a 	mov	r4,r3
   11540:	00154780 	call	15478 <__mulsf3>
   11544:	1007883a 	mov	r3,r2
   11548:	1805883a 	mov	r2,r3
   1154c:	1009883a 	mov	r4,r2
   11550:	0015d580 	call	15d58 <__fixsfsi>
   11554:	1021883a 	mov	r16,r2
   11558:	008000b4 	movhi	r2,2
   1155c:	10b1f704 	addi	r2,r2,-14372
   11560:	10c00117 	ldw	r3,4(r2)
   11564:	01518734 	movhi	r5,17948
   11568:	29500004 	addi	r5,r5,16384
   1156c:	1809883a 	mov	r4,r3
   11570:	00154780 	call	15478 <__mulsf3>
   11574:	1007883a 	mov	r3,r2
   11578:	1805883a 	mov	r2,r3
   1157c:	1009883a 	mov	r4,r2
   11580:	0015d580 	call	15d58 <__fixsfsi>
   11584:	100d883a 	mov	r6,r2
   11588:	800b883a 	mov	r5,r16
   1158c:	010000b4 	movhi	r4,2
   11590:	212cdb04 	addi	r4,r4,-19604
   11594:	00187d40 	call	187d4 <printf>

	FFT(output,result,SIZE);
   11598:	01800804 	movi	r6,32
   1159c:	e17fbf04 	addi	r5,fp,-260
   115a0:	010000b4 	movhi	r4,2
   115a4:	2131cc04 	addi	r4,r4,-14544
   115a8:	0010e6c0 	call	10e6c <FFT>
	Result.outIm = result[1].imagin;
   115ac:	e0ffc217 	ldw	r3,-248(fp)
   115b0:	008000b4 	movhi	r2,2
   115b4:	10b1f704 	addi	r2,r2,-14372
   115b8:	10c00315 	stw	r3,12(r2)
	Result.outRe = result[1].real;
   115bc:	e0ffc117 	ldw	r3,-252(fp)
   115c0:	008000b4 	movhi	r2,2
   115c4:	10b1f704 	addi	r2,r2,-14372
   115c8:	10c00215 	stw	r3,8(r2)


	Result.fre = FInfo.CurFre;
   115cc:	010000b4 	movhi	r4,2
   115d0:	2131ec04 	addi	r4,r4,-14416
   115d4:	20800017 	ldw	r2,0(r4)
   115d8:	20c00117 	ldw	r3,4(r4)
   115dc:	010000b4 	movhi	r4,2
   115e0:	2131f704 	addi	r4,r4,-14372
   115e4:	20800415 	stw	r2,16(r4)
   115e8:	20c00515 	stw	r3,20(r4)
}
   115ec:	0001883a 	nop
   115f0:	e6ffff04 	addi	sp,fp,-4
   115f4:	dfc00217 	ldw	ra,8(sp)
   115f8:	df000117 	ldw	fp,4(sp)
   115fc:	dc000017 	ldw	r16,0(sp)
   11600:	dec00304 	addi	sp,sp,12
   11604:	f800283a 	ret

00011608 <sendMessage>:

void sendMessage()
{
   11608:	deffd104 	addi	sp,sp,-188
   1160c:	dfc02e15 	stw	ra,184(sp)
   11610:	df002d15 	stw	fp,180(sp)
   11614:	dcc02c15 	stw	r19,176(sp)
   11618:	dc802b15 	stw	r18,172(sp)
   1161c:	dc402a15 	stw	r17,168(sp)
   11620:	dc002915 	stw	r16,164(sp)
   11624:	df002d04 	addi	fp,sp,180
	unsigned char str[150] = {0};
   11628:	e0ffd604 	addi	r3,fp,-168
   1162c:	00802584 	movi	r2,150
   11630:	100d883a 	mov	r6,r2
   11634:	000b883a 	mov	r5,zero
   11638:	1809883a 	mov	r4,r3
   1163c:	00187780 	call	18778 <memset>

	sprintf(str,"{\"start\":\"data\",\"inRe\":%d,\"inIm\":%d,\"outRe\":%d,\"outIm\":%d,\"fre\":%u,\"end\":\"end\"}\n",
			(int)(Result.inputRe * 100000),(int)(Result.inputIm * 100000),(int)(Result.outRe * 100000),
   11640:	008000b4 	movhi	r2,2
   11644:	10b1f704 	addi	r2,r2,-14372
   11648:	10c00017 	ldw	r3,0(r2)
   1164c:	0151f0f4 	movhi	r5,18371
   11650:	29540004 	addi	r5,r5,20480
   11654:	1809883a 	mov	r4,r3
   11658:	00154780 	call	15478 <__mulsf3>
   1165c:	1007883a 	mov	r3,r2
   11660:	1805883a 	mov	r2,r3

void sendMessage()
{
	unsigned char str[150] = {0};

	sprintf(str,"{\"start\":\"data\",\"inRe\":%d,\"inIm\":%d,\"outRe\":%d,\"outIm\":%d,\"fre\":%u,\"end\":\"end\"}\n",
   11664:	1009883a 	mov	r4,r2
   11668:	0015d580 	call	15d58 <__fixsfsi>
   1166c:	1025883a 	mov	r18,r2
			(int)(Result.inputRe * 100000),(int)(Result.inputIm * 100000),(int)(Result.outRe * 100000),
   11670:	008000b4 	movhi	r2,2
   11674:	10b1f704 	addi	r2,r2,-14372
   11678:	10c00117 	ldw	r3,4(r2)
   1167c:	0151f0f4 	movhi	r5,18371
   11680:	29540004 	addi	r5,r5,20480
   11684:	1809883a 	mov	r4,r3
   11688:	00154780 	call	15478 <__mulsf3>
   1168c:	1007883a 	mov	r3,r2
   11690:	1805883a 	mov	r2,r3

void sendMessage()
{
	unsigned char str[150] = {0};

	sprintf(str,"{\"start\":\"data\",\"inRe\":%d,\"inIm\":%d,\"outRe\":%d,\"outIm\":%d,\"fre\":%u,\"end\":\"end\"}\n",
   11694:	1009883a 	mov	r4,r2
   11698:	0015d580 	call	15d58 <__fixsfsi>
   1169c:	1027883a 	mov	r19,r2
			(int)(Result.inputRe * 100000),(int)(Result.inputIm * 100000),(int)(Result.outRe * 100000),
   116a0:	008000b4 	movhi	r2,2
   116a4:	10b1f704 	addi	r2,r2,-14372
   116a8:	10c00217 	ldw	r3,8(r2)
   116ac:	0151f0f4 	movhi	r5,18371
   116b0:	29540004 	addi	r5,r5,20480
   116b4:	1809883a 	mov	r4,r3
   116b8:	00154780 	call	15478 <__mulsf3>
   116bc:	1007883a 	mov	r3,r2
   116c0:	1805883a 	mov	r2,r3

void sendMessage()
{
	unsigned char str[150] = {0};

	sprintf(str,"{\"start\":\"data\",\"inRe\":%d,\"inIm\":%d,\"outRe\":%d,\"outIm\":%d,\"fre\":%u,\"end\":\"end\"}\n",
   116c4:	1009883a 	mov	r4,r2
   116c8:	0015d580 	call	15d58 <__fixsfsi>
   116cc:	1021883a 	mov	r16,r2
			(int)(Result.inputRe * 100000),(int)(Result.inputIm * 100000),(int)(Result.outRe * 100000),
			(int)(Result.outIm * 100000),(unsigned int)(Result.fre * 100000));
   116d0:	008000b4 	movhi	r2,2
   116d4:	10b1f704 	addi	r2,r2,-14372
   116d8:	10c00317 	ldw	r3,12(r2)
   116dc:	0151f0f4 	movhi	r5,18371
   116e0:	29540004 	addi	r5,r5,20480
   116e4:	1809883a 	mov	r4,r3
   116e8:	00154780 	call	15478 <__mulsf3>
   116ec:	1007883a 	mov	r3,r2
   116f0:	1805883a 	mov	r2,r3

void sendMessage()
{
	unsigned char str[150] = {0};

	sprintf(str,"{\"start\":\"data\",\"inRe\":%d,\"inIm\":%d,\"outRe\":%d,\"outIm\":%d,\"fre\":%u,\"end\":\"end\"}\n",
   116f4:	1009883a 	mov	r4,r2
   116f8:	0015d580 	call	15d58 <__fixsfsi>
   116fc:	1023883a 	mov	r17,r2
			(int)(Result.inputRe * 100000),(int)(Result.inputIm * 100000),(int)(Result.outRe * 100000),
			(int)(Result.outIm * 100000),(unsigned int)(Result.fre * 100000));
   11700:	010000b4 	movhi	r4,2
   11704:	2131f704 	addi	r4,r4,-14372
   11708:	20800417 	ldw	r2,16(r4)
   1170c:	20c00517 	ldw	r3,20(r4)
   11710:	000d883a 	mov	r6,zero
   11714:	01d03e34 	movhi	r7,16632
   11718:	39da8004 	addi	r7,r7,27136
   1171c:	1009883a 	mov	r4,r2
   11720:	180b883a 	mov	r5,r3
   11724:	00171e40 	call	171e4 <__muldf3>
   11728:	1009883a 	mov	r4,r2
   1172c:	180b883a 	mov	r5,r3
   11730:	2005883a 	mov	r2,r4
   11734:	2807883a 	mov	r3,r5

void sendMessage()
{
	unsigned char str[150] = {0};

	sprintf(str,"{\"start\":\"data\",\"inRe\":%d,\"inIm\":%d,\"outRe\":%d,\"outIm\":%d,\"fre\":%u,\"end\":\"end\"}\n",
   11738:	1009883a 	mov	r4,r2
   1173c:	180b883a 	mov	r5,r3
   11740:	00149480 	call	14948 <__fixunsdfsi>
   11744:	d8800215 	stw	r2,8(sp)
   11748:	dc400115 	stw	r17,4(sp)
   1174c:	dc000015 	stw	r16,0(sp)
   11750:	980f883a 	mov	r7,r19
   11754:	900d883a 	mov	r6,r18
   11758:	014000b4 	movhi	r5,2
   1175c:	296ce004 	addi	r5,r5,-19584
   11760:	e13fd604 	addi	r4,fp,-168
   11764:	001893c0 	call	1893c <sprintf>
			(int)(Result.inputRe * 100000),(int)(Result.inputIm * 100000),(int)(Result.outRe * 100000),
			(int)(Result.outIm * 100000),(unsigned int)(Result.fre * 100000));
//	log_hex(str,strlen(str));
	uart.send_string(strlen(str),str);
   11768:	008000b4 	movhi	r2,2
   1176c:	10aea204 	addi	r2,r2,-17784
   11770:	14003517 	ldw	r16,212(r2)
   11774:	e13fd604 	addi	r4,fp,-168
   11778:	00189e40 	call	189e4 <strlen>
   1177c:	e17fd604 	addi	r5,fp,-168
   11780:	1009883a 	mov	r4,r2
   11784:	803ee83a 	callr	r16
	delay();
   11788:	0011ba80 	call	11ba8 <delay>
}
   1178c:	0001883a 	nop
   11790:	e6fffc04 	addi	sp,fp,-16
   11794:	dfc00517 	ldw	ra,20(sp)
   11798:	df000417 	ldw	fp,16(sp)
   1179c:	dcc00317 	ldw	r19,12(sp)
   117a0:	dc800217 	ldw	r18,8(sp)
   117a4:	dc400117 	ldw	r17,4(sp)
   117a8:	dc000017 	ldw	r16,0(sp)
   117ac:	dec00604 	addi	sp,sp,24
   117b0:	f800283a 	ret

000117b4 <sampleIsReady>:

int sampleIsReady()
{
   117b4:	deffff04 	addi	sp,sp,-4
   117b8:	df000015 	stw	fp,0(sp)
   117bc:	d839883a 	mov	fp,sp
//	return 1;
	return uart_input.receive_flag && uart_output.receive_flag;
   117c0:	008000b4 	movhi	r2,2
   117c4:	10aeda04 	addi	r2,r2,-17560
   117c8:	10800017 	ldw	r2,0(r2)
   117cc:	10000626 	beq	r2,zero,117e8 <sampleIsReady+0x34>
   117d0:	008000b4 	movhi	r2,2
   117d4:	10af1204 	addi	r2,r2,-17336
   117d8:	10800017 	ldw	r2,0(r2)
   117dc:	10000226 	beq	r2,zero,117e8 <sampleIsReady+0x34>
   117e0:	00800044 	movi	r2,1
   117e4:	00000106 	br	117ec <sampleIsReady+0x38>
   117e8:	0005883a 	mov	r2,zero
//	return uart_input.receive_flag;
}
   117ec:	e037883a 	mov	sp,fp
   117f0:	df000017 	ldw	fp,0(sp)
   117f4:	dec00104 	addi	sp,sp,4
   117f8:	f800283a 	ret

000117fc <init>:

void init()
{
   117fc:	defffe04 	addi	sp,sp,-8
   11800:	dfc00115 	stw	ra,4(sp)
   11804:	df000015 	stw	fp,0(sp)
   11808:	d839883a 	mov	fp,sp
	memset(&FInfo, 0, sizeof(FInfo));
   1180c:	01800604 	movi	r6,24
   11810:	000b883a 	mov	r5,zero
   11814:	010000b4 	movhi	r4,2
   11818:	2131ec04 	addi	r4,r4,-14416
   1181c:	00187780 	call	18778 <memset>
	memset(&ReceiveMessage, 0, sizeof(ReceiveMessage));
   11820:	01800504 	movi	r6,20
   11824:	000b883a 	mov	r5,zero
   11828:	010000b4 	movhi	r4,2
   1182c:	2131f204 	addi	r4,r4,-14392
   11830:	00187780 	call	18778 <memset>
	memset(&Result, 0, sizeof(Result));
   11834:	01800604 	movi	r6,24
   11838:	000b883a 	mov	r5,zero
   1183c:	010000b4 	movhi	r4,2
   11840:	2131f704 	addi	r4,r4,-14372
   11844:	00187780 	call	18778 <memset>
}
   11848:	0001883a 	nop
   1184c:	e037883a 	mov	sp,fp
   11850:	dfc00117 	ldw	ra,4(sp)
   11854:	df000017 	ldw	fp,0(sp)
   11858:	dec00204 	addi	sp,sp,8
   1185c:	f800283a 	ret

00011860 <show>:

void show(OutputMessage Result) {
   11860:	defffb04 	addi	sp,sp,-20
   11864:	df000015 	stw	fp,0(sp)
   11868:	d839883a 	mov	fp,sp
   1186c:	e1000115 	stw	r4,4(fp)
   11870:	e1400215 	stw	r5,8(fp)
   11874:	e1800315 	stw	r6,12(fp)
   11878:	e1c00415 	stw	r7,16(fp)
//	LOG_DEBUG("inputRe: %d", (int)(Result.inputRe));
//	LOG_DEBUG("inputIm: %d", (int)(Result.inputIm));
//	LOG_DEBUG("outRe: %d", (int)(Result.outRe));
//	LOG_DEBUG("outIm: %d", (int)(Result.outIm));
//	LOG_DEBUG("fre: %d", (int)(Result.fre));
}
   1187c:	0001883a 	nop
   11880:	e037883a 	mov	sp,fp
   11884:	df000017 	ldw	fp,0(sp)
   11888:	dec00504 	addi	sp,sp,20
   1188c:	f800283a 	ret

00011890 <msg_proc>:

int msg_proc(unsigned char *data, int length)
{
   11890:	defffc04 	addi	sp,sp,-16
   11894:	dfc00315 	stw	ra,12(sp)
   11898:	df000215 	stw	fp,8(sp)
   1189c:	df000204 	addi	fp,sp,8
   118a0:	e13ffe15 	stw	r4,-8(fp)
   118a4:	e17fff15 	stw	r5,-4(fp)
	if(NULL != strstr(data, "S f"))
   118a8:	014000b4 	movhi	r5,2
   118ac:	296cf504 	addi	r5,r5,-19500
   118b0:	e13ffe17 	ldw	r4,-8(fp)
   118b4:	0018a000 	call	18a00 <strstr>
   118b8:	10001326 	beq	r2,zero,11908 <msg_proc+0x78>
	{
		ReceiveMessage.getMessege = 1;
   118bc:	008000b4 	movhi	r2,2
   118c0:	10b1f204 	addi	r2,r2,-14392
   118c4:	00c00044 	movi	r3,1
   118c8:	10c00415 	stw	r3,16(r2)
		FInfo.CurFre = 15.625;
   118cc:	008000b4 	movhi	r2,2
   118d0:	10b1ec04 	addi	r2,r2,-14416
   118d4:	10000015 	stw	zero,0(r2)
   118d8:	00d00bf4 	movhi	r3,16431
   118dc:	18d00004 	addi	r3,r3,16384
   118e0:	10c00115 	stw	r3,4(r2)
		FInfo.divideFre = 100000;
   118e4:	008000b4 	movhi	r2,2
   118e8:	10b1ec04 	addi	r2,r2,-14416
   118ec:	00c000b4 	movhi	r3,2
   118f0:	18e1a804 	addi	r3,r3,-31072
   118f4:	10c00415 	stw	r3,16(r2)
		FInfo.endTest = 0;
   118f8:	008000b4 	movhi	r2,2
   118fc:	10b1ec04 	addi	r2,r2,-14416
   11900:	10000515 	stw	zero,20(r2)
   11904:	00000806 	br	11928 <msg_proc+0x98>

//		LOG_DEBUG("start");
	}
	else if(NULL != strstr(data, "stop"))
   11908:	014000b4 	movhi	r5,2
   1190c:	296cf604 	addi	r5,r5,-19496
   11910:	e13ffe17 	ldw	r4,-8(fp)
   11914:	0018a000 	call	18a00 <strstr>
   11918:	10000326 	beq	r2,zero,11928 <msg_proc+0x98>
	{
		ReceiveMessage.getMessege = 0;
   1191c:	008000b4 	movhi	r2,2
   11920:	10b1f204 	addi	r2,r2,-14392
   11924:	10000415 	stw	zero,16(r2)
//		LOG_DEBUG("end");
	}
	return 0;
   11928:	0005883a 	mov	r2,zero
}
   1192c:	e037883a 	mov	sp,fp
   11930:	dfc00117 	ldw	ra,4(sp)
   11934:	df000017 	ldw	fp,0(sp)
   11938:	dec00204 	addi	sp,sp,8
   1193c:	f800283a 	ret

00011940 <main>:
extern unsigned char inputData[64];
extern unsigned char outputData[64];

int main()
{
   11940:	defff904 	addi	sp,sp,-28
   11944:	dfc00615 	stw	ra,24(sp)
   11948:	df000515 	stw	fp,20(sp)
   1194c:	dc000415 	stw	r16,16(sp)
   11950:	df000504 	addi	fp,sp,20
	LOG_DEBUG("Hello from Nios II!");
   11954:	d1e00004 	addi	r7,gp,-32768
   11958:	01802b04 	movi	r6,172
   1195c:	014000b4 	movhi	r5,2
   11960:	296cd004 	addi	r5,r5,-19648
   11964:	010000b4 	movhi	r4,2
   11968:	212cf804 	addi	r4,r4,-19488
   1196c:	00187d40 	call	187d4 <printf>
   11970:	010000b4 	movhi	r4,2
   11974:	212cda04 	addi	r4,r4,-19608
   11978:	00188c40 	call	188c4 <puts>
	int i = 0,j = 0;
   1197c:	e03ffc15 	stw	zero,-16(fp)
   11980:	e03ffd15 	stw	zero,-12(fp)
	char str = "{\"start\":\"finished\",\"end\":\"end\"}\n";
   11984:	008000b4 	movhi	r2,2
   11988:	10ad0104 	addi	r2,r2,-19452
   1198c:	e0bffe05 	stb	r2,-8(fp)
	uart.init();
   11990:	008000b4 	movhi	r2,2
   11994:	10aea204 	addi	r2,r2,-17784
   11998:	10803617 	ldw	r2,216(r2)
   1199c:	103ee83a 	callr	r2
	uart_input.init();
   119a0:	008000b4 	movhi	r2,2
   119a4:	10aeda04 	addi	r2,r2,-17560
   119a8:	10803617 	ldw	r2,216(r2)
   119ac:	103ee83a 	callr	r2
	uart_output.init();
   119b0:	008000b4 	movhi	r2,2
   119b4:	10af1204 	addi	r2,r2,-17336
   119b8:	10803617 	ldw	r2,216(r2)
   119bc:	103ee83a 	callr	r2

	init();
   119c0:	00117fc0 	call	117fc <init>
	FInfo.CurFre = 15.625;
   119c4:	008000b4 	movhi	r2,2
   119c8:	10b1ec04 	addi	r2,r2,-14416
   119cc:	10000015 	stw	zero,0(r2)
   119d0:	00d00bf4 	movhi	r3,16431
   119d4:	18d00004 	addi	r3,r3,16384
   119d8:	10c00115 	stw	r3,4(r2)
	FInfo.divideFre = 200000;
   119dc:	008000b4 	movhi	r2,2
   119e0:	10b1ec04 	addi	r2,r2,-14416
   119e4:	00c000f4 	movhi	r3,3
   119e8:	18c35004 	addi	r3,r3,3392
   119ec:	10c00415 	stw	r3,16(r2)
	FInfo.endTest = 0;
   119f0:	008000b4 	movhi	r2,2
   119f4:	10b1ec04 	addi	r2,r2,-14416
   119f8:	10000515 	stw	zero,20(r2)

	for(i = 0; ;i++)
   119fc:	e03ffc15 	stw	zero,-16(fp)
	{
		if(uart.receive_flag == 1)
   11a00:	008000b4 	movhi	r2,2
   11a04:	10aea204 	addi	r2,r2,-17784
   11a08:	10800017 	ldw	r2,0(r2)
   11a0c:	10800058 	cmpnei	r2,r2,1
   11a10:	1000051e 	bne	r2,zero,11a28 <main+0xe8>
		{
			j = 1;
   11a14:	00800044 	movi	r2,1
   11a18:	e0bffd15 	stw	r2,-12(fp)
			uart.receive_flag = 0;
   11a1c:	008000b4 	movhi	r2,2
   11a20:	10aea204 	addi	r2,r2,-17784
   11a24:	10000015 	stw	zero,0(r2)
		}
		if(j != 0)
   11a28:	e0bffd17 	ldw	r2,-12(fp)
   11a2c:	10002626 	beq	r2,zero,11ac8 <main+0x188>
		{
			j++;
   11a30:	e0bffd17 	ldw	r2,-12(fp)
   11a34:	10800044 	addi	r2,r2,1
   11a38:	e0bffd15 	stw	r2,-12(fp)
			if(j > 1000)
   11a3c:	e0bffd17 	ldw	r2,-12(fp)
   11a40:	1080fa50 	cmplti	r2,r2,1001
   11a44:	1000201e 	bne	r2,zero,11ac8 <main+0x188>
			{
				LOG_DEBUG("wifi recieve %d data:", uart.receive_count);
   11a48:	008000b4 	movhi	r2,2
   11a4c:	10aea204 	addi	r2,r2,-17784
   11a50:	10800117 	ldw	r2,4(r2)
   11a54:	d8800015 	stw	r2,0(sp)
   11a58:	d1e00004 	addi	r7,gp,-32768
   11a5c:	01803104 	movi	r6,196
   11a60:	014000b4 	movhi	r5,2
   11a64:	296cd004 	addi	r5,r5,-19648
   11a68:	010000b4 	movhi	r4,2
   11a6c:	212d0a04 	addi	r4,r4,-19416
   11a70:	00187d40 	call	187d4 <printf>
   11a74:	010000b4 	movhi	r4,2
   11a78:	212cda04 	addi	r4,r4,-19608
   11a7c:	00188c40 	call	188c4 <puts>
				log_hex(uart.receive_buffer, uart.receive_count);
   11a80:	008000b4 	movhi	r2,2
   11a84:	10aea204 	addi	r2,r2,-17784
   11a88:	10800117 	ldw	r2,4(r2)
   11a8c:	100b883a 	mov	r5,r2
   11a90:	010000b4 	movhi	r4,2
   11a94:	212ea404 	addi	r4,r4,-17776
   11a98:	0011be80 	call	11be8 <log_hex>
				msg_proc(uart.receive_buffer, uart.receive_count);
   11a9c:	008000b4 	movhi	r2,2
   11aa0:	10aea204 	addi	r2,r2,-17784
   11aa4:	10800117 	ldw	r2,4(r2)
   11aa8:	100b883a 	mov	r5,r2
   11aac:	010000b4 	movhi	r4,2
   11ab0:	212ea404 	addi	r4,r4,-17776
   11ab4:	00118900 	call	11890 <msg_proc>
				uart.receive_count = 0;
   11ab8:	008000b4 	movhi	r2,2
   11abc:	10aea204 	addi	r2,r2,-17784
   11ac0:	10000115 	stw	zero,4(r2)
				j = 0;
   11ac4:	e03ffd15 	stw	zero,-12(fp)
			}
		}

		if(getBeginMessge())
   11ac8:	00111bc0 	call	111bc <getBeginMessge>
   11acc:	10003126 	beq	r2,zero,11b94 <main+0x254>
		{
			if(testIsOver())
   11ad0:	00114b80 	call	114b8 <testIsOver>
   11ad4:	10001226 	beq	r2,zero,11b20 <main+0x1e0>
			{
				uart.send_string(strlen(str),str);
   11ad8:	008000b4 	movhi	r2,2
   11adc:	10aea204 	addi	r2,r2,-17784
   11ae0:	14003517 	ldw	r16,212(r2)
   11ae4:	e0bffe07 	ldb	r2,-8(fp)
   11ae8:	1009883a 	mov	r4,r2
   11aec:	00189e40 	call	189e4 <strlen>
   11af0:	1007883a 	mov	r3,r2
   11af4:	e0bffe07 	ldb	r2,-8(fp)
   11af8:	100b883a 	mov	r5,r2
   11afc:	1809883a 	mov	r4,r3
   11b00:	803ee83a 	callr	r16
				FInfo.endTest = 0;
   11b04:	008000b4 	movhi	r2,2
   11b08:	10b1ec04 	addi	r2,r2,-14416
   11b0c:	10000515 	stw	zero,20(r2)
				ReceiveMessage.getMessege = 0;
   11b10:	008000b4 	movhi	r2,2
   11b14:	10b1f204 	addi	r2,r2,-14392
   11b18:	10000415 	stw	zero,16(r2)
				continue;
   11b1c:	00001e06 	br	11b98 <main+0x258>
		else
		{
			continue;
		}

		setDDSFre();
   11b20:	00111e40 	call	111e4 <setDDSFre>
		while(!sampleIsReady());
   11b24:	0001883a 	nop
   11b28:	00117b40 	call	117b4 <sampleIsReady>
   11b2c:	103ffe26 	beq	r2,zero,11b28 <_gp+0xfffedac8>
		parseAdData(input, uart_input.receive_buffer);
   11b30:	014000b4 	movhi	r5,2
   11b34:	296edc04 	addi	r5,r5,-17552
   11b38:	010000b4 	movhi	r4,2
   11b3c:	2131ac04 	addi	r4,r4,-14672
   11b40:	00101fc0 	call	101fc <parseAdData>
		parseAdData(output, uart_output.receive_buffer);
   11b44:	014000b4 	movhi	r5,2
   11b48:	296f1404 	addi	r5,r5,-17328
   11b4c:	010000b4 	movhi	r4,2
   11b50:	2131cc04 	addi	r4,r4,-14544
   11b54:	00101fc0 	call	101fc <parseAdData>
		beginFFT();
   11b58:	00114e00 	call	114e0 <beginFFT>
		IOWR_ALTERA_AVALON_PIO_DATA(PIO_START_BASE,0);
   11b5c:	0007883a 	mov	r3,zero
   11b60:	008000b4 	movhi	r2,2
   11b64:	10882404 	addi	r2,r2,8336
   11b68:	10c00035 	stwio	r3,0(r2)
		IOWR_ALTERA_AVALON_PIO_DATA(PIO_RST_BASE,0);
   11b6c:	0007883a 	mov	r3,zero
   11b70:	008000b4 	movhi	r2,2
   11b74:	10882804 	addi	r2,r2,8352
   11b78:	10c00035 	stwio	r3,0(r2)
		sendMessage();
   11b7c:	00116080 	call	11608 <sendMessage>
		if(j > 0)
   11b80:	e0bffd17 	ldw	r2,-12(fp)
   11b84:	0080040e 	bge	zero,r2,11b98 <main+0x258>
		{
			j = 1000;
   11b88:	0080fa04 	movi	r2,1000
   11b8c:	e0bffd15 	stw	r2,-12(fp)
   11b90:	00000106 	br	11b98 <main+0x258>
				continue;
			}
		}
		else
		{
			continue;
   11b94:	0001883a 	nop
	init();
	FInfo.CurFre = 15.625;
	FInfo.divideFre = 200000;
	FInfo.endTest = 0;

	for(i = 0; ;i++)
   11b98:	e0bffc17 	ldw	r2,-16(fp)
   11b9c:	10800044 	addi	r2,r2,1
   11ba0:	e0bffc15 	stw	r2,-16(fp)
		if(j > 0)
		{
			j = 1000;
		}
//		show(Result);
	}
   11ba4:	003f9606 	br	11a00 <_gp+0xfffed9a0>

00011ba8 <delay>:
	LOG_DEBUG("end main");
	return 0;
}

void delay() {
   11ba8:	defffe04 	addi	sp,sp,-8
   11bac:	df000115 	stw	fp,4(sp)
   11bb0:	df000104 	addi	fp,sp,4
	int i = 0;
   11bb4:	e03fff15 	stw	zero,-4(fp)
	for(; i < 100; i ++);
   11bb8:	00000306 	br	11bc8 <delay+0x20>
   11bbc:	e0bfff17 	ldw	r2,-4(fp)
   11bc0:	10800044 	addi	r2,r2,1
   11bc4:	e0bfff15 	stw	r2,-4(fp)
   11bc8:	e0bfff17 	ldw	r2,-4(fp)
   11bcc:	10801910 	cmplti	r2,r2,100
   11bd0:	103ffa1e 	bne	r2,zero,11bbc <_gp+0xfffedb5c>
}
   11bd4:	0001883a 	nop
   11bd8:	e037883a 	mov	sp,fp
   11bdc:	df000017 	ldw	fp,0(sp)
   11be0:	dec00104 	addi	sp,sp,4
   11be4:	f800283a 	ret

00011be8 <log_hex>:
 * 02  30 34 39 30 31 36 38 30 00 00 00 00 00 00 00 00     04901680........
 * 03  00 00 00 00 00 00 00 00 00 00 00 00                 ............
 *
 */
void log_hex(const char* data, int length)
{
   11be8:	defffa04 	addi	sp,sp,-24
   11bec:	dfc00515 	stw	ra,20(sp)
   11bf0:	df000415 	stw	fp,16(sp)
   11bf4:	df000404 	addi	fp,sp,16
   11bf8:	e13ffe15 	stw	r4,-8(fp)
   11bfc:	e17fff15 	stw	r5,-4(fp)
    int i = 0, j = 0;
   11c00:	e03ffc15 	stw	zero,-16(fp)
   11c04:	e03ffd15 	stw	zero,-12(fp)

    printf("    ");
   11c08:	010000b4 	movhi	r4,2
   11c0c:	212d1604 	addi	r4,r4,-19368
   11c10:	00187d40 	call	187d4 <printf>
    for (i  = 0; i < 16; i++)
   11c14:	e03ffc15 	stw	zero,-16(fp)
   11c18:	00000706 	br	11c38 <log_hex+0x50>
    {
        printf("%X  ", i);
   11c1c:	e17ffc17 	ldw	r5,-16(fp)
   11c20:	010000b4 	movhi	r4,2
   11c24:	212d1804 	addi	r4,r4,-19360
   11c28:	00187d40 	call	187d4 <printf>
void log_hex(const char* data, int length)
{
    int i = 0, j = 0;

    printf("    ");
    for (i  = 0; i < 16; i++)
   11c2c:	e0bffc17 	ldw	r2,-16(fp)
   11c30:	10800044 	addi	r2,r2,1
   11c34:	e0bffc15 	stw	r2,-16(fp)
   11c38:	e0bffc17 	ldw	r2,-16(fp)
   11c3c:	10800410 	cmplti	r2,r2,16
   11c40:	103ff61e 	bne	r2,zero,11c1c <_gp+0xfffedbbc>
    {
        printf("%X  ", i);
    }
    printf("    ");
   11c44:	010000b4 	movhi	r4,2
   11c48:	212d1604 	addi	r4,r4,-19368
   11c4c:	00187d40 	call	187d4 <printf>
    for (i = 0; i < 16; i++)
   11c50:	e03ffc15 	stw	zero,-16(fp)
   11c54:	00000706 	br	11c74 <log_hex+0x8c>
    {
        printf("%X", i);
   11c58:	e17ffc17 	ldw	r5,-16(fp)
   11c5c:	010000b4 	movhi	r4,2
   11c60:	212d1a04 	addi	r4,r4,-19352
   11c64:	00187d40 	call	187d4 <printf>
    for (i  = 0; i < 16; i++)
    {
        printf("%X  ", i);
    }
    printf("    ");
    for (i = 0; i < 16; i++)
   11c68:	e0bffc17 	ldw	r2,-16(fp)
   11c6c:	10800044 	addi	r2,r2,1
   11c70:	e0bffc15 	stw	r2,-16(fp)
   11c74:	e0bffc17 	ldw	r2,-16(fp)
   11c78:	10800410 	cmplti	r2,r2,16
   11c7c:	103ff61e 	bne	r2,zero,11c58 <_gp+0xfffedbf8>
    {
        printf("%X", i);
    }

    printf("\r\n");
   11c80:	010000b4 	movhi	r4,2
   11c84:	212d1b04 	addi	r4,r4,-19348
   11c88:	00188c40 	call	188c4 <puts>

    for (i = 0; i < length; i += 16)
   11c8c:	e03ffc15 	stw	zero,-16(fp)
   11c90:	00007306 	br	11e60 <log_hex+0x278>
    {
        printf("%02d  ", i / 16 + 1);
   11c94:	e0bffc17 	ldw	r2,-16(fp)
   11c98:	1000010e 	bge	r2,zero,11ca0 <log_hex+0xb8>
   11c9c:	108003c4 	addi	r2,r2,15
   11ca0:	1005d13a 	srai	r2,r2,4
   11ca4:	10800044 	addi	r2,r2,1
   11ca8:	100b883a 	mov	r5,r2
   11cac:	010000b4 	movhi	r4,2
   11cb0:	212d1c04 	addi	r4,r4,-19344
   11cb4:	00187d40 	call	187d4 <printf>
        for (j = i; j < i + 16 && j < length; j++)
   11cb8:	e0bffc17 	ldw	r2,-16(fp)
   11cbc:	e0bffd15 	stw	r2,-12(fp)
   11cc0:	00000f06 	br	11d00 <log_hex+0x118>
        {
            printf("%02x ", data[j] & 0xff);
   11cc4:	e0bffd17 	ldw	r2,-12(fp)
   11cc8:	e0fffe17 	ldw	r3,-8(fp)
   11ccc:	1885883a 	add	r2,r3,r2
   11cd0:	10800003 	ldbu	r2,0(r2)
   11cd4:	10803fcc 	andi	r2,r2,255
   11cd8:	1080201c 	xori	r2,r2,128
   11cdc:	10bfe004 	addi	r2,r2,-128
   11ce0:	10803fcc 	andi	r2,r2,255
   11ce4:	100b883a 	mov	r5,r2
   11ce8:	010000b4 	movhi	r4,2
   11cec:	212d1e04 	addi	r4,r4,-19336
   11cf0:	00187d40 	call	187d4 <printf>
    printf("\r\n");

    for (i = 0; i < length; i += 16)
    {
        printf("%02d  ", i / 16 + 1);
        for (j = i; j < i + 16 && j < length; j++)
   11cf4:	e0bffd17 	ldw	r2,-12(fp)
   11cf8:	10800044 	addi	r2,r2,1
   11cfc:	e0bffd15 	stw	r2,-12(fp)
   11d00:	e0bffc17 	ldw	r2,-16(fp)
   11d04:	10800404 	addi	r2,r2,16
   11d08:	e0fffd17 	ldw	r3,-12(fp)
   11d0c:	1880030e 	bge	r3,r2,11d1c <log_hex+0x134>
   11d10:	e0fffd17 	ldw	r3,-12(fp)
   11d14:	e0bfff17 	ldw	r2,-4(fp)
   11d18:	18bfea16 	blt	r3,r2,11cc4 <_gp+0xfffedc64>
        {
            printf("%02x ", data[j] & 0xff);
        }
        if (j == length && length % 16)
   11d1c:	e0fffd17 	ldw	r3,-12(fp)
   11d20:	e0bfff17 	ldw	r2,-4(fp)
   11d24:	1880191e 	bne	r3,r2,11d8c <log_hex+0x1a4>
   11d28:	e0bfff17 	ldw	r2,-4(fp)
   11d2c:	108003cc 	andi	r2,r2,15
   11d30:	10001626 	beq	r2,zero,11d8c <log_hex+0x1a4>
        {
            for (j = 0; j < (16 - length % 16); j++)
   11d34:	e03ffd15 	stw	zero,-12(fp)
   11d38:	00000606 	br	11d54 <log_hex+0x16c>
            {
                printf("   ");
   11d3c:	010000b4 	movhi	r4,2
   11d40:	212d2004 	addi	r4,r4,-19328
   11d44:	00187d40 	call	187d4 <printf>
        {
            printf("%02x ", data[j] & 0xff);
        }
        if (j == length && length % 16)
        {
            for (j = 0; j < (16 - length % 16); j++)
   11d48:	e0bffd17 	ldw	r2,-12(fp)
   11d4c:	10800044 	addi	r2,r2,1
   11d50:	e0bffd15 	stw	r2,-12(fp)
   11d54:	e0ffff17 	ldw	r3,-4(fp)
   11d58:	00a00034 	movhi	r2,32768
   11d5c:	108003c4 	addi	r2,r2,15
   11d60:	1884703a 	and	r2,r3,r2
   11d64:	1000040e 	bge	r2,zero,11d78 <log_hex+0x190>
   11d68:	10bfffc4 	addi	r2,r2,-1
   11d6c:	00fffc04 	movi	r3,-16
   11d70:	10c4b03a 	or	r2,r2,r3
   11d74:	10800044 	addi	r2,r2,1
   11d78:	1007883a 	mov	r3,r2
   11d7c:	00800404 	movi	r2,16
   11d80:	10c5c83a 	sub	r2,r2,r3
   11d84:	e0fffd17 	ldw	r3,-12(fp)
   11d88:	18bfec16 	blt	r3,r2,11d3c <_gp+0xfffedcdc>
            {
                printf("   ");
            }
        }
        printf("    ");
   11d8c:	010000b4 	movhi	r4,2
   11d90:	212d1604 	addi	r4,r4,-19368
   11d94:	00187d40 	call	187d4 <printf>
        for (j = i; j < i + 16 && j < length; j++)
   11d98:	e0bffc17 	ldw	r2,-16(fp)
   11d9c:	e0bffd15 	stw	r2,-12(fp)
   11da0:	00002206 	br	11e2c <log_hex+0x244>
        {
            if (data[j] < 32 || data[j] >= 127)
   11da4:	e0bffd17 	ldw	r2,-12(fp)
   11da8:	e0fffe17 	ldw	r3,-8(fp)
   11dac:	1885883a 	add	r2,r3,r2
   11db0:	10800003 	ldbu	r2,0(r2)
   11db4:	10803fcc 	andi	r2,r2,255
   11db8:	1080201c 	xori	r2,r2,128
   11dbc:	10bfe004 	addi	r2,r2,-128
   11dc0:	10800810 	cmplti	r2,r2,32
   11dc4:	1000091e 	bne	r2,zero,11dec <log_hex+0x204>
   11dc8:	e0bffd17 	ldw	r2,-12(fp)
   11dcc:	e0fffe17 	ldw	r3,-8(fp)
   11dd0:	1885883a 	add	r2,r3,r2
   11dd4:	10800003 	ldbu	r2,0(r2)
   11dd8:	10803fcc 	andi	r2,r2,255
   11ddc:	1080201c 	xori	r2,r2,128
   11de0:	10bfe004 	addi	r2,r2,-128
   11de4:	10801fd8 	cmpnei	r2,r2,127
   11de8:	1000031e 	bne	r2,zero,11df8 <log_hex+0x210>
            {
                printf(".");
   11dec:	01000b84 	movi	r4,46
   11df0:	00188280 	call	18828 <putchar>
   11df4:	00000a06 	br	11e20 <log_hex+0x238>
            }
            else
            {
                printf("%c", data[j] & 0xff);
   11df8:	e0bffd17 	ldw	r2,-12(fp)
   11dfc:	e0fffe17 	ldw	r3,-8(fp)
   11e00:	1885883a 	add	r2,r3,r2
   11e04:	10800003 	ldbu	r2,0(r2)
   11e08:	10803fcc 	andi	r2,r2,255
   11e0c:	1080201c 	xori	r2,r2,128
   11e10:	10bfe004 	addi	r2,r2,-128
   11e14:	10803fcc 	andi	r2,r2,255
   11e18:	1009883a 	mov	r4,r2
   11e1c:	00188280 	call	18828 <putchar>
            {
                printf("   ");
            }
        }
        printf("    ");
        for (j = i; j < i + 16 && j < length; j++)
   11e20:	e0bffd17 	ldw	r2,-12(fp)
   11e24:	10800044 	addi	r2,r2,1
   11e28:	e0bffd15 	stw	r2,-12(fp)
   11e2c:	e0bffc17 	ldw	r2,-16(fp)
   11e30:	10800404 	addi	r2,r2,16
   11e34:	e0fffd17 	ldw	r3,-12(fp)
   11e38:	1880030e 	bge	r3,r2,11e48 <log_hex+0x260>
   11e3c:	e0fffd17 	ldw	r3,-12(fp)
   11e40:	e0bfff17 	ldw	r2,-4(fp)
   11e44:	18bfd716 	blt	r3,r2,11da4 <_gp+0xfffedd44>
            {
                printf("%c", data[j] & 0xff);
            }
        }

        printf("\r\n");
   11e48:	010000b4 	movhi	r4,2
   11e4c:	212d1b04 	addi	r4,r4,-19348
   11e50:	00188c40 	call	188c4 <puts>
        printf("%X", i);
    }

    printf("\r\n");

    for (i = 0; i < length; i += 16)
   11e54:	e0bffc17 	ldw	r2,-16(fp)
   11e58:	10800404 	addi	r2,r2,16
   11e5c:	e0bffc15 	stw	r2,-16(fp)
   11e60:	e0fffc17 	ldw	r3,-16(fp)
   11e64:	e0bfff17 	ldw	r2,-4(fp)
   11e68:	18bf8a16 	blt	r3,r2,11c94 <_gp+0xfffedc34>
            }
        }

        printf("\r\n");
    }
}
   11e6c:	0001883a 	nop
   11e70:	e037883a 	mov	sp,fp
   11e74:	dfc00117 	ldw	ra,4(sp)
   11e78:	df000017 	ldw	fp,0(sp)
   11e7c:	dec00204 	addi	sp,sp,8
   11e80:	f800283a 	ret

00011e84 <getStartMessge>:
 */

#include "message.h"

int getStartMessge(char* message)
{
   11e84:	defffd04 	addi	sp,sp,-12
   11e88:	dfc00215 	stw	ra,8(sp)
   11e8c:	df000115 	stw	fp,4(sp)
   11e90:	df000104 	addi	fp,sp,4
   11e94:	e13fff15 	stw	r4,-4(fp)
    return NULL != strchr(message,'S') && NULL != strchr(message,'E');
   11e98:	014014c4 	movi	r5,83
   11e9c:	e13fff17 	ldw	r4,-4(fp)
   11ea0:	00189b40 	call	189b4 <strchr>
   11ea4:	10000626 	beq	r2,zero,11ec0 <getStartMessge+0x3c>
   11ea8:	01401144 	movi	r5,69
   11eac:	e13fff17 	ldw	r4,-4(fp)
   11eb0:	00189b40 	call	189b4 <strchr>
   11eb4:	10000226 	beq	r2,zero,11ec0 <getStartMessge+0x3c>
   11eb8:	00800044 	movi	r2,1
   11ebc:	00000106 	br	11ec4 <getStartMessge+0x40>
   11ec0:	0005883a 	mov	r2,zero
}
   11ec4:	e037883a 	mov	sp,fp
   11ec8:	dfc00117 	ldw	ra,4(sp)
   11ecc:	df000017 	ldw	fp,0(sp)
   11ed0:	dec00204 	addi	sp,sp,8
   11ed4:	f800283a 	ret

00011ed8 <parseMessage>:

void parseMessage(char* result, TestMessage* message)
{
   11ed8:	defff804 	addi	sp,sp,-32
   11edc:	dfc00715 	stw	ra,28(sp)
   11ee0:	df000615 	stw	fp,24(sp)
   11ee4:	df000604 	addi	fp,sp,24
   11ee8:	e13ffe15 	stw	r4,-8(fp)
   11eec:	e17fff15 	stw	r5,-4(fp)
    char temp[8] = {0};
   11ef0:	e03ffc15 	stw	zero,-16(fp)
   11ef4:	e03ffd15 	stw	zero,-12(fp)

    //get start fre
    printf("message %s \n",result);
   11ef8:	e17ffe17 	ldw	r5,-8(fp)
   11efc:	010000b4 	movhi	r4,2
   11f00:	212d2104 	addi	r4,r4,-19324
   11f04:	00187d40 	call	187d4 <printf>

    char *cur = strchr(result, 'f') + 2;
   11f08:	01401984 	movi	r5,102
   11f0c:	e13ffe17 	ldw	r4,-8(fp)
   11f10:	00189b40 	call	189b4 <strchr>
   11f14:	10800084 	addi	r2,r2,2
   11f18:	e0bffa15 	stw	r2,-24(fp)
    char *space = strchr(cur, ' ');
   11f1c:	01400804 	movi	r5,32
   11f20:	e13ffa17 	ldw	r4,-24(fp)
   11f24:	00189b40 	call	189b4 <strchr>
   11f28:	e0bffb15 	stw	r2,-20(fp)
    memcpy(temp,cur, space - cur);
   11f2c:	e0fffb17 	ldw	r3,-20(fp)
   11f30:	e0bffa17 	ldw	r2,-24(fp)
   11f34:	1885c83a 	sub	r2,r3,r2
   11f38:	1007883a 	mov	r3,r2
   11f3c:	e0bffc04 	addi	r2,fp,-16
   11f40:	180d883a 	mov	r6,r3
   11f44:	e17ffa17 	ldw	r5,-24(fp)
   11f48:	1009883a 	mov	r4,r2
   11f4c:	00187500 	call	18750 <memcpy>
    message->startFre = atoi(temp);
   11f50:	e0bffc04 	addi	r2,fp,-16
   11f54:	1009883a 	mov	r4,r2
   11f58:	00187180 	call	18718 <atoi>
   11f5c:	1007883a 	mov	r3,r2
   11f60:	e0bfff17 	ldw	r2,-4(fp)
   11f64:	10c00015 	stw	r3,0(r2)
    printf("start fre %d \n", message->startFre);
   11f68:	e0bfff17 	ldw	r2,-4(fp)
   11f6c:	10800017 	ldw	r2,0(r2)
   11f70:	100b883a 	mov	r5,r2
   11f74:	010000b4 	movhi	r4,2
   11f78:	212d2504 	addi	r4,r4,-19308
   11f7c:	00187d40 	call	187d4 <printf>

    //get end fre
    cur = space + 1;
   11f80:	e0bffb17 	ldw	r2,-20(fp)
   11f84:	10800044 	addi	r2,r2,1
   11f88:	e0bffa15 	stw	r2,-24(fp)
    space = strchr(cur, ' ');
   11f8c:	01400804 	movi	r5,32
   11f90:	e13ffa17 	ldw	r4,-24(fp)
   11f94:	00189b40 	call	189b4 <strchr>
   11f98:	e0bffb15 	stw	r2,-20(fp)
    memset(temp, 0, 8);
   11f9c:	e0bffc04 	addi	r2,fp,-16
   11fa0:	01800204 	movi	r6,8
   11fa4:	000b883a 	mov	r5,zero
   11fa8:	1009883a 	mov	r4,r2
   11fac:	00187780 	call	18778 <memset>
    memcpy(temp,cur, space - cur);
   11fb0:	e0fffb17 	ldw	r3,-20(fp)
   11fb4:	e0bffa17 	ldw	r2,-24(fp)
   11fb8:	1885c83a 	sub	r2,r3,r2
   11fbc:	1007883a 	mov	r3,r2
   11fc0:	e0bffc04 	addi	r2,fp,-16
   11fc4:	180d883a 	mov	r6,r3
   11fc8:	e17ffa17 	ldw	r5,-24(fp)
   11fcc:	1009883a 	mov	r4,r2
   11fd0:	00187500 	call	18750 <memcpy>
    message->endFre = atoi(temp);
   11fd4:	e0bffc04 	addi	r2,fp,-16
   11fd8:	1009883a 	mov	r4,r2
   11fdc:	00187180 	call	18718 <atoi>
   11fe0:	1007883a 	mov	r3,r2
   11fe4:	e0bfff17 	ldw	r2,-4(fp)
   11fe8:	10c00115 	stw	r3,4(r2)
    printf("end fre %d \n",message->endFre);
   11fec:	e0bfff17 	ldw	r2,-4(fp)
   11ff0:	10800117 	ldw	r2,4(r2)
   11ff4:	100b883a 	mov	r5,r2
   11ff8:	010000b4 	movhi	r4,2
   11ffc:	212d2904 	addi	r4,r4,-19292
   12000:	00187d40 	call	187d4 <printf>

    //get num
    cur = strchr(cur, 'N') + 2;
   12004:	01401384 	movi	r5,78
   12008:	e13ffa17 	ldw	r4,-24(fp)
   1200c:	00189b40 	call	189b4 <strchr>
   12010:	10800084 	addi	r2,r2,2
   12014:	e0bffa15 	stw	r2,-24(fp)
    space = strchr(cur, ' ');
   12018:	01400804 	movi	r5,32
   1201c:	e13ffa17 	ldw	r4,-24(fp)
   12020:	00189b40 	call	189b4 <strchr>
   12024:	e0bffb15 	stw	r2,-20(fp)
    memset(temp, 0, 8);
   12028:	e0bffc04 	addi	r2,fp,-16
   1202c:	01800204 	movi	r6,8
   12030:	000b883a 	mov	r5,zero
   12034:	1009883a 	mov	r4,r2
   12038:	00187780 	call	18778 <memset>
    memcpy(temp,cur, space - cur);
   1203c:	e0fffb17 	ldw	r3,-20(fp)
   12040:	e0bffa17 	ldw	r2,-24(fp)
   12044:	1885c83a 	sub	r2,r3,r2
   12048:	1007883a 	mov	r3,r2
   1204c:	e0bffc04 	addi	r2,fp,-16
   12050:	180d883a 	mov	r6,r3
   12054:	e17ffa17 	ldw	r5,-24(fp)
   12058:	1009883a 	mov	r4,r2
   1205c:	00187500 	call	18750 <memcpy>
    message->sweepNum = atoi(temp);
   12060:	e0bffc04 	addi	r2,fp,-16
   12064:	1009883a 	mov	r4,r2
   12068:	00187180 	call	18718 <atoi>
   1206c:	1007883a 	mov	r3,r2
   12070:	e0bfff17 	ldw	r2,-4(fp)
   12074:	10c00215 	stw	r3,8(r2)
    printf("num %d \n",message->sweepNum);
   12078:	e0bfff17 	ldw	r2,-4(fp)
   1207c:	10800217 	ldw	r2,8(r2)
   12080:	100b883a 	mov	r5,r2
   12084:	010000b4 	movhi	r4,2
   12088:	212d2d04 	addi	r4,r4,-19276
   1208c:	00187d40 	call	187d4 <printf>

    //get form
    cur = strchr(cur, 'F') + 2;
   12090:	01401184 	movi	r5,70
   12094:	e13ffa17 	ldw	r4,-24(fp)
   12098:	00189b40 	call	189b4 <strchr>
   1209c:	10800084 	addi	r2,r2,2
   120a0:	e0bffa15 	stw	r2,-24(fp)
    memset(temp, 0, 8);
   120a4:	e0bffc04 	addi	r2,fp,-16
   120a8:	01800204 	movi	r6,8
   120ac:	000b883a 	mov	r5,zero
   120b0:	1009883a 	mov	r4,r2
   120b4:	00187780 	call	18778 <memset>
    memcpy(temp,cur, 1);
   120b8:	e0bffa17 	ldw	r2,-24(fp)
   120bc:	10800003 	ldbu	r2,0(r2)
   120c0:	e0bffc05 	stb	r2,-16(fp)
    message->showForm = atoi(temp);
   120c4:	e0bffc04 	addi	r2,fp,-16
   120c8:	1009883a 	mov	r4,r2
   120cc:	00187180 	call	18718 <atoi>
   120d0:	1007883a 	mov	r3,r2
   120d4:	e0bfff17 	ldw	r2,-4(fp)
   120d8:	10c00315 	stw	r3,12(r2)
    printf("form %d \n",message->showForm);
   120dc:	e0bfff17 	ldw	r2,-4(fp)
   120e0:	10800317 	ldw	r2,12(r2)
   120e4:	100b883a 	mov	r5,r2
   120e8:	010000b4 	movhi	r4,2
   120ec:	212d3004 	addi	r4,r4,-19264
   120f0:	00187d40 	call	187d4 <printf>

    message->getMessege = 1;
   120f4:	e0bfff17 	ldw	r2,-4(fp)
   120f8:	00c00044 	movi	r3,1
   120fc:	10c00415 	stw	r3,16(r2)
}
   12100:	0001883a 	nop
   12104:	e037883a 	mov	sp,fp
   12108:	dfc00117 	ldw	ra,4(sp)
   1210c:	df000017 	ldw	fp,0(sp)
   12110:	dec00204 	addi	sp,sp,8
   12114:	f800283a 	ret

00012118 <uart_send_byte>:
 *  * Description: 发送一个Byte
 *  * ======================================================================
 *  */

int uart_send_byte(unsigned char data)
{
   12118:	defffe04 	addi	sp,sp,-8
   1211c:	df000115 	stw	fp,4(sp)
   12120:	df000104 	addi	fp,sp,4
   12124:	2005883a 	mov	r2,r4
   12128:	e0bfff05 	stb	r2,-4(fp)
	UART->TXDATA.BITS.TRANSMIT_DATA = data;
   1212c:	008000b4 	movhi	r2,2
   12130:	10880004 	addi	r2,r2,8192
   12134:	e0ffff03 	ldbu	r3,-4(fp)
   12138:	10c00105 	stb	r3,4(r2)
	while(!UART->STATUS.BITS.TRDY);
   1213c:	0001883a 	nop
   12140:	008000b4 	movhi	r2,2
   12144:	10880004 	addi	r2,r2,8192
   12148:	10800217 	ldw	r2,8(r2)
   1214c:	1004d1ba 	srli	r2,r2,6
   12150:	1080004c 	andi	r2,r2,1
   12154:	10803fcc 	andi	r2,r2,255
   12158:	103ff926 	beq	r2,zero,12140 <_gp+0xfffee0e0>
	return 0;
   1215c:	0005883a 	mov	r2,zero
}
   12160:	e037883a 	mov	sp,fp
   12164:	df000017 	ldw	fp,0(sp)
   12168:	dec00104 	addi	sp,sp,4
   1216c:	f800283a 	ret

00012170 <uart_send_string>:
 * Description: 串口发送函数 *
 * ======================================================================
 * */

void uart_send_string(unsigned int len, unsigned char *str)
{
   12170:	defffc04 	addi	sp,sp,-16
   12174:	dfc00315 	stw	ra,12(sp)
   12178:	df000215 	stw	fp,8(sp)
   1217c:	df000204 	addi	fp,sp,8
   12180:	e13ffe15 	stw	r4,-8(fp)
   12184:	e17fff15 	stw	r5,-4(fp)
	while(len--)
   12188:	00000706 	br	121a8 <uart_send_string+0x38>
	{
		uart_send_byte(*str++);
   1218c:	e0bfff17 	ldw	r2,-4(fp)
   12190:	10c00044 	addi	r3,r2,1
   12194:	e0ffff15 	stw	r3,-4(fp)
   12198:	10800003 	ldbu	r2,0(r2)
   1219c:	10803fcc 	andi	r2,r2,255
   121a0:	1009883a 	mov	r4,r2
   121a4:	00121180 	call	12118 <uart_send_byte>
 * ======================================================================
 * */

void uart_send_string(unsigned int len, unsigned char *str)
{
	while(len--)
   121a8:	e0bffe17 	ldw	r2,-8(fp)
   121ac:	10ffffc4 	addi	r3,r2,-1
   121b0:	e0fffe15 	stw	r3,-8(fp)
   121b4:	103ff51e 	bne	r2,zero,1218c <_gp+0xfffee12c>
	{
		uart_send_byte(*str++);
	}
}
   121b8:	0001883a 	nop
   121bc:	e037883a 	mov	sp,fp
   121c0:	dfc00117 	ldw	ra,4(sp)
   121c4:	df000017 	ldw	fp,0(sp)
   121c8:	dec00204 	addi	sp,sp,8
   121cc:	f800283a 	ret

000121d0 <uart_init>:
 * Description: 串口初始化 *
 * ======================================================================
 */

int uart_init(void)
{
   121d0:	defffd04 	addi	sp,sp,-12
   121d4:	dfc00215 	stw	ra,8(sp)
   121d8:	df000115 	stw	fp,4(sp)
   121dc:	df000104 	addi	fp,sp,4
	set_baudrate(57600);
   121e0:	01384014 	movui	r4,57600
   121e4:	00125980 	call	12598 <set_baudrate>
	UART->CONTROL.BITS.IRRDY=1;
   121e8:	008000b4 	movhi	r2,2
   121ec:	10880004 	addi	r2,r2,8192
   121f0:	10c00317 	ldw	r3,12(r2)
   121f4:	18c02014 	ori	r3,r3,128
   121f8:	10c00315 	stw	r3,12(r2)
	UART->STATUS.WORD=0;
   121fc:	008000b4 	movhi	r2,2
   12200:	10880004 	addi	r2,r2,8192
   12204:	10000215 	stw	zero,8(r2)
	alt_ic_isr_register(UART_IRQ_INTERRUPT_CONTROLLER_ID,UART_IRQ,uart_ISR,NULL,0x0);
   12208:	d8000015 	stw	zero,0(sp)
   1220c:	000f883a 	mov	r7,zero
   12210:	01800074 	movhi	r6,1
   12214:	3188c704 	addi	r6,r6,8988
   12218:	01400044 	movi	r5,1
   1221c:	0009883a 	mov	r4,zero
   12220:	0019c6c0 	call	19c6c <alt_ic_isr_register>
	return 0;
   12224:	0005883a 	mov	r2,zero
}
   12228:	e037883a 	mov	sp,fp
   1222c:	dfc00117 	ldw	ra,4(sp)
   12230:	df000017 	ldw	fp,0(sp)
   12234:	dec00204 	addi	sp,sp,8
   12238:	f800283a 	ret

0001223c <uart_input_init>:

int uart_input_init(void) {
   1223c:	defffd04 	addi	sp,sp,-12
   12240:	dfc00215 	stw	ra,8(sp)
   12244:	df000115 	stw	fp,4(sp)
   12248:	df000104 	addi	fp,sp,4
	set_baudrate_input(115200);
   1224c:	010000b4 	movhi	r4,2
   12250:	21308004 	addi	r4,r4,-15872
   12254:	00126280 	call	12628 <set_baudrate_input>
	UART_INPUT->CONTROL.BITS.IRRDY=1;
   12258:	008000b4 	movhi	r2,2
   1225c:	10880804 	addi	r2,r2,8224
   12260:	10c00317 	ldw	r3,12(r2)
   12264:	18c02014 	ori	r3,r3,128
   12268:	10c00315 	stw	r3,12(r2)
	UART_INPUT->STATUS.WORD=0;
   1226c:	008000b4 	movhi	r2,2
   12270:	10880804 	addi	r2,r2,8224
   12274:	10000215 	stw	zero,8(r2)
	alt_ic_isr_register(UART_INPUT_IRQ_INTERRUPT_CONTROLLER_ID,UART_INPUT_IRQ,uart_input_ISR,NULL,0x0);
   12278:	d8000015 	stw	zero,0(sp)
   1227c:	000f883a 	mov	r7,zero
   12280:	01800074 	movhi	r6,1
   12284:	3188ec04 	addi	r6,r6,9136
   12288:	01400084 	movi	r5,2
   1228c:	0009883a 	mov	r4,zero
   12290:	0019c6c0 	call	19c6c <alt_ic_isr_register>
	return 0;
   12294:	0005883a 	mov	r2,zero
}
   12298:	e037883a 	mov	sp,fp
   1229c:	dfc00117 	ldw	ra,4(sp)
   122a0:	df000017 	ldw	fp,0(sp)
   122a4:	dec00204 	addi	sp,sp,8
   122a8:	f800283a 	ret

000122ac <uart_output_init>:

int uart_output_init(void) {
   122ac:	defffd04 	addi	sp,sp,-12
   122b0:	dfc00215 	stw	ra,8(sp)
   122b4:	df000115 	stw	fp,4(sp)
   122b8:	df000104 	addi	fp,sp,4
	set_baudrate_output(115200);
   122bc:	010000b4 	movhi	r4,2
   122c0:	21308004 	addi	r4,r4,-15872
   122c4:	00126b80 	call	126b8 <set_baudrate_output>
	UART_OUTPUT->CONTROL.BITS.IRRDY=1;
   122c8:	008000b4 	movhi	r2,2
   122cc:	10881004 	addi	r2,r2,8256
   122d0:	10c00317 	ldw	r3,12(r2)
   122d4:	18c02014 	ori	r3,r3,128
   122d8:	10c00315 	stw	r3,12(r2)
	UART_OUTPUT->STATUS.WORD=0;
   122dc:	008000b4 	movhi	r2,2
   122e0:	10881004 	addi	r2,r2,8256
   122e4:	10000215 	stw	zero,8(r2)
	alt_ic_isr_register(UART_OUTPUT_IRQ_INTERRUPT_CONTROLLER_ID,UART_OUTPUT_IRQ,uart_output_ISR,NULL,0x0);
   122e8:	d8000015 	stw	zero,0(sp)
   122ec:	000f883a 	mov	r7,zero
   122f0:	01800074 	movhi	r6,1
   122f4:	31892904 	addi	r6,r6,9380
   122f8:	014000c4 	movi	r5,3
   122fc:	0009883a 	mov	r4,zero
   12300:	0019c6c0 	call	19c6c <alt_ic_isr_register>
	return 0;
   12304:	0005883a 	mov	r2,zero
}
   12308:	e037883a 	mov	sp,fp
   1230c:	dfc00117 	ldw	ra,4(sp)
   12310:	df000017 	ldw	fp,0(sp)
   12314:	dec00204 	addi	sp,sp,8
   12318:	f800283a 	ret

0001231c <uart_ISR>:
 * Description: 串口中断服务函数 *
 * ======================================================================
 * */

static void uart_ISR(void *context)
{
   1231c:	defffe04 	addi	sp,sp,-8
   12320:	df000115 	stw	fp,4(sp)
   12324:	df000104 	addi	fp,sp,4
   12328:	e13fff15 	stw	r4,-4(fp)
	//等待状态寄存器RRDY置1，当RRDY为1时表示接收的数据已经传输到RXDATA中
	while(!(UART->STATUS.BITS.RRDY));
   1232c:	0001883a 	nop
   12330:	008000b4 	movhi	r2,2
   12334:	10880004 	addi	r2,r2,8192
   12338:	10800217 	ldw	r2,8(r2)
   1233c:	1004d1fa 	srli	r2,r2,7
   12340:	1080004c 	andi	r2,r2,1
   12344:	10803fcc 	andi	r2,r2,255
   12348:	103ff926 	beq	r2,zero,12330 <_gp+0xfffee2d0>
	uart.receive_buffer[uart.receive_count++] = UART->RXDATA.BITS.RECEIVE_DATA;
   1234c:	008000b4 	movhi	r2,2
   12350:	10aea204 	addi	r2,r2,-17784
   12354:	10c00117 	ldw	r3,4(r2)
   12358:	19000044 	addi	r4,r3,1
   1235c:	008000b4 	movhi	r2,2
   12360:	10aea204 	addi	r2,r2,-17784
   12364:	11000115 	stw	r4,4(r2)
   12368:	008000b4 	movhi	r2,2
   1236c:	10880004 	addi	r2,r2,8192
   12370:	10800003 	ldbu	r2,0(r2)
   12374:	1009883a 	mov	r4,r2
   12378:	008000b4 	movhi	r2,2
   1237c:	10aea204 	addi	r2,r2,-17784
   12380:	10c5883a 	add	r2,r2,r3
   12384:	10800204 	addi	r2,r2,8
   12388:	11000005 	stb	r4,0(r2)
	uart.receive_flag = 1;
   1238c:	008000b4 	movhi	r2,2
   12390:	10aea204 	addi	r2,r2,-17784
   12394:	00c00044 	movi	r3,1
   12398:	10c00015 	stw	r3,0(r2)
//		FInfo.log = 1;
//		uart.receive_buffer[uart.receive_count]='\0';
//		uart.receive_count=0;
//		uart.receive_flag=1;
//	}
}
   1239c:	0001883a 	nop
   123a0:	e037883a 	mov	sp,fp
   123a4:	df000017 	ldw	fp,0(sp)
   123a8:	dec00104 	addi	sp,sp,4
   123ac:	f800283a 	ret

000123b0 <uart_input_ISR>:

unsigned char inputData[65];

static void uart_input_ISR(void *context) {
   123b0:	defffd04 	addi	sp,sp,-12
   123b4:	dfc00215 	stw	ra,8(sp)
   123b8:	df000115 	stw	fp,4(sp)
   123bc:	df000104 	addi	fp,sp,4
   123c0:	e13fff15 	stw	r4,-4(fp)
	//等待状态寄存器RRDY置1，当RRDY为1时表示接收的数据已经传输到RXDATA中
	while(!(UART_INPUT->STATUS.BITS.RRDY));
   123c4:	0001883a 	nop
   123c8:	008000b4 	movhi	r2,2
   123cc:	10880804 	addi	r2,r2,8224
   123d0:	10800217 	ldw	r2,8(r2)
   123d4:	1004d1fa 	srli	r2,r2,7
   123d8:	1080004c 	andi	r2,r2,1
   123dc:	10803fcc 	andi	r2,r2,255
   123e0:	103ff926 	beq	r2,zero,123c8 <_gp+0xfffee368>
	uart_input.receive_buffer[uart_input.receive_count++] = UART_INPUT->RXDATA.BITS.RECEIVE_DATA;
   123e4:	008000b4 	movhi	r2,2
   123e8:	10aeda04 	addi	r2,r2,-17560
   123ec:	10c00117 	ldw	r3,4(r2)
   123f0:	19000044 	addi	r4,r3,1
   123f4:	008000b4 	movhi	r2,2
   123f8:	10aeda04 	addi	r2,r2,-17560
   123fc:	11000115 	stw	r4,4(r2)
   12400:	008000b4 	movhi	r2,2
   12404:	10880804 	addi	r2,r2,8224
   12408:	10800003 	ldbu	r2,0(r2)
   1240c:	1009883a 	mov	r4,r2
   12410:	008000b4 	movhi	r2,2
   12414:	10aeda04 	addi	r2,r2,-17560
   12418:	10c5883a 	add	r2,r2,r3
   1241c:	10800204 	addi	r2,r2,8
   12420:	11000005 	stb	r4,0(r2)
	if(uart_input.receive_count == 64){
   12424:	008000b4 	movhi	r2,2
   12428:	10aeda04 	addi	r2,r2,-17560
   1242c:	10800117 	ldw	r2,4(r2)
   12430:	10801018 	cmpnei	r2,r2,64
   12434:	1000151e 	bne	r2,zero,1248c <uart_input_ISR+0xdc>
		uart_input.receive_buffer[uart_input.receive_count]='\0';
   12438:	008000b4 	movhi	r2,2
   1243c:	10aeda04 	addi	r2,r2,-17560
   12440:	10c00117 	ldw	r3,4(r2)
   12444:	008000b4 	movhi	r2,2
   12448:	10aeda04 	addi	r2,r2,-17560
   1244c:	10c5883a 	add	r2,r2,r3
   12450:	10800204 	addi	r2,r2,8
   12454:	10000005 	stb	zero,0(r2)
		memcpy(inputData, uart_input.receive_buffer, 64);
   12458:	01801004 	movi	r6,64
   1245c:	014000b4 	movhi	r5,2
   12460:	296edc04 	addi	r5,r5,-17552
   12464:	010000b4 	movhi	r4,2
   12468:	21320d44 	addi	r4,r4,-14283
   1246c:	00187500 	call	18750 <memcpy>
//		LOG_DEBUG("uart input data:");
//		log_hex(inputData, 64);
		uart_input.receive_count=0;
   12470:	008000b4 	movhi	r2,2
   12474:	10aeda04 	addi	r2,r2,-17560
   12478:	10000115 	stw	zero,4(r2)
		uart_input.receive_flag=1;
   1247c:	008000b4 	movhi	r2,2
   12480:	10aeda04 	addi	r2,r2,-17560
   12484:	00c00044 	movi	r3,1
   12488:	10c00015 	stw	r3,0(r2)
	}
}
   1248c:	0001883a 	nop
   12490:	e037883a 	mov	sp,fp
   12494:	dfc00117 	ldw	ra,4(sp)
   12498:	df000017 	ldw	fp,0(sp)
   1249c:	dec00204 	addi	sp,sp,8
   124a0:	f800283a 	ret

000124a4 <uart_output_ISR>:

unsigned char outputData[65];

static void uart_output_ISR(void *context) {
   124a4:	defffd04 	addi	sp,sp,-12
   124a8:	dfc00215 	stw	ra,8(sp)
   124ac:	df000115 	stw	fp,4(sp)
   124b0:	df000104 	addi	fp,sp,4
   124b4:	e13fff15 	stw	r4,-4(fp)
	while(!(UART_OUTPUT->STATUS.BITS.RRDY));
   124b8:	0001883a 	nop
   124bc:	008000b4 	movhi	r2,2
   124c0:	10881004 	addi	r2,r2,8256
   124c4:	10800217 	ldw	r2,8(r2)
   124c8:	1004d1fa 	srli	r2,r2,7
   124cc:	1080004c 	andi	r2,r2,1
   124d0:	10803fcc 	andi	r2,r2,255
   124d4:	103ff926 	beq	r2,zero,124bc <_gp+0xfffee45c>
	uart_output.receive_buffer[uart_output.receive_count++] = UART_OUTPUT->RXDATA.BITS.RECEIVE_DATA;
   124d8:	008000b4 	movhi	r2,2
   124dc:	10af1204 	addi	r2,r2,-17336
   124e0:	10c00117 	ldw	r3,4(r2)
   124e4:	19000044 	addi	r4,r3,1
   124e8:	008000b4 	movhi	r2,2
   124ec:	10af1204 	addi	r2,r2,-17336
   124f0:	11000115 	stw	r4,4(r2)
   124f4:	008000b4 	movhi	r2,2
   124f8:	10881004 	addi	r2,r2,8256
   124fc:	10800003 	ldbu	r2,0(r2)
   12500:	1009883a 	mov	r4,r2
   12504:	008000b4 	movhi	r2,2
   12508:	10af1204 	addi	r2,r2,-17336
   1250c:	10c5883a 	add	r2,r2,r3
   12510:	10800204 	addi	r2,r2,8
   12514:	11000005 	stb	r4,0(r2)
	if(uart_output.receive_count == 64){
   12518:	008000b4 	movhi	r2,2
   1251c:	10af1204 	addi	r2,r2,-17336
   12520:	10800117 	ldw	r2,4(r2)
   12524:	10801018 	cmpnei	r2,r2,64
   12528:	1000151e 	bne	r2,zero,12580 <uart_output_ISR+0xdc>
		uart_output.receive_buffer[uart_output.receive_count]='\0';
   1252c:	008000b4 	movhi	r2,2
   12530:	10af1204 	addi	r2,r2,-17336
   12534:	10c00117 	ldw	r3,4(r2)
   12538:	008000b4 	movhi	r2,2
   1253c:	10af1204 	addi	r2,r2,-17336
   12540:	10c5883a 	add	r2,r2,r3
   12544:	10800204 	addi	r2,r2,8
   12548:	10000005 	stb	zero,0(r2)
		memcpy(outputData, uart_output.receive_buffer, 64);
   1254c:	01801004 	movi	r6,64
   12550:	014000b4 	movhi	r5,2
   12554:	296f1404 	addi	r5,r5,-17328
   12558:	010000b4 	movhi	r4,2
   1255c:	2131fd04 	addi	r4,r4,-14348
   12560:	00187500 	call	18750 <memcpy>
//		LOG_DEBUG("uart output data:");
//		log_hex(outputData, 64);
		uart_output.receive_count=0;
   12564:	008000b4 	movhi	r2,2
   12568:	10af1204 	addi	r2,r2,-17336
   1256c:	10000115 	stw	zero,4(r2)
		uart_output.receive_flag=1;
   12570:	008000b4 	movhi	r2,2
   12574:	10af1204 	addi	r2,r2,-17336
   12578:	00c00044 	movi	r3,1
   1257c:	10c00015 	stw	r3,0(r2)
	}
}
   12580:	0001883a 	nop
   12584:	e037883a 	mov	sp,fp
   12588:	dfc00117 	ldw	ra,4(sp)
   1258c:	df000017 	ldw	fp,0(sp)
   12590:	dec00204 	addi	sp,sp,8
   12594:	f800283a 	ret

00012598 <set_baudrate>:

int set_baudrate(unsigned int baudrate)
{
   12598:	defffc04 	addi	sp,sp,-16
   1259c:	dfc00315 	stw	ra,12(sp)
   125a0:	df000215 	stw	fp,8(sp)
   125a4:	dc000115 	stw	r16,4(sp)
   125a8:	df000204 	addi	fp,sp,8
   125ac:	e13ffe15 	stw	r4,-8(fp)
	UART->DIVISOR.WORD=(unsigned int)(ALT_CPU_FREQ/baudrate+0.5);
   125b0:	040000b4 	movhi	r16,2
   125b4:	84080004 	addi	r16,r16,8192
   125b8:	e17ffe17 	ldw	r5,-8(fp)
   125bc:	0100bef4 	movhi	r4,763
   125c0:	213c2004 	addi	r4,r4,-3968
   125c4:	0014ab40 	call	14ab4 <__udivsi3>
   125c8:	1009883a 	mov	r4,r2
   125cc:	00183540 	call	18354 <__floatunsidf>
   125d0:	1011883a 	mov	r8,r2
   125d4:	1813883a 	mov	r9,r3
   125d8:	000d883a 	mov	r6,zero
   125dc:	01cff834 	movhi	r7,16352
   125e0:	4009883a 	mov	r4,r8
   125e4:	480b883a 	mov	r5,r9
   125e8:	0015eec0 	call	15eec <__adddf3>
   125ec:	1009883a 	mov	r4,r2
   125f0:	180b883a 	mov	r5,r3
   125f4:	2005883a 	mov	r2,r4
   125f8:	2807883a 	mov	r3,r5
   125fc:	1009883a 	mov	r4,r2
   12600:	180b883a 	mov	r5,r3
   12604:	00149480 	call	14948 <__fixunsdfsi>
   12608:	80800415 	stw	r2,16(r16)
	return 0;
   1260c:	0005883a 	mov	r2,zero
}
   12610:	e6ffff04 	addi	sp,fp,-4
   12614:	dfc00217 	ldw	ra,8(sp)
   12618:	df000117 	ldw	fp,4(sp)
   1261c:	dc000017 	ldw	r16,0(sp)
   12620:	dec00304 	addi	sp,sp,12
   12624:	f800283a 	ret

00012628 <set_baudrate_input>:

int set_baudrate_input(unsigned int baudrate) {
   12628:	defffc04 	addi	sp,sp,-16
   1262c:	dfc00315 	stw	ra,12(sp)
   12630:	df000215 	stw	fp,8(sp)
   12634:	dc000115 	stw	r16,4(sp)
   12638:	df000204 	addi	fp,sp,8
   1263c:	e13ffe15 	stw	r4,-8(fp)
	UART_INPUT->DIVISOR.WORD=(unsigned int)(ALT_CPU_FREQ/baudrate+0.5);
   12640:	040000b4 	movhi	r16,2
   12644:	84080804 	addi	r16,r16,8224
   12648:	e17ffe17 	ldw	r5,-8(fp)
   1264c:	0100bef4 	movhi	r4,763
   12650:	213c2004 	addi	r4,r4,-3968
   12654:	0014ab40 	call	14ab4 <__udivsi3>
   12658:	1009883a 	mov	r4,r2
   1265c:	00183540 	call	18354 <__floatunsidf>
   12660:	1011883a 	mov	r8,r2
   12664:	1813883a 	mov	r9,r3
   12668:	000d883a 	mov	r6,zero
   1266c:	01cff834 	movhi	r7,16352
   12670:	4009883a 	mov	r4,r8
   12674:	480b883a 	mov	r5,r9
   12678:	0015eec0 	call	15eec <__adddf3>
   1267c:	1009883a 	mov	r4,r2
   12680:	180b883a 	mov	r5,r3
   12684:	2005883a 	mov	r2,r4
   12688:	2807883a 	mov	r3,r5
   1268c:	1009883a 	mov	r4,r2
   12690:	180b883a 	mov	r5,r3
   12694:	00149480 	call	14948 <__fixunsdfsi>
   12698:	80800415 	stw	r2,16(r16)
	return 0;
   1269c:	0005883a 	mov	r2,zero
}
   126a0:	e6ffff04 	addi	sp,fp,-4
   126a4:	dfc00217 	ldw	ra,8(sp)
   126a8:	df000117 	ldw	fp,4(sp)
   126ac:	dc000017 	ldw	r16,0(sp)
   126b0:	dec00304 	addi	sp,sp,12
   126b4:	f800283a 	ret

000126b8 <set_baudrate_output>:

int set_baudrate_output(unsigned int baudrate) {
   126b8:	defffc04 	addi	sp,sp,-16
   126bc:	dfc00315 	stw	ra,12(sp)
   126c0:	df000215 	stw	fp,8(sp)
   126c4:	dc000115 	stw	r16,4(sp)
   126c8:	df000204 	addi	fp,sp,8
   126cc:	e13ffe15 	stw	r4,-8(fp)
	UART_OUTPUT->DIVISOR.WORD=(unsigned int)(ALT_CPU_FREQ/baudrate+0.5);
   126d0:	040000b4 	movhi	r16,2
   126d4:	84081004 	addi	r16,r16,8256
   126d8:	e17ffe17 	ldw	r5,-8(fp)
   126dc:	0100bef4 	movhi	r4,763
   126e0:	213c2004 	addi	r4,r4,-3968
   126e4:	0014ab40 	call	14ab4 <__udivsi3>
   126e8:	1009883a 	mov	r4,r2
   126ec:	00183540 	call	18354 <__floatunsidf>
   126f0:	1011883a 	mov	r8,r2
   126f4:	1813883a 	mov	r9,r3
   126f8:	000d883a 	mov	r6,zero
   126fc:	01cff834 	movhi	r7,16352
   12700:	4009883a 	mov	r4,r8
   12704:	480b883a 	mov	r5,r9
   12708:	0015eec0 	call	15eec <__adddf3>
   1270c:	1009883a 	mov	r4,r2
   12710:	180b883a 	mov	r5,r3
   12714:	2005883a 	mov	r2,r4
   12718:	2807883a 	mov	r3,r5
   1271c:	1009883a 	mov	r4,r2
   12720:	180b883a 	mov	r5,r3
   12724:	00149480 	call	14948 <__fixunsdfsi>
   12728:	80800415 	stw	r2,16(r16)
	return 0;
   1272c:	0005883a 	mov	r2,zero
}
   12730:	e6ffff04 	addi	sp,fp,-4
   12734:	dfc00217 	ldw	ra,8(sp)
   12738:	df000117 	ldw	fp,4(sp)
   1273c:	dc000017 	ldw	r16,0(sp)
   12740:	dec00304 	addi	sp,sp,12
   12744:	f800283a 	ret

00012748 <cos>:
   12748:	00a00034 	movhi	r2,32768
   1274c:	defffa04 	addi	sp,sp,-24
   12750:	10bfffc4 	addi	r2,r2,-1
   12754:	00cffa74 	movhi	r3,16361
   12758:	dfc00515 	stw	ra,20(sp)
   1275c:	2884703a 	and	r2,r5,r2
   12760:	18c87ec4 	addi	r3,r3,8699
   12764:	1880180e 	bge	r3,r2,127c8 <cos+0x80>
   12768:	00dffc34 	movhi	r3,32752
   1276c:	18ffffc4 	addi	r3,r3,-1
   12770:	1880060e 	bge	r3,r2,1278c <cos+0x44>
   12774:	280f883a 	mov	r7,r5
   12778:	200d883a 	mov	r6,r4
   1277c:	00178fc0 	call	178fc <__subdf3>
   12780:	dfc00517 	ldw	ra,20(sp)
   12784:	dec00604 	addi	sp,sp,24
   12788:	f800283a 	ret
   1278c:	d9800104 	addi	r6,sp,4
   12790:	00129240 	call	12924 <__ieee754_rem_pio2>
   12794:	108000cc 	andi	r2,r2,3
   12798:	00c00044 	movi	r3,1
   1279c:	10c01726 	beq	r2,r3,127fc <cos+0xb4>
   127a0:	01000084 	movi	r4,2
   127a4:	11000e26 	beq	r2,r4,127e0 <cos+0x98>
   127a8:	10001c26 	beq	r2,zero,1281c <cos+0xd4>
   127ac:	d9800317 	ldw	r6,12(sp)
   127b0:	d9c00417 	ldw	r7,16(sp)
   127b4:	d9000117 	ldw	r4,4(sp)
   127b8:	d9400217 	ldw	r5,8(sp)
   127bc:	d8c00015 	stw	r3,0(sp)
   127c0:	00142c40 	call	142c4 <__kernel_sin>
   127c4:	003fee06 	br	12780 <_gp+0xfffee720>
   127c8:	000d883a 	mov	r6,zero
   127cc:	000f883a 	mov	r7,zero
   127d0:	00130900 	call	13090 <__kernel_cos>
   127d4:	dfc00517 	ldw	ra,20(sp)
   127d8:	dec00604 	addi	sp,sp,24
   127dc:	f800283a 	ret
   127e0:	d9800317 	ldw	r6,12(sp)
   127e4:	d9c00417 	ldw	r7,16(sp)
   127e8:	d9000117 	ldw	r4,4(sp)
   127ec:	d9400217 	ldw	r5,8(sp)
   127f0:	00130900 	call	13090 <__kernel_cos>
   127f4:	18e0003c 	xorhi	r3,r3,32768
   127f8:	003fe106 	br	12780 <_gp+0xfffee720>
   127fc:	d9800317 	ldw	r6,12(sp)
   12800:	d9c00417 	ldw	r7,16(sp)
   12804:	d9000117 	ldw	r4,4(sp)
   12808:	d9400217 	ldw	r5,8(sp)
   1280c:	d8800015 	stw	r2,0(sp)
   12810:	00142c40 	call	142c4 <__kernel_sin>
   12814:	18e0003c 	xorhi	r3,r3,32768
   12818:	003fd906 	br	12780 <_gp+0xfffee720>
   1281c:	d9800317 	ldw	r6,12(sp)
   12820:	d9c00417 	ldw	r7,16(sp)
   12824:	d9000117 	ldw	r4,4(sp)
   12828:	d9400217 	ldw	r5,8(sp)
   1282c:	00130900 	call	13090 <__kernel_cos>
   12830:	003fd306 	br	12780 <_gp+0xfffee720>

00012834 <sin>:
   12834:	00a00034 	movhi	r2,32768
   12838:	defffa04 	addi	sp,sp,-24
   1283c:	10bfffc4 	addi	r2,r2,-1
   12840:	00cffa74 	movhi	r3,16361
   12844:	dfc00515 	stw	ra,20(sp)
   12848:	2884703a 	and	r2,r5,r2
   1284c:	18c87ec4 	addi	r3,r3,8699
   12850:	1880180e 	bge	r3,r2,128b4 <sin+0x80>
   12854:	00dffc34 	movhi	r3,32752
   12858:	18ffffc4 	addi	r3,r3,-1
   1285c:	1880060e 	bge	r3,r2,12878 <sin+0x44>
   12860:	280f883a 	mov	r7,r5
   12864:	200d883a 	mov	r6,r4
   12868:	00178fc0 	call	178fc <__subdf3>
   1286c:	dfc00517 	ldw	ra,20(sp)
   12870:	dec00604 	addi	sp,sp,24
   12874:	f800283a 	ret
   12878:	d9800104 	addi	r6,sp,4
   1287c:	00129240 	call	12924 <__ieee754_rem_pio2>
   12880:	108000cc 	andi	r2,r2,3
   12884:	00c00044 	movi	r3,1
   12888:	10c01926 	beq	r2,r3,128f0 <sin+0xbc>
   1288c:	01000084 	movi	r4,2
   12890:	11000f26 	beq	r2,r4,128d0 <sin+0x9c>
   12894:	10001c26 	beq	r2,zero,12908 <sin+0xd4>
   12898:	d9800317 	ldw	r6,12(sp)
   1289c:	d9c00417 	ldw	r7,16(sp)
   128a0:	d9000117 	ldw	r4,4(sp)
   128a4:	d9400217 	ldw	r5,8(sp)
   128a8:	00130900 	call	13090 <__kernel_cos>
   128ac:	18e0003c 	xorhi	r3,r3,32768
   128b0:	003fee06 	br	1286c <_gp+0xfffee80c>
   128b4:	d8000015 	stw	zero,0(sp)
   128b8:	000d883a 	mov	r6,zero
   128bc:	000f883a 	mov	r7,zero
   128c0:	00142c40 	call	142c4 <__kernel_sin>
   128c4:	dfc00517 	ldw	ra,20(sp)
   128c8:	dec00604 	addi	sp,sp,24
   128cc:	f800283a 	ret
   128d0:	d9800317 	ldw	r6,12(sp)
   128d4:	d9c00417 	ldw	r7,16(sp)
   128d8:	d9000117 	ldw	r4,4(sp)
   128dc:	d9400217 	ldw	r5,8(sp)
   128e0:	d8c00015 	stw	r3,0(sp)
   128e4:	00142c40 	call	142c4 <__kernel_sin>
   128e8:	18e0003c 	xorhi	r3,r3,32768
   128ec:	003fdf06 	br	1286c <_gp+0xfffee80c>
   128f0:	d9800317 	ldw	r6,12(sp)
   128f4:	d9c00417 	ldw	r7,16(sp)
   128f8:	d9000117 	ldw	r4,4(sp)
   128fc:	d9400217 	ldw	r5,8(sp)
   12900:	00130900 	call	13090 <__kernel_cos>
   12904:	003fd906 	br	1286c <_gp+0xfffee80c>
   12908:	d9800317 	ldw	r6,12(sp)
   1290c:	d9c00417 	ldw	r7,16(sp)
   12910:	d9000117 	ldw	r4,4(sp)
   12914:	d9400217 	ldw	r5,8(sp)
   12918:	d8c00015 	stw	r3,0(sp)
   1291c:	00142c40 	call	142c4 <__kernel_sin>
   12920:	003fd206 	br	1286c <_gp+0xfffee80c>

00012924 <__ieee754_rem_pio2>:
   12924:	02200034 	movhi	r8,32768
   12928:	deffea04 	addi	sp,sp,-88
   1292c:	423fffc4 	addi	r8,r8,-1
   12930:	00cffa74 	movhi	r3,16361
   12934:	ddc01315 	stw	r23,76(sp)
   12938:	dc400d15 	stw	r17,52(sp)
   1293c:	dfc01515 	stw	ra,84(sp)
   12940:	df001415 	stw	fp,80(sp)
   12944:	dd801215 	stw	r22,72(sp)
   12948:	dd401115 	stw	r21,68(sp)
   1294c:	dd001015 	stw	r20,64(sp)
   12950:	dcc00f15 	stw	r19,60(sp)
   12954:	dc800e15 	stw	r18,56(sp)
   12958:	dc000c15 	stw	r16,48(sp)
   1295c:	2a2e703a 	and	r23,r5,r8
   12960:	18c87ec4 	addi	r3,r3,8699
   12964:	2823883a 	mov	r17,r5
   12968:	1dc0790e 	bge	r3,r23,12b50 <__ieee754_rem_pio2+0x22c>
   1296c:	009000f4 	movhi	r2,16387
   12970:	10b65ec4 	addi	r2,r2,-9861
   12974:	3021883a 	mov	r16,r6
   12978:	2027883a 	mov	r19,r4
   1297c:	15c02316 	blt	r2,r23,12a0c <__ieee754_rem_pio2+0xe8>
   12980:	01cffe74 	movhi	r7,16377
   12984:	39c87ec4 	addi	r7,r7,8699
   12988:	01951034 	movhi	r6,21568
   1298c:	01417a0e 	bge	zero,r5,12f78 <__ieee754_rem_pio2+0x654>
   12990:	00178fc0 	call	178fc <__subdf3>
   12994:	1025883a 	mov	r18,r2
   12998:	008ffe74 	movhi	r2,16377
   1299c:	10887ec4 	addi	r2,r2,8699
   129a0:	1823883a 	mov	r17,r3
   129a4:	b8808426 	beq	r23,r2,12bb8 <__ieee754_rem_pio2+0x294>
   129a8:	018698b4 	movhi	r6,6754
   129ac:	01cf7474 	movhi	r7,15825
   129b0:	3198cc44 	addi	r6,r6,25393
   129b4:	39ed1844 	addi	r7,r7,-19359
   129b8:	9009883a 	mov	r4,r18
   129bc:	180b883a 	mov	r5,r3
   129c0:	00178fc0 	call	178fc <__subdf3>
   129c4:	100d883a 	mov	r6,r2
   129c8:	180f883a 	mov	r7,r3
   129cc:	9009883a 	mov	r4,r18
   129d0:	880b883a 	mov	r5,r17
   129d4:	80800015 	stw	r2,0(r16)
   129d8:	80c00115 	stw	r3,4(r16)
   129dc:	00178fc0 	call	178fc <__subdf3>
   129e0:	018698b4 	movhi	r6,6754
   129e4:	01cf7474 	movhi	r7,15825
   129e8:	3198cc44 	addi	r6,r6,25393
   129ec:	39ed1844 	addi	r7,r7,-19359
   129f0:	1009883a 	mov	r4,r2
   129f4:	180b883a 	mov	r5,r3
   129f8:	00178fc0 	call	178fc <__subdf3>
   129fc:	80800215 	stw	r2,8(r16)
   12a00:	80c00315 	stw	r3,12(r16)
   12a04:	00800044 	movi	r2,1
   12a08:	00005606 	br	12b64 <__ieee754_rem_pio2+0x240>
   12a0c:	00904e74 	movhi	r2,16697
   12a10:	10887ec4 	addi	r2,r2,8699
   12a14:	15c0830e 	bge	r2,r23,12c24 <__ieee754_rem_pio2+0x300>
   12a18:	009ffc34 	movhi	r2,32752
   12a1c:	10bfffc4 	addi	r2,r2,-1
   12a20:	15c05c16 	blt	r2,r23,12b94 <__ieee754_rem_pio2+0x270>
   12a24:	b829d53a 	srai	r20,r23,20
   12a28:	a53efa84 	addi	r20,r20,-1046
   12a2c:	a024953a 	slli	r18,r20,20
   12a30:	bca5c83a 	sub	r18,r23,r18
   12a34:	900b883a 	mov	r5,r18
   12a38:	00181f80 	call	181f8 <__fixdfsi>
   12a3c:	1009883a 	mov	r4,r2
   12a40:	00182780 	call	18278 <__floatsidf>
   12a44:	9809883a 	mov	r4,r19
   12a48:	900b883a 	mov	r5,r18
   12a4c:	100d883a 	mov	r6,r2
   12a50:	180f883a 	mov	r7,r3
   12a54:	d8800215 	stw	r2,8(sp)
   12a58:	d8c00315 	stw	r3,12(sp)
   12a5c:	00178fc0 	call	178fc <__subdf3>
   12a60:	000d883a 	mov	r6,zero
   12a64:	01d05c34 	movhi	r7,16752
   12a68:	1009883a 	mov	r4,r2
   12a6c:	180b883a 	mov	r5,r3
   12a70:	00171e40 	call	171e4 <__muldf3>
   12a74:	180b883a 	mov	r5,r3
   12a78:	1009883a 	mov	r4,r2
   12a7c:	182b883a 	mov	r21,r3
   12a80:	102d883a 	mov	r22,r2
   12a84:	00181f80 	call	181f8 <__fixdfsi>
   12a88:	1009883a 	mov	r4,r2
   12a8c:	00182780 	call	18278 <__floatsidf>
   12a90:	100d883a 	mov	r6,r2
   12a94:	180f883a 	mov	r7,r3
   12a98:	b009883a 	mov	r4,r22
   12a9c:	a80b883a 	mov	r5,r21
   12aa0:	1027883a 	mov	r19,r2
   12aa4:	1825883a 	mov	r18,r3
   12aa8:	d8800415 	stw	r2,16(sp)
   12aac:	d8c00515 	stw	r3,20(sp)
   12ab0:	00178fc0 	call	178fc <__subdf3>
   12ab4:	000d883a 	mov	r6,zero
   12ab8:	01d05c34 	movhi	r7,16752
   12abc:	1009883a 	mov	r4,r2
   12ac0:	180b883a 	mov	r5,r3
   12ac4:	00171e40 	call	171e4 <__muldf3>
   12ac8:	000d883a 	mov	r6,zero
   12acc:	000f883a 	mov	r7,zero
   12ad0:	1009883a 	mov	r4,r2
   12ad4:	180b883a 	mov	r5,r3
   12ad8:	d8800615 	stw	r2,24(sp)
   12adc:	d8c00715 	stw	r3,28(sp)
   12ae0:	00170800 	call	17080 <__eqdf2>
   12ae4:	1001431e 	bne	r2,zero,12ff4 <__ieee754_rem_pio2+0x6d0>
   12ae8:	000f883a 	mov	r7,zero
   12aec:	000d883a 	mov	r6,zero
   12af0:	9809883a 	mov	r4,r19
   12af4:	900b883a 	mov	r5,r18
   12af8:	00170800 	call	17080 <__eqdf2>
   12afc:	100f003a 	cmpeq	r7,r2,zero
   12b00:	00800084 	movi	r2,2
   12b04:	11cfc83a 	sub	r7,r2,r7
   12b08:	00800084 	movi	r2,2
   12b0c:	d8800015 	stw	r2,0(sp)
   12b10:	008000b4 	movhi	r2,2
   12b14:	10ad5304 	addi	r2,r2,-19124
   12b18:	d8800115 	stw	r2,4(sp)
   12b1c:	a00d883a 	mov	r6,r20
   12b20:	800b883a 	mov	r5,r16
   12b24:	d9000204 	addi	r4,sp,8
   12b28:	00135340 	call	13534 <__kernel_rem_pio2>
   12b2c:	88000d0e 	bge	r17,zero,12b64 <__ieee754_rem_pio2+0x240>
   12b30:	81000117 	ldw	r4,4(r16)
   12b34:	80c00317 	ldw	r3,12(r16)
   12b38:	0085c83a 	sub	r2,zero,r2
   12b3c:	2120003c 	xorhi	r4,r4,32768
   12b40:	18e0003c 	xorhi	r3,r3,32768
   12b44:	81000115 	stw	r4,4(r16)
   12b48:	80c00315 	stw	r3,12(r16)
   12b4c:	00000506 	br	12b64 <__ieee754_rem_pio2+0x240>
   12b50:	31000015 	stw	r4,0(r6)
   12b54:	31400115 	stw	r5,4(r6)
   12b58:	30000215 	stw	zero,8(r6)
   12b5c:	30000315 	stw	zero,12(r6)
   12b60:	0005883a 	mov	r2,zero
   12b64:	dfc01517 	ldw	ra,84(sp)
   12b68:	df001417 	ldw	fp,80(sp)
   12b6c:	ddc01317 	ldw	r23,76(sp)
   12b70:	dd801217 	ldw	r22,72(sp)
   12b74:	dd401117 	ldw	r21,68(sp)
   12b78:	dd001017 	ldw	r20,64(sp)
   12b7c:	dcc00f17 	ldw	r19,60(sp)
   12b80:	dc800e17 	ldw	r18,56(sp)
   12b84:	dc400d17 	ldw	r17,52(sp)
   12b88:	dc000c17 	ldw	r16,48(sp)
   12b8c:	dec01604 	addi	sp,sp,88
   12b90:	f800283a 	ret
   12b94:	200d883a 	mov	r6,r4
   12b98:	280f883a 	mov	r7,r5
   12b9c:	00178fc0 	call	178fc <__subdf3>
   12ba0:	80800215 	stw	r2,8(r16)
   12ba4:	80800015 	stw	r2,0(r16)
   12ba8:	80c00315 	stw	r3,12(r16)
   12bac:	80c00115 	stw	r3,4(r16)
   12bb0:	0005883a 	mov	r2,zero
   12bb4:	003feb06 	br	12b64 <_gp+0xfffeeb04>
   12bb8:	01cf7474 	movhi	r7,15825
   12bbc:	9009883a 	mov	r4,r18
   12bc0:	39ed1844 	addi	r7,r7,-19359
   12bc4:	01869834 	movhi	r6,6752
   12bc8:	180b883a 	mov	r5,r3
   12bcc:	00178fc0 	call	178fc <__subdf3>
   12bd0:	018b80f4 	movhi	r6,11779
   12bd4:	01cee8f4 	movhi	r7,15267
   12bd8:	319c1cc4 	addi	r6,r6,28787
   12bdc:	39c66284 	addi	r7,r7,6538
   12be0:	1009883a 	mov	r4,r2
   12be4:	180b883a 	mov	r5,r3
   12be8:	1025883a 	mov	r18,r2
   12bec:	1823883a 	mov	r17,r3
   12bf0:	00178fc0 	call	178fc <__subdf3>
   12bf4:	100d883a 	mov	r6,r2
   12bf8:	180f883a 	mov	r7,r3
   12bfc:	9009883a 	mov	r4,r18
   12c00:	880b883a 	mov	r5,r17
   12c04:	80800015 	stw	r2,0(r16)
   12c08:	80c00115 	stw	r3,4(r16)
   12c0c:	00178fc0 	call	178fc <__subdf3>
   12c10:	018b80f4 	movhi	r6,11779
   12c14:	01cee8f4 	movhi	r7,15267
   12c18:	319c1cc4 	addi	r6,r6,28787
   12c1c:	39c66284 	addi	r7,r7,6538
   12c20:	003f7306 	br	129f0 <_gp+0xfffee990>
   12c24:	00145900 	call	14590 <fabs>
   12c28:	019b72b4 	movhi	r6,28106
   12c2c:	01cff934 	movhi	r7,16356
   12c30:	31b220c4 	addi	r6,r6,-14205
   12c34:	39d7cc04 	addi	r7,r7,24368
   12c38:	1009883a 	mov	r4,r2
   12c3c:	180b883a 	mov	r5,r3
   12c40:	102d883a 	mov	r22,r2
   12c44:	182b883a 	mov	r21,r3
   12c48:	00171e40 	call	171e4 <__muldf3>
   12c4c:	000d883a 	mov	r6,zero
   12c50:	01cff834 	movhi	r7,16352
   12c54:	1009883a 	mov	r4,r2
   12c58:	180b883a 	mov	r5,r3
   12c5c:	0015eec0 	call	15eec <__adddf3>
   12c60:	180b883a 	mov	r5,r3
   12c64:	1009883a 	mov	r4,r2
   12c68:	00181f80 	call	181f8 <__fixdfsi>
   12c6c:	1009883a 	mov	r4,r2
   12c70:	1025883a 	mov	r18,r2
   12c74:	00182780 	call	18278 <__floatsidf>
   12c78:	01cffe74 	movhi	r7,16377
   12c7c:	39c87ec4 	addi	r7,r7,8699
   12c80:	01951034 	movhi	r6,21568
   12c84:	1009883a 	mov	r4,r2
   12c88:	180b883a 	mov	r5,r3
   12c8c:	1029883a 	mov	r20,r2
   12c90:	1827883a 	mov	r19,r3
   12c94:	00171e40 	call	171e4 <__muldf3>
   12c98:	b009883a 	mov	r4,r22
   12c9c:	a80b883a 	mov	r5,r21
   12ca0:	100d883a 	mov	r6,r2
   12ca4:	180f883a 	mov	r7,r3
   12ca8:	00178fc0 	call	178fc <__subdf3>
   12cac:	018698b4 	movhi	r6,6754
   12cb0:	01cf7474 	movhi	r7,15825
   12cb4:	a009883a 	mov	r4,r20
   12cb8:	3198cc44 	addi	r6,r6,25393
   12cbc:	39ed1844 	addi	r7,r7,-19359
   12cc0:	980b883a 	mov	r5,r19
   12cc4:	1039883a 	mov	fp,r2
   12cc8:	d8c00815 	stw	r3,32(sp)
   12ccc:	00171e40 	call	171e4 <__muldf3>
   12cd0:	010007c4 	movi	r4,31
   12cd4:	e017883a 	mov	r11,fp
   12cd8:	da800817 	ldw	r10,32(sp)
   12cdc:	102d883a 	mov	r22,r2
   12ce0:	182b883a 	mov	r21,r3
   12ce4:	24802816 	blt	r4,r18,12d88 <__ieee754_rem_pio2+0x464>
   12ce8:	913fffc4 	addi	r4,r18,-1
   12cec:	2109883a 	add	r4,r4,r4
   12cf0:	014000b4 	movhi	r5,2
   12cf4:	2109883a 	add	r4,r4,r4
   12cf8:	296d3304 	addi	r5,r5,-19252
   12cfc:	2909883a 	add	r4,r5,r4
   12d00:	21000017 	ldw	r4,0(r4)
   12d04:	b9002026 	beq	r23,r4,12d88 <__ieee754_rem_pio2+0x464>
   12d08:	100d883a 	mov	r6,r2
   12d0c:	180f883a 	mov	r7,r3
   12d10:	e009883a 	mov	r4,fp
   12d14:	500b883a 	mov	r5,r10
   12d18:	da800b15 	stw	r10,44(sp)
   12d1c:	df000a15 	stw	fp,40(sp)
   12d20:	00178fc0 	call	178fc <__subdf3>
   12d24:	da800b17 	ldw	r10,44(sp)
   12d28:	dac00a17 	ldw	r11,40(sp)
   12d2c:	1019883a 	mov	r12,r2
   12d30:	1813883a 	mov	r9,r3
   12d34:	80800015 	stw	r2,0(r16)
   12d38:	80c00115 	stw	r3,4(r16)
   12d3c:	600d883a 	mov	r6,r12
   12d40:	480f883a 	mov	r7,r9
   12d44:	5809883a 	mov	r4,r11
   12d48:	500b883a 	mov	r5,r10
   12d4c:	da400b15 	stw	r9,44(sp)
   12d50:	db000a15 	stw	r12,40(sp)
   12d54:	00178fc0 	call	178fc <__subdf3>
   12d58:	b00d883a 	mov	r6,r22
   12d5c:	a80f883a 	mov	r7,r21
   12d60:	1009883a 	mov	r4,r2
   12d64:	180b883a 	mov	r5,r3
   12d68:	00178fc0 	call	178fc <__subdf3>
   12d6c:	80800215 	stw	r2,8(r16)
   12d70:	80c00315 	stw	r3,12(r16)
   12d74:	da400b17 	ldw	r9,44(sp)
   12d78:	db000a17 	ldw	r12,40(sp)
   12d7c:	88009f16 	blt	r17,zero,12ffc <__ieee754_rem_pio2+0x6d8>
   12d80:	9005883a 	mov	r2,r18
   12d84:	003f7706 	br	12b64 <_gp+0xfffeeb04>
   12d88:	d9400817 	ldw	r5,32(sp)
   12d8c:	100d883a 	mov	r6,r2
   12d90:	180f883a 	mov	r7,r3
   12d94:	e009883a 	mov	r4,fp
   12d98:	da800b15 	stw	r10,44(sp)
   12d9c:	dac00a15 	stw	r11,40(sp)
   12da0:	00178fc0 	call	178fc <__subdf3>
   12da4:	1019883a 	mov	r12,r2
   12da8:	1804d53a 	srli	r2,r3,20
   12dac:	b811d53a 	srai	r8,r23,20
   12db0:	1813883a 	mov	r9,r3
   12db4:	1081ffcc 	andi	r2,r2,2047
   12db8:	80c00115 	stw	r3,4(r16)
   12dbc:	83000015 	stw	r12,0(r16)
   12dc0:	4085c83a 	sub	r2,r8,r2
   12dc4:	00c00404 	movi	r3,16
   12dc8:	da800b17 	ldw	r10,44(sp)
   12dcc:	dac00a17 	ldw	r11,40(sp)
   12dd0:	18bfda0e 	bge	r3,r2,12d3c <_gp+0xfffeecdc>
   12dd4:	01cf7474 	movhi	r7,15825
   12dd8:	39ed1844 	addi	r7,r7,-19359
   12ddc:	01869834 	movhi	r6,6752
   12de0:	a009883a 	mov	r4,r20
   12de4:	980b883a 	mov	r5,r19
   12de8:	da000a15 	stw	r8,40(sp)
   12dec:	00171e40 	call	171e4 <__muldf3>
   12df0:	d9400817 	ldw	r5,32(sp)
   12df4:	100d883a 	mov	r6,r2
   12df8:	180f883a 	mov	r7,r3
   12dfc:	e009883a 	mov	r4,fp
   12e00:	102d883a 	mov	r22,r2
   12e04:	182b883a 	mov	r21,r3
   12e08:	00178fc0 	call	178fc <__subdf3>
   12e0c:	d9400817 	ldw	r5,32(sp)
   12e10:	100d883a 	mov	r6,r2
   12e14:	180f883a 	mov	r7,r3
   12e18:	e009883a 	mov	r4,fp
   12e1c:	182f883a 	mov	r23,r3
   12e20:	d8800915 	stw	r2,36(sp)
   12e24:	00178fc0 	call	178fc <__subdf3>
   12e28:	b00d883a 	mov	r6,r22
   12e2c:	a80f883a 	mov	r7,r21
   12e30:	1009883a 	mov	r4,r2
   12e34:	180b883a 	mov	r5,r3
   12e38:	00178fc0 	call	178fc <__subdf3>
   12e3c:	018b80f4 	movhi	r6,11779
   12e40:	01cee8f4 	movhi	r7,15267
   12e44:	319c1cc4 	addi	r6,r6,28787
   12e48:	39c66284 	addi	r7,r7,6538
   12e4c:	a009883a 	mov	r4,r20
   12e50:	980b883a 	mov	r5,r19
   12e54:	102d883a 	mov	r22,r2
   12e58:	182b883a 	mov	r21,r3
   12e5c:	00171e40 	call	171e4 <__muldf3>
   12e60:	b00d883a 	mov	r6,r22
   12e64:	a80f883a 	mov	r7,r21
   12e68:	1009883a 	mov	r4,r2
   12e6c:	180b883a 	mov	r5,r3
   12e70:	00178fc0 	call	178fc <__subdf3>
   12e74:	d9000917 	ldw	r4,36(sp)
   12e78:	100d883a 	mov	r6,r2
   12e7c:	180f883a 	mov	r7,r3
   12e80:	b80b883a 	mov	r5,r23
   12e84:	102d883a 	mov	r22,r2
   12e88:	182b883a 	mov	r21,r3
   12e8c:	00178fc0 	call	178fc <__subdf3>
   12e90:	1019883a 	mov	r12,r2
   12e94:	1804d53a 	srli	r2,r3,20
   12e98:	da000a17 	ldw	r8,40(sp)
   12e9c:	83000015 	stw	r12,0(r16)
   12ea0:	1081ffcc 	andi	r2,r2,2047
   12ea4:	4091c83a 	sub	r8,r8,r2
   12ea8:	80c00115 	stw	r3,4(r16)
   12eac:	00800c44 	movi	r2,49
   12eb0:	1813883a 	mov	r9,r3
   12eb4:	1200730e 	bge	r2,r8,13084 <__ieee754_rem_pio2+0x760>
   12eb8:	01cee8f4 	movhi	r7,15267
   12ebc:	39c66284 	addi	r7,r7,6538
   12ec0:	018b8034 	movhi	r6,11776
   12ec4:	a009883a 	mov	r4,r20
   12ec8:	980b883a 	mov	r5,r19
   12ecc:	00171e40 	call	171e4 <__muldf3>
   12ed0:	d9000917 	ldw	r4,36(sp)
   12ed4:	100d883a 	mov	r6,r2
   12ed8:	180f883a 	mov	r7,r3
   12edc:	b80b883a 	mov	r5,r23
   12ee0:	102d883a 	mov	r22,r2
   12ee4:	182b883a 	mov	r21,r3
   12ee8:	00178fc0 	call	178fc <__subdf3>
   12eec:	d9000917 	ldw	r4,36(sp)
   12ef0:	100d883a 	mov	r6,r2
   12ef4:	180f883a 	mov	r7,r3
   12ef8:	b80b883a 	mov	r5,r23
   12efc:	d8c00b15 	stw	r3,44(sp)
   12f00:	d8800a15 	stw	r2,40(sp)
   12f04:	00178fc0 	call	178fc <__subdf3>
   12f08:	b00d883a 	mov	r6,r22
   12f0c:	a80f883a 	mov	r7,r21
   12f10:	1009883a 	mov	r4,r2
   12f14:	180b883a 	mov	r5,r3
   12f18:	00178fc0 	call	178fc <__subdf3>
   12f1c:	01894834 	movhi	r6,9504
   12f20:	01ce5f34 	movhi	r7,14716
   12f24:	31927044 	addi	r6,r6,18881
   12f28:	39e0e684 	addi	r7,r7,-31846
   12f2c:	a009883a 	mov	r4,r20
   12f30:	980b883a 	mov	r5,r19
   12f34:	102d883a 	mov	r22,r2
   12f38:	182b883a 	mov	r21,r3
   12f3c:	00171e40 	call	171e4 <__muldf3>
   12f40:	b00d883a 	mov	r6,r22
   12f44:	a80f883a 	mov	r7,r21
   12f48:	1009883a 	mov	r4,r2
   12f4c:	180b883a 	mov	r5,r3
   12f50:	00178fc0 	call	178fc <__subdf3>
   12f54:	dac00a17 	ldw	r11,40(sp)
   12f58:	da800b17 	ldw	r10,44(sp)
   12f5c:	102d883a 	mov	r22,r2
   12f60:	182b883a 	mov	r21,r3
   12f64:	100d883a 	mov	r6,r2
   12f68:	180f883a 	mov	r7,r3
   12f6c:	5809883a 	mov	r4,r11
   12f70:	500b883a 	mov	r5,r10
   12f74:	003f6a06 	br	12d20 <_gp+0xfffeecc0>
   12f78:	0015eec0 	call	15eec <__adddf3>
   12f7c:	1025883a 	mov	r18,r2
   12f80:	008ffe74 	movhi	r2,16377
   12f84:	10887ec4 	addi	r2,r2,8699
   12f88:	1823883a 	mov	r17,r3
   12f8c:	b8802226 	beq	r23,r2,13018 <__ieee754_rem_pio2+0x6f4>
   12f90:	018698b4 	movhi	r6,6754
   12f94:	01cf7474 	movhi	r7,15825
   12f98:	3198cc44 	addi	r6,r6,25393
   12f9c:	39ed1844 	addi	r7,r7,-19359
   12fa0:	9009883a 	mov	r4,r18
   12fa4:	180b883a 	mov	r5,r3
   12fa8:	0015eec0 	call	15eec <__adddf3>
   12fac:	100d883a 	mov	r6,r2
   12fb0:	180f883a 	mov	r7,r3
   12fb4:	9009883a 	mov	r4,r18
   12fb8:	880b883a 	mov	r5,r17
   12fbc:	80800015 	stw	r2,0(r16)
   12fc0:	80c00115 	stw	r3,4(r16)
   12fc4:	00178fc0 	call	178fc <__subdf3>
   12fc8:	018698b4 	movhi	r6,6754
   12fcc:	01cf7474 	movhi	r7,15825
   12fd0:	3198cc44 	addi	r6,r6,25393
   12fd4:	39ed1844 	addi	r7,r7,-19359
   12fd8:	1009883a 	mov	r4,r2
   12fdc:	180b883a 	mov	r5,r3
   12fe0:	0015eec0 	call	15eec <__adddf3>
   12fe4:	80800215 	stw	r2,8(r16)
   12fe8:	80c00315 	stw	r3,12(r16)
   12fec:	00bfffc4 	movi	r2,-1
   12ff0:	003edc06 	br	12b64 <_gp+0xfffeeb04>
   12ff4:	01c000c4 	movi	r7,3
   12ff8:	003ec306 	br	12b08 <_gp+0xfffeeaa8>
   12ffc:	4a60003c 	xorhi	r9,r9,32768
   13000:	18e0003c 	xorhi	r3,r3,32768
   13004:	83000015 	stw	r12,0(r16)
   13008:	82400115 	stw	r9,4(r16)
   1300c:	80c00315 	stw	r3,12(r16)
   13010:	0485c83a 	sub	r2,zero,r18
   13014:	003ed306 	br	12b64 <_gp+0xfffeeb04>
   13018:	01cf7474 	movhi	r7,15825
   1301c:	9009883a 	mov	r4,r18
   13020:	39ed1844 	addi	r7,r7,-19359
   13024:	01869834 	movhi	r6,6752
   13028:	180b883a 	mov	r5,r3
   1302c:	0015eec0 	call	15eec <__adddf3>
   13030:	018b80f4 	movhi	r6,11779
   13034:	01cee8f4 	movhi	r7,15267
   13038:	319c1cc4 	addi	r6,r6,28787
   1303c:	39c66284 	addi	r7,r7,6538
   13040:	1009883a 	mov	r4,r2
   13044:	180b883a 	mov	r5,r3
   13048:	1025883a 	mov	r18,r2
   1304c:	1823883a 	mov	r17,r3
   13050:	0015eec0 	call	15eec <__adddf3>
   13054:	100d883a 	mov	r6,r2
   13058:	180f883a 	mov	r7,r3
   1305c:	9009883a 	mov	r4,r18
   13060:	880b883a 	mov	r5,r17
   13064:	80800015 	stw	r2,0(r16)
   13068:	80c00115 	stw	r3,4(r16)
   1306c:	00178fc0 	call	178fc <__subdf3>
   13070:	018b80f4 	movhi	r6,11779
   13074:	01cee8f4 	movhi	r7,15267
   13078:	319c1cc4 	addi	r6,r6,28787
   1307c:	39c66284 	addi	r7,r7,6538
   13080:	003fd506 	br	12fd8 <_gp+0xfffeef78>
   13084:	dac00917 	ldw	r11,36(sp)
   13088:	b815883a 	mov	r10,r23
   1308c:	003f2b06 	br	12d3c <_gp+0xfffeecdc>

00013090 <__kernel_cos>:
   13090:	defff304 	addi	sp,sp,-52
   13094:	dc000315 	stw	r16,12(sp)
   13098:	04200034 	movhi	r16,32768
   1309c:	843fffc4 	addi	r16,r16,-1
   130a0:	008f9034 	movhi	r2,15936
   130a4:	df000b15 	stw	fp,44(sp)
   130a8:	ddc00a15 	stw	r23,40(sp)
   130ac:	dd800915 	stw	r22,36(sp)
   130b0:	dcc00615 	stw	r19,24(sp)
   130b4:	dfc00c15 	stw	ra,48(sp)
   130b8:	dd400815 	stw	r21,32(sp)
   130bc:	dd000715 	stw	r20,28(sp)
   130c0:	dc800515 	stw	r18,20(sp)
   130c4:	dc400415 	stw	r17,16(sp)
   130c8:	2c20703a 	and	r16,r5,r16
   130cc:	10bfffc4 	addi	r2,r2,-1
   130d0:	2827883a 	mov	r19,r5
   130d4:	202d883a 	mov	r22,r4
   130d8:	302f883a 	mov	r23,r6
   130dc:	3839883a 	mov	fp,r7
   130e0:	14007516 	blt	r2,r16,132b8 <__kernel_cos+0x228>
   130e4:	00181f80 	call	181f8 <__fixdfsi>
   130e8:	10010f26 	beq	r2,zero,13528 <__kernel_cos+0x498>
   130ec:	b00d883a 	mov	r6,r22
   130f0:	980f883a 	mov	r7,r19
   130f4:	b009883a 	mov	r4,r22
   130f8:	980b883a 	mov	r5,r19
   130fc:	00171e40 	call	171e4 <__muldf3>
   13100:	01afa234 	movhi	r6,48776
   13104:	01ef6a74 	movhi	r7,48553
   13108:	318e3504 	addi	r6,r6,14548
   1310c:	39feba44 	addi	r7,r7,-1303
   13110:	1009883a 	mov	r4,r2
   13114:	180b883a 	mov	r5,r3
   13118:	102b883a 	mov	r21,r2
   1311c:	1829883a 	mov	r20,r3
   13120:	00171e40 	call	171e4 <__muldf3>
   13124:	01af6d74 	movhi	r6,48565
   13128:	01cf88b4 	movhi	r7,15906
   1312c:	31ac7104 	addi	r6,r6,-20028
   13130:	39fba784 	addi	r7,r7,-4450
   13134:	1009883a 	mov	r4,r2
   13138:	180b883a 	mov	r5,r3
   1313c:	0015eec0 	call	15eec <__adddf3>
   13140:	a80d883a 	mov	r6,r21
   13144:	a00f883a 	mov	r7,r20
   13148:	1009883a 	mov	r4,r2
   1314c:	180b883a 	mov	r5,r3
   13150:	00171e40 	call	171e4 <__muldf3>
   13154:	01a02734 	movhi	r6,32924
   13158:	01cfa4b4 	movhi	r7,16018
   1315c:	3194ab44 	addi	r6,r6,21165
   13160:	39df93c4 	addi	r7,r7,32335
   13164:	1009883a 	mov	r4,r2
   13168:	180b883a 	mov	r5,r3
   1316c:	00178fc0 	call	178fc <__subdf3>
   13170:	a80d883a 	mov	r6,r21
   13174:	a00f883a 	mov	r7,r20
   13178:	1009883a 	mov	r4,r2
   1317c:	180b883a 	mov	r5,r3
   13180:	00171e40 	call	171e4 <__muldf3>
   13184:	018672f4 	movhi	r6,6603
   13188:	01cfbeb4 	movhi	r7,16122
   1318c:	31856404 	addi	r6,r6,5520
   13190:	39c06804 	addi	r7,r7,416
   13194:	1009883a 	mov	r4,r2
   13198:	180b883a 	mov	r5,r3
   1319c:	0015eec0 	call	15eec <__adddf3>
   131a0:	a80d883a 	mov	r6,r21
   131a4:	a00f883a 	mov	r7,r20
   131a8:	1009883a 	mov	r4,r2
   131ac:	180b883a 	mov	r5,r3
   131b0:	00171e40 	call	171e4 <__muldf3>
   131b4:	0185b074 	movhi	r6,5825
   131b8:	01cfd5f4 	movhi	r7,16215
   131bc:	31945dc4 	addi	r6,r6,20855
   131c0:	39f05b04 	addi	r7,r7,-16020
   131c4:	1009883a 	mov	r4,r2
   131c8:	180b883a 	mov	r5,r3
   131cc:	00178fc0 	call	178fc <__subdf3>
   131d0:	a80d883a 	mov	r6,r21
   131d4:	a00f883a 	mov	r7,r20
   131d8:	1009883a 	mov	r4,r2
   131dc:	180b883a 	mov	r5,r3
   131e0:	00171e40 	call	171e4 <__muldf3>
   131e4:	01955574 	movhi	r6,21845
   131e8:	01cfe974 	movhi	r7,16293
   131ec:	31955304 	addi	r6,r6,21836
   131f0:	39d55544 	addi	r7,r7,21845
   131f4:	1009883a 	mov	r4,r2
   131f8:	180b883a 	mov	r5,r3
   131fc:	0015eec0 	call	15eec <__adddf3>
   13200:	a80d883a 	mov	r6,r21
   13204:	a00f883a 	mov	r7,r20
   13208:	1009883a 	mov	r4,r2
   1320c:	180b883a 	mov	r5,r3
   13210:	00171e40 	call	171e4 <__muldf3>
   13214:	1017883a 	mov	r11,r2
   13218:	1815883a 	mov	r10,r3
   1321c:	a809883a 	mov	r4,r21
   13220:	a00b883a 	mov	r5,r20
   13224:	000d883a 	mov	r6,zero
   13228:	01cff834 	movhi	r7,16352
   1322c:	da800215 	stw	r10,8(sp)
   13230:	dac00115 	stw	r11,4(sp)
   13234:	00171e40 	call	171e4 <__muldf3>
   13238:	dac00117 	ldw	r11,4(sp)
   1323c:	da800217 	ldw	r10,8(sp)
   13240:	a809883a 	mov	r4,r21
   13244:	580d883a 	mov	r6,r11
   13248:	500f883a 	mov	r7,r10
   1324c:	a00b883a 	mov	r5,r20
   13250:	1023883a 	mov	r17,r2
   13254:	1821883a 	mov	r16,r3
   13258:	00171e40 	call	171e4 <__muldf3>
   1325c:	b80d883a 	mov	r6,r23
   13260:	e00f883a 	mov	r7,fp
   13264:	b009883a 	mov	r4,r22
   13268:	980b883a 	mov	r5,r19
   1326c:	1029883a 	mov	r20,r2
   13270:	1825883a 	mov	r18,r3
   13274:	00171e40 	call	171e4 <__muldf3>
   13278:	a009883a 	mov	r4,r20
   1327c:	900b883a 	mov	r5,r18
   13280:	100d883a 	mov	r6,r2
   13284:	180f883a 	mov	r7,r3
   13288:	00178fc0 	call	178fc <__subdf3>
   1328c:	8809883a 	mov	r4,r17
   13290:	800b883a 	mov	r5,r16
   13294:	100d883a 	mov	r6,r2
   13298:	180f883a 	mov	r7,r3
   1329c:	00178fc0 	call	178fc <__subdf3>
   132a0:	100d883a 	mov	r6,r2
   132a4:	180f883a 	mov	r7,r3
   132a8:	0009883a 	mov	r4,zero
   132ac:	014ffc34 	movhi	r5,16368
   132b0:	00178fc0 	call	178fc <__subdf3>
   132b4:	00008b06 	br	134e4 <__kernel_cos+0x454>
   132b8:	200d883a 	mov	r6,r4
   132bc:	280f883a 	mov	r7,r5
   132c0:	00171e40 	call	171e4 <__muldf3>
   132c4:	01afa234 	movhi	r6,48776
   132c8:	01ef6a74 	movhi	r7,48553
   132cc:	318e3504 	addi	r6,r6,14548
   132d0:	39feba44 	addi	r7,r7,-1303
   132d4:	1009883a 	mov	r4,r2
   132d8:	180b883a 	mov	r5,r3
   132dc:	1025883a 	mov	r18,r2
   132e0:	1823883a 	mov	r17,r3
   132e4:	00171e40 	call	171e4 <__muldf3>
   132e8:	01af6d74 	movhi	r6,48565
   132ec:	01cf88b4 	movhi	r7,15906
   132f0:	31ac7104 	addi	r6,r6,-20028
   132f4:	39fba784 	addi	r7,r7,-4450
   132f8:	1009883a 	mov	r4,r2
   132fc:	180b883a 	mov	r5,r3
   13300:	0015eec0 	call	15eec <__adddf3>
   13304:	900d883a 	mov	r6,r18
   13308:	880f883a 	mov	r7,r17
   1330c:	1009883a 	mov	r4,r2
   13310:	180b883a 	mov	r5,r3
   13314:	00171e40 	call	171e4 <__muldf3>
   13318:	01a02734 	movhi	r6,32924
   1331c:	01cfa4b4 	movhi	r7,16018
   13320:	3194ab44 	addi	r6,r6,21165
   13324:	39df93c4 	addi	r7,r7,32335
   13328:	1009883a 	mov	r4,r2
   1332c:	180b883a 	mov	r5,r3
   13330:	00178fc0 	call	178fc <__subdf3>
   13334:	900d883a 	mov	r6,r18
   13338:	880f883a 	mov	r7,r17
   1333c:	1009883a 	mov	r4,r2
   13340:	180b883a 	mov	r5,r3
   13344:	00171e40 	call	171e4 <__muldf3>
   13348:	018672f4 	movhi	r6,6603
   1334c:	01cfbeb4 	movhi	r7,16122
   13350:	31856404 	addi	r6,r6,5520
   13354:	39c06804 	addi	r7,r7,416
   13358:	1009883a 	mov	r4,r2
   1335c:	180b883a 	mov	r5,r3
   13360:	0015eec0 	call	15eec <__adddf3>
   13364:	900d883a 	mov	r6,r18
   13368:	880f883a 	mov	r7,r17
   1336c:	1009883a 	mov	r4,r2
   13370:	180b883a 	mov	r5,r3
   13374:	00171e40 	call	171e4 <__muldf3>
   13378:	0185b074 	movhi	r6,5825
   1337c:	01cfd5f4 	movhi	r7,16215
   13380:	31945dc4 	addi	r6,r6,20855
   13384:	39f05b04 	addi	r7,r7,-16020
   13388:	1009883a 	mov	r4,r2
   1338c:	180b883a 	mov	r5,r3
   13390:	00178fc0 	call	178fc <__subdf3>
   13394:	900d883a 	mov	r6,r18
   13398:	880f883a 	mov	r7,r17
   1339c:	1009883a 	mov	r4,r2
   133a0:	180b883a 	mov	r5,r3
   133a4:	00171e40 	call	171e4 <__muldf3>
   133a8:	01955574 	movhi	r6,21845
   133ac:	01cfe974 	movhi	r7,16293
   133b0:	31955304 	addi	r6,r6,21836
   133b4:	39d55544 	addi	r7,r7,21845
   133b8:	1009883a 	mov	r4,r2
   133bc:	180b883a 	mov	r5,r3
   133c0:	0015eec0 	call	15eec <__adddf3>
   133c4:	900d883a 	mov	r6,r18
   133c8:	880f883a 	mov	r7,r17
   133cc:	1009883a 	mov	r4,r2
   133d0:	180b883a 	mov	r5,r3
   133d4:	00171e40 	call	171e4 <__muldf3>
   133d8:	1013883a 	mov	r9,r2
   133dc:	1017883a 	mov	r11,r2
   133e0:	008ff4f4 	movhi	r2,16339
   133e4:	108ccc84 	addi	r2,r2,13106
   133e8:	1811883a 	mov	r8,r3
   133ec:	902b883a 	mov	r21,r18
   133f0:	8829883a 	mov	r20,r17
   133f4:	1815883a 	mov	r10,r3
   133f8:	143f880e 	bge	r2,r16,1321c <_gp+0xfffef1bc>
   133fc:	008ffa74 	movhi	r2,16361
   13400:	14004416 	blt	r2,r16,13514 <__kernel_cos+0x484>
   13404:	00bff834 	movhi	r2,65504
   13408:	80a1883a 	add	r16,r16,r2
   1340c:	000d883a 	mov	r6,zero
   13410:	800f883a 	mov	r7,r16
   13414:	0009883a 	mov	r4,zero
   13418:	014ffc34 	movhi	r5,16368
   1341c:	da400115 	stw	r9,4(sp)
   13420:	d8c00215 	stw	r3,8(sp)
   13424:	00178fc0 	call	178fc <__subdf3>
   13428:	da000217 	ldw	r8,8(sp)
   1342c:	da400117 	ldw	r9,4(sp)
   13430:	102b883a 	mov	r21,r2
   13434:	d8c00015 	stw	r3,0(sp)
   13438:	9009883a 	mov	r4,r18
   1343c:	880b883a 	mov	r5,r17
   13440:	000d883a 	mov	r6,zero
   13444:	01cff834 	movhi	r7,16352
   13448:	da000215 	stw	r8,8(sp)
   1344c:	da400115 	stw	r9,4(sp)
   13450:	00171e40 	call	171e4 <__muldf3>
   13454:	800f883a 	mov	r7,r16
   13458:	000d883a 	mov	r6,zero
   1345c:	1009883a 	mov	r4,r2
   13460:	180b883a 	mov	r5,r3
   13464:	00178fc0 	call	178fc <__subdf3>
   13468:	da400117 	ldw	r9,4(sp)
   1346c:	da000217 	ldw	r8,8(sp)
   13470:	9009883a 	mov	r4,r18
   13474:	480d883a 	mov	r6,r9
   13478:	400f883a 	mov	r7,r8
   1347c:	880b883a 	mov	r5,r17
   13480:	1029883a 	mov	r20,r2
   13484:	1821883a 	mov	r16,r3
   13488:	00171e40 	call	171e4 <__muldf3>
   1348c:	b80d883a 	mov	r6,r23
   13490:	e00f883a 	mov	r7,fp
   13494:	b009883a 	mov	r4,r22
   13498:	980b883a 	mov	r5,r19
   1349c:	1025883a 	mov	r18,r2
   134a0:	1823883a 	mov	r17,r3
   134a4:	00171e40 	call	171e4 <__muldf3>
   134a8:	100d883a 	mov	r6,r2
   134ac:	180f883a 	mov	r7,r3
   134b0:	9009883a 	mov	r4,r18
   134b4:	880b883a 	mov	r5,r17
   134b8:	00178fc0 	call	178fc <__subdf3>
   134bc:	100d883a 	mov	r6,r2
   134c0:	180f883a 	mov	r7,r3
   134c4:	a009883a 	mov	r4,r20
   134c8:	800b883a 	mov	r5,r16
   134cc:	00178fc0 	call	178fc <__subdf3>
   134d0:	d9400017 	ldw	r5,0(sp)
   134d4:	100d883a 	mov	r6,r2
   134d8:	180f883a 	mov	r7,r3
   134dc:	a809883a 	mov	r4,r21
   134e0:	00178fc0 	call	178fc <__subdf3>
   134e4:	dfc00c17 	ldw	ra,48(sp)
   134e8:	df000b17 	ldw	fp,44(sp)
   134ec:	ddc00a17 	ldw	r23,40(sp)
   134f0:	dd800917 	ldw	r22,36(sp)
   134f4:	dd400817 	ldw	r21,32(sp)
   134f8:	dd000717 	ldw	r20,28(sp)
   134fc:	dcc00617 	ldw	r19,24(sp)
   13500:	dc800517 	ldw	r18,20(sp)
   13504:	dc400417 	ldw	r17,16(sp)
   13508:	dc000317 	ldw	r16,12(sp)
   1350c:	dec00d04 	addi	sp,sp,52
   13510:	f800283a 	ret
   13514:	008ff9f4 	movhi	r2,16359
   13518:	002b883a 	mov	r21,zero
   1351c:	d8800015 	stw	r2,0(sp)
   13520:	040ff4b4 	movhi	r16,16338
   13524:	003fc406 	br	13438 <_gp+0xfffef3d8>
   13528:	0005883a 	mov	r2,zero
   1352c:	00cffc34 	movhi	r3,16368
   13530:	003fec06 	br	134e4 <_gp+0xfffef484>

00013534 <__kernel_rem_pio2>:
   13534:	deff5a04 	addi	sp,sp,-664
   13538:	da00a617 	ldw	r8,664(sp)
   1353c:	00c000b4 	movhi	r3,2
   13540:	18eda504 	addi	r3,r3,-18796
   13544:	4205883a 	add	r2,r8,r8
   13548:	1085883a 	add	r2,r2,r2
   1354c:	1885883a 	add	r2,r3,r2
   13550:	d9008e15 	stw	r4,568(sp)
   13554:	d9408f15 	stw	r5,572(sp)
   13558:	313fff44 	addi	r4,r6,-3
   1355c:	01400604 	movi	r5,24
   13560:	dd80a215 	stw	r22,648(sp)
   13564:	dc009c15 	stw	r16,624(sp)
   13568:	dfc0a515 	stw	ra,660(sp)
   1356c:	df00a415 	stw	fp,656(sp)
   13570:	ddc0a315 	stw	r23,652(sp)
   13574:	dd40a115 	stw	r21,644(sp)
   13578:	dd00a015 	stw	r20,640(sp)
   1357c:	dcc09f15 	stw	r19,636(sp)
   13580:	dc809e15 	stw	r18,632(sp)
   13584:	dc409d15 	stw	r17,628(sp)
   13588:	3021883a 	mov	r16,r6
   1358c:	d9c09315 	stw	r7,588(sp)
   13590:	15800017 	ldw	r22,0(r2)
   13594:	00149bc0 	call	149bc <__divsi3>
   13598:	da009317 	ldw	r8,588(sp)
   1359c:	d8809215 	stw	r2,584(sp)
   135a0:	423fffc4 	addi	r8,r8,-1
   135a4:	da008d15 	stw	r8,564(sp)
   135a8:	10033b16 	blt	r2,zero,14298 <__kernel_rem_pio2+0xd64>
   135ac:	da009217 	ldw	r8,584(sp)
   135b0:	d9009217 	ldw	r4,584(sp)
   135b4:	42000044 	addi	r8,r8,1
   135b8:	40fffa24 	muli	r3,r8,-24
   135bc:	da009515 	stw	r8,596(sp)
   135c0:	da008d17 	ldw	r8,564(sp)
   135c4:	1c07883a 	add	r3,r3,r16
   135c8:	d8c09015 	stw	r3,576(sp)
   135cc:	b205883a 	add	r2,r22,r8
   135d0:	2223c83a 	sub	r17,r4,r8
   135d4:	10001016 	blt	r2,zero,13618 <__kernel_rem_pio2+0xe4>
   135d8:	da00a717 	ldw	r8,668(sp)
   135dc:	8c65883a 	add	r18,r17,r17
   135e0:	94a5883a 	add	r18,r18,r18
   135e4:	1445883a 	add	r2,r2,r17
   135e8:	dcc05004 	addi	r19,sp,320
   135ec:	44a5883a 	add	r18,r8,r18
   135f0:	14000044 	addi	r16,r2,1
   135f4:	88015316 	blt	r17,zero,13b44 <__kernel_rem_pio2+0x610>
   135f8:	91000017 	ldw	r4,0(r18)
   135fc:	00182780 	call	18278 <__floatsidf>
   13600:	98800015 	stw	r2,0(r19)
   13604:	98c00115 	stw	r3,4(r19)
   13608:	8c400044 	addi	r17,r17,1
   1360c:	9cc00204 	addi	r19,r19,8
   13610:	94800104 	addi	r18,r18,4
   13614:	8c3ff71e 	bne	r17,r16,135f4 <_gp+0xfffef594>
   13618:	b0002816 	blt	r22,zero,136bc <__kernel_rem_pio2+0x188>
   1361c:	da008d17 	ldw	r8,564(sp)
   13620:	b4c00044 	addi	r19,r22,1
   13624:	982690fa 	slli	r19,r19,3
   13628:	402490fa 	slli	r18,r8,3
   1362c:	da008e17 	ldw	r8,568(sp)
   13630:	d8805004 	addi	r2,sp,320
   13634:	94000204 	addi	r16,r18,8
   13638:	d823883a 	mov	r17,sp
   1363c:	14a5883a 	add	r18,r2,r18
   13640:	dcef883a 	add	r23,sp,r19
   13644:	4421883a 	add	r16,r8,r16
   13648:	dd809115 	stw	r22,580(sp)
   1364c:	4039883a 	mov	fp,r8
   13650:	da008d17 	ldw	r8,564(sp)
   13654:	40016016 	blt	r8,zero,13bd8 <__kernel_rem_pio2+0x6a4>
   13658:	e027883a 	mov	r19,fp
   1365c:	9029883a 	mov	r20,r18
   13660:	002d883a 	mov	r22,zero
   13664:	002b883a 	mov	r21,zero
   13668:	a1800017 	ldw	r6,0(r20)
   1366c:	a1c00117 	ldw	r7,4(r20)
   13670:	99000017 	ldw	r4,0(r19)
   13674:	99400117 	ldw	r5,4(r19)
   13678:	9cc00204 	addi	r19,r19,8
   1367c:	a53ffe04 	addi	r20,r20,-8
   13680:	00171e40 	call	171e4 <__muldf3>
   13684:	b009883a 	mov	r4,r22
   13688:	a80b883a 	mov	r5,r21
   1368c:	100d883a 	mov	r6,r2
   13690:	180f883a 	mov	r7,r3
   13694:	0015eec0 	call	15eec <__adddf3>
   13698:	102d883a 	mov	r22,r2
   1369c:	182b883a 	mov	r21,r3
   136a0:	9c3ff11e 	bne	r19,r16,13668 <_gp+0xfffef608>
   136a4:	8d800015 	stw	r22,0(r17)
   136a8:	8d400115 	stw	r21,4(r17)
   136ac:	8c400204 	addi	r17,r17,8
   136b0:	94800204 	addi	r18,r18,8
   136b4:	8dffe61e 	bne	r17,r23,13650 <_gp+0xfffef5f0>
   136b8:	dd809117 	ldw	r22,580(sp)
   136bc:	00d00034 	movhi	r3,16384
   136c0:	da009317 	ldw	r8,588(sp)
   136c4:	18ffff84 	addi	r3,r3,-2
   136c8:	b0c7883a 	add	r3,r22,r3
   136cc:	18c7883a 	add	r3,r3,r3
   136d0:	402090fa 	slli	r16,r8,3
   136d4:	18c7883a 	add	r3,r3,r3
   136d8:	da007804 	addi	r8,sp,480
   136dc:	40d1883a 	add	r8,r8,r3
   136e0:	b0bfffc4 	addi	r2,r22,-1
   136e4:	da009615 	stw	r8,600(sp)
   136e8:	da008e17 	ldw	r8,568(sp)
   136ec:	1085883a 	add	r2,r2,r2
   136f0:	1085883a 	add	r2,r2,r2
   136f4:	19000104 	addi	r4,r3,4
   136f8:	d885883a 	add	r2,sp,r2
   136fc:	4421883a 	add	r16,r8,r16
   13700:	da007804 	addi	r8,sp,480
   13704:	4111883a 	add	r8,r8,r4
   13708:	10807804 	addi	r2,r2,480
   1370c:	da009715 	stw	r8,604(sp)
   13710:	b025883a 	mov	r18,r22
   13714:	d8809815 	stw	r2,608(sp)
   13718:	dd809415 	stw	r22,592(sp)
   1371c:	900490fa 	slli	r2,r18,3
   13720:	d885883a 	add	r2,sp,r2
   13724:	17000017 	ldw	fp,0(r2)
   13728:	15400117 	ldw	r21,4(r2)
   1372c:	04802b0e 	bge	zero,r18,137dc <__kernel_rem_pio2+0x2a8>
   13730:	00880034 	movhi	r2,8192
   13734:	10bfffc4 	addi	r2,r2,-1
   13738:	90a9883a 	add	r20,r18,r2
   1373c:	a02890fa 	slli	r20,r20,3
   13740:	dc407804 	addi	r17,sp,480
   13744:	dcfffe04 	addi	r19,sp,-8
   13748:	dd29883a 	add	r20,sp,r20
   1374c:	000d883a 	mov	r6,zero
   13750:	01cf9c34 	movhi	r7,15984
   13754:	e009883a 	mov	r4,fp
   13758:	a80b883a 	mov	r5,r21
   1375c:	00171e40 	call	171e4 <__muldf3>
   13760:	180b883a 	mov	r5,r3
   13764:	1009883a 	mov	r4,r2
   13768:	00181f80 	call	181f8 <__fixdfsi>
   1376c:	1009883a 	mov	r4,r2
   13770:	00182780 	call	18278 <__floatsidf>
   13774:	000d883a 	mov	r6,zero
   13778:	01d05c34 	movhi	r7,16752
   1377c:	1009883a 	mov	r4,r2
   13780:	180b883a 	mov	r5,r3
   13784:	102f883a 	mov	r23,r2
   13788:	182d883a 	mov	r22,r3
   1378c:	00171e40 	call	171e4 <__muldf3>
   13790:	100d883a 	mov	r6,r2
   13794:	180f883a 	mov	r7,r3
   13798:	e009883a 	mov	r4,fp
   1379c:	a80b883a 	mov	r5,r21
   137a0:	00178fc0 	call	178fc <__subdf3>
   137a4:	180b883a 	mov	r5,r3
   137a8:	1009883a 	mov	r4,r2
   137ac:	00181f80 	call	181f8 <__fixdfsi>
   137b0:	a1800017 	ldw	r6,0(r20)
   137b4:	a1c00117 	ldw	r7,4(r20)
   137b8:	88800015 	stw	r2,0(r17)
   137bc:	b809883a 	mov	r4,r23
   137c0:	b00b883a 	mov	r5,r22
   137c4:	0015eec0 	call	15eec <__adddf3>
   137c8:	a53ffe04 	addi	r20,r20,-8
   137cc:	1039883a 	mov	fp,r2
   137d0:	182b883a 	mov	r21,r3
   137d4:	8c400104 	addi	r17,r17,4
   137d8:	a4ffdc1e 	bne	r20,r19,1374c <_gp+0xfffef6ec>
   137dc:	d9809017 	ldw	r6,576(sp)
   137e0:	a80b883a 	mov	r5,r21
   137e4:	e009883a 	mov	r4,fp
   137e8:	00147900 	call	14790 <scalbn>
   137ec:	000d883a 	mov	r6,zero
   137f0:	01cff034 	movhi	r7,16320
   137f4:	1009883a 	mov	r4,r2
   137f8:	180b883a 	mov	r5,r3
   137fc:	1027883a 	mov	r19,r2
   13800:	1823883a 	mov	r17,r3
   13804:	00171e40 	call	171e4 <__muldf3>
   13808:	1009883a 	mov	r4,r2
   1380c:	180b883a 	mov	r5,r3
   13810:	00145a40 	call	145a4 <floor>
   13814:	000d883a 	mov	r6,zero
   13818:	01d00834 	movhi	r7,16416
   1381c:	1009883a 	mov	r4,r2
   13820:	180b883a 	mov	r5,r3
   13824:	00171e40 	call	171e4 <__muldf3>
   13828:	100d883a 	mov	r6,r2
   1382c:	180f883a 	mov	r7,r3
   13830:	9809883a 	mov	r4,r19
   13834:	880b883a 	mov	r5,r17
   13838:	00178fc0 	call	178fc <__subdf3>
   1383c:	180b883a 	mov	r5,r3
   13840:	1009883a 	mov	r4,r2
   13844:	1827883a 	mov	r19,r3
   13848:	1029883a 	mov	r20,r2
   1384c:	00181f80 	call	181f8 <__fixdfsi>
   13850:	1009883a 	mov	r4,r2
   13854:	1023883a 	mov	r17,r2
   13858:	00182780 	call	18278 <__floatsidf>
   1385c:	a009883a 	mov	r4,r20
   13860:	100d883a 	mov	r6,r2
   13864:	180f883a 	mov	r7,r3
   13868:	980b883a 	mov	r5,r19
   1386c:	00178fc0 	call	178fc <__subdf3>
   13870:	d9009017 	ldw	r4,576(sp)
   13874:	1013883a 	mov	r9,r2
   13878:	102b883a 	mov	r21,r2
   1387c:	1811883a 	mov	r8,r3
   13880:	0100b30e 	bge	zero,r4,13b50 <__kernel_rem_pio2+0x61c>
   13884:	90bfffc4 	addi	r2,r18,-1
   13888:	1085883a 	add	r2,r2,r2
   1388c:	1085883a 	add	r2,r2,r2
   13890:	d885883a 	add	r2,sp,r2
   13894:	10807804 	addi	r2,r2,480
   13898:	d9809017 	ldw	r6,576(sp)
   1389c:	11400017 	ldw	r5,0(r2)
   138a0:	01000604 	movi	r4,24
   138a4:	2189c83a 	sub	r4,r4,r6
   138a8:	290dd83a 	sra	r6,r5,r4
   138ac:	d9c09017 	ldw	r7,576(sp)
   138b0:	04c005c4 	movi	r19,23
   138b4:	3108983a 	sll	r4,r6,r4
   138b8:	99e7c83a 	sub	r19,r19,r7
   138bc:	89a3883a 	add	r17,r17,r6
   138c0:	2909c83a 	sub	r4,r5,r4
   138c4:	24e7d83a 	sra	r19,r4,r19
   138c8:	11000015 	stw	r4,0(r2)
   138cc:	04c02a0e 	bge	zero,r19,13978 <__kernel_rem_pio2+0x444>
   138d0:	8c400044 	addi	r17,r17,1
   138d4:	0481570e 	bge	zero,r18,13e34 <__kernel_rem_pio2+0x900>
   138d8:	02804034 	movhi	r10,256
   138dc:	52bfffc4 	addi	r10,r10,-1
   138e0:	d8807804 	addi	r2,sp,480
   138e4:	000b883a 	mov	r5,zero
   138e8:	0029883a 	mov	r20,zero
   138ec:	01c04034 	movhi	r7,256
   138f0:	00000706 	br	13910 <__kernel_rem_pio2+0x3dc>
   138f4:	390dc83a 	sub	r6,r7,r4
   138f8:	20000226 	beq	r4,zero,13904 <__kernel_rem_pio2+0x3d0>
   138fc:	11800015 	stw	r6,0(r2)
   13900:	05000044 	movi	r20,1
   13904:	29400044 	addi	r5,r5,1
   13908:	10800104 	addi	r2,r2,4
   1390c:	2c80080e 	bge	r5,r18,13930 <__kernel_rem_pio2+0x3fc>
   13910:	11000017 	ldw	r4,0(r2)
   13914:	a03ff726 	beq	r20,zero,138f4 <_gp+0xfffef894>
   13918:	5109c83a 	sub	r4,r10,r4
   1391c:	11000015 	stw	r4,0(r2)
   13920:	29400044 	addi	r5,r5,1
   13924:	05000044 	movi	r20,1
   13928:	10800104 	addi	r2,r2,4
   1392c:	2cbff816 	blt	r5,r18,13910 <_gp+0xfffef8b0>
   13930:	d9009017 	ldw	r4,576(sp)
   13934:	01000e0e 	bge	zero,r4,13970 <__kernel_rem_pio2+0x43c>
   13938:	00800044 	movi	r2,1
   1393c:	20808d26 	beq	r4,r2,13b74 <__kernel_rem_pio2+0x640>
   13940:	00800084 	movi	r2,2
   13944:	20800a1e 	bne	r4,r2,13970 <__kernel_rem_pio2+0x43c>
   13948:	90bfffc4 	addi	r2,r18,-1
   1394c:	1085883a 	add	r2,r2,r2
   13950:	1085883a 	add	r2,r2,r2
   13954:	d885883a 	add	r2,sp,r2
   13958:	10807804 	addi	r2,r2,480
   1395c:	11400017 	ldw	r5,0(r2)
   13960:	01001034 	movhi	r4,64
   13964:	213fffc4 	addi	r4,r4,-1
   13968:	2908703a 	and	r4,r5,r4
   1396c:	11000015 	stw	r4,0(r2)
   13970:	00800084 	movi	r2,2
   13974:	98805d26 	beq	r19,r2,13aec <__kernel_rem_pio2+0x5b8>
   13978:	400b883a 	mov	r5,r8
   1397c:	000d883a 	mov	r6,zero
   13980:	000f883a 	mov	r7,zero
   13984:	a809883a 	mov	r4,r21
   13988:	da009b15 	stw	r8,620(sp)
   1398c:	00170800 	call	17080 <__eqdf2>
   13990:	da009b17 	ldw	r8,620(sp)
   13994:	10012b1e 	bne	r2,zero,13e44 <__kernel_rem_pio2+0x910>
   13998:	da009417 	ldw	r8,592(sp)
   1399c:	917fffc4 	addi	r5,r18,-1
   139a0:	2a000e16 	blt	r5,r8,139dc <__kernel_rem_pio2+0x4a8>
   139a4:	00900034 	movhi	r2,16384
   139a8:	10bfffc4 	addi	r2,r2,-1
   139ac:	9085883a 	add	r2,r18,r2
   139b0:	1085883a 	add	r2,r2,r2
   139b4:	d9809717 	ldw	r6,604(sp)
   139b8:	1085883a 	add	r2,r2,r2
   139bc:	d9007804 	addi	r4,sp,480
   139c0:	0007883a 	mov	r3,zero
   139c4:	2085883a 	add	r2,r4,r2
   139c8:	11000017 	ldw	r4,0(r2)
   139cc:	10bfff04 	addi	r2,r2,-4
   139d0:	1906b03a 	or	r3,r3,r4
   139d4:	11bffc1e 	bne	r2,r6,139c8 <_gp+0xfffef968>
   139d8:	1800821e 	bne	r3,zero,13be4 <__kernel_rem_pio2+0x6b0>
   139dc:	da009817 	ldw	r8,608(sp)
   139e0:	40800017 	ldw	r2,0(r8)
   139e4:	1001151e 	bne	r2,zero,13e3c <__kernel_rem_pio2+0x908>
   139e8:	d8809617 	ldw	r2,600(sp)
   139ec:	05000044 	movi	r20,1
   139f0:	10bfff04 	addi	r2,r2,-4
   139f4:	10c00117 	ldw	r3,4(r2)
   139f8:	a5000044 	addi	r20,r20,1
   139fc:	183ffc26 	beq	r3,zero,139f0 <_gp+0xfffef990>
   13a00:	9529883a 	add	r20,r18,r20
   13a04:	90800044 	addi	r2,r18,1
   13a08:	dd009115 	stw	r20,580(sp)
   13a0c:	a0803216 	blt	r20,r2,13ad8 <__kernel_rem_pio2+0x5a4>
   13a10:	da009317 	ldw	r8,588(sp)
   13a14:	d8c09117 	ldw	r3,580(sp)
   13a18:	44a3883a 	add	r17,r8,r18
   13a1c:	da009217 	ldw	r8,584(sp)
   13a20:	882290fa 	slli	r17,r17,3
   13a24:	40a5883a 	add	r18,r8,r2
   13a28:	da009517 	ldw	r8,596(sp)
   13a2c:	100490fa 	slli	r2,r2,3
   13a30:	94a5883a 	add	r18,r18,r18
   13a34:	40eb883a 	add	r21,r8,r3
   13a38:	da00a717 	ldw	r8,668(sp)
   13a3c:	ad6b883a 	add	r21,r21,r21
   13a40:	94a5883a 	add	r18,r18,r18
   13a44:	ad6b883a 	add	r21,r21,r21
   13a48:	d8c05004 	addi	r3,sp,320
   13a4c:	44a5883a 	add	r18,r8,r18
   13a50:	1c63883a 	add	r17,r3,r17
   13a54:	d8a7883a 	add	r19,sp,r2
   13a58:	456b883a 	add	r21,r8,r21
   13a5c:	91000017 	ldw	r4,0(r18)
   13a60:	00182780 	call	18278 <__floatsidf>
   13a64:	da008d17 	ldw	r8,564(sp)
   13a68:	88800015 	stw	r2,0(r17)
   13a6c:	88c00115 	stw	r3,4(r17)
   13a70:	40001b16 	blt	r8,zero,13ae0 <__kernel_rem_pio2+0x5ac>
   13a74:	dd008e17 	ldw	r20,568(sp)
   13a78:	882d883a 	mov	r22,r17
   13a7c:	002f883a 	mov	r23,zero
   13a80:	0039883a 	mov	fp,zero
   13a84:	b1800017 	ldw	r6,0(r22)
   13a88:	b1c00117 	ldw	r7,4(r22)
   13a8c:	a1000017 	ldw	r4,0(r20)
   13a90:	a1400117 	ldw	r5,4(r20)
   13a94:	a5000204 	addi	r20,r20,8
   13a98:	b5bffe04 	addi	r22,r22,-8
   13a9c:	00171e40 	call	171e4 <__muldf3>
   13aa0:	b809883a 	mov	r4,r23
   13aa4:	e00b883a 	mov	r5,fp
   13aa8:	100d883a 	mov	r6,r2
   13aac:	180f883a 	mov	r7,r3
   13ab0:	0015eec0 	call	15eec <__adddf3>
   13ab4:	102f883a 	mov	r23,r2
   13ab8:	1839883a 	mov	fp,r3
   13abc:	a43ff11e 	bne	r20,r16,13a84 <_gp+0xfffefa24>
   13ac0:	9dc00015 	stw	r23,0(r19)
   13ac4:	9f000115 	stw	fp,4(r19)
   13ac8:	94800104 	addi	r18,r18,4
   13acc:	8c400204 	addi	r17,r17,8
   13ad0:	9cc00204 	addi	r19,r19,8
   13ad4:	957fe11e 	bne	r18,r21,13a5c <_gp+0xfffef9fc>
   13ad8:	dc809117 	ldw	r18,580(sp)
   13adc:	003f0f06 	br	1371c <_gp+0xfffef6bc>
   13ae0:	002f883a 	mov	r23,zero
   13ae4:	0039883a 	mov	fp,zero
   13ae8:	003ff506 	br	13ac0 <_gp+0xfffefa60>
   13aec:	480d883a 	mov	r6,r9
   13af0:	180f883a 	mov	r7,r3
   13af4:	0009883a 	mov	r4,zero
   13af8:	014ffc34 	movhi	r5,16368
   13afc:	00178fc0 	call	178fc <__subdf3>
   13b00:	102b883a 	mov	r21,r2
   13b04:	1811883a 	mov	r8,r3
   13b08:	a03f9b26 	beq	r20,zero,13978 <_gp+0xfffef918>
   13b0c:	d9809017 	ldw	r6,576(sp)
   13b10:	0009883a 	mov	r4,zero
   13b14:	014ffc34 	movhi	r5,16368
   13b18:	d8c09b15 	stw	r3,620(sp)
   13b1c:	00147900 	call	14790 <scalbn>
   13b20:	da009b17 	ldw	r8,620(sp)
   13b24:	a809883a 	mov	r4,r21
   13b28:	100d883a 	mov	r6,r2
   13b2c:	400b883a 	mov	r5,r8
   13b30:	180f883a 	mov	r7,r3
   13b34:	00178fc0 	call	178fc <__subdf3>
   13b38:	102b883a 	mov	r21,r2
   13b3c:	1811883a 	mov	r8,r3
   13b40:	003f8d06 	br	13978 <_gp+0xfffef918>
   13b44:	0005883a 	mov	r2,zero
   13b48:	0007883a 	mov	r3,zero
   13b4c:	003eac06 	br	13600 <_gp+0xfffef5a0>
   13b50:	d8809017 	ldw	r2,576(sp)
   13b54:	1000121e 	bne	r2,zero,13ba0 <__kernel_rem_pio2+0x66c>
   13b58:	90bfffc4 	addi	r2,r18,-1
   13b5c:	1085883a 	add	r2,r2,r2
   13b60:	1085883a 	add	r2,r2,r2
   13b64:	d885883a 	add	r2,sp,r2
   13b68:	14c07817 	ldw	r19,480(r2)
   13b6c:	9827d5fa 	srai	r19,r19,23
   13b70:	003f5606 	br	138cc <_gp+0xfffef86c>
   13b74:	90bfffc4 	addi	r2,r18,-1
   13b78:	1085883a 	add	r2,r2,r2
   13b7c:	1085883a 	add	r2,r2,r2
   13b80:	d885883a 	add	r2,sp,r2
   13b84:	10807804 	addi	r2,r2,480
   13b88:	11000017 	ldw	r4,0(r2)
   13b8c:	01402034 	movhi	r5,128
   13b90:	297fffc4 	addi	r5,r5,-1
   13b94:	2148703a 	and	r4,r4,r5
   13b98:	11000015 	stw	r4,0(r2)
   13b9c:	003f7406 	br	13970 <_gp+0xfffef910>
   13ba0:	4809883a 	mov	r4,r9
   13ba4:	180b883a 	mov	r5,r3
   13ba8:	000d883a 	mov	r6,zero
   13bac:	01cff834 	movhi	r7,16352
   13bb0:	d8c09a15 	stw	r3,616(sp)
   13bb4:	d8c09b15 	stw	r3,620(sp)
   13bb8:	da409915 	stw	r9,612(sp)
   13bbc:	00171080 	call	17108 <__gedf2>
   13bc0:	d8c09a17 	ldw	r3,616(sp)
   13bc4:	da009b17 	ldw	r8,620(sp)
   13bc8:	da409917 	ldw	r9,612(sp)
   13bcc:	1000920e 	bge	r2,zero,13e18 <__kernel_rem_pio2+0x8e4>
   13bd0:	0027883a 	mov	r19,zero
   13bd4:	003f6806 	br	13978 <_gp+0xfffef918>
   13bd8:	002d883a 	mov	r22,zero
   13bdc:	002b883a 	mov	r21,zero
   13be0:	003eb006 	br	136a4 <_gp+0xfffef644>
   13be4:	2945883a 	add	r2,r5,r5
   13be8:	da009017 	ldw	r8,576(sp)
   13bec:	1085883a 	add	r2,r2,r2
   13bf0:	d885883a 	add	r2,sp,r2
   13bf4:	10807817 	ldw	r2,480(r2)
   13bf8:	423ffa04 	addi	r8,r8,-24
   13bfc:	dc409115 	stw	r17,580(sp)
   13c00:	dcc08d15 	stw	r19,564(sp)
   13c04:	da009015 	stw	r8,576(sp)
   13c08:	dd809417 	ldw	r22,592(sp)
   13c0c:	2823883a 	mov	r17,r5
   13c10:	10000e1e 	bne	r2,zero,13c4c <__kernel_rem_pio2+0x718>
   13c14:	00900034 	movhi	r2,16384
   13c18:	10bfffc4 	addi	r2,r2,-1
   13c1c:	2885883a 	add	r2,r5,r2
   13c20:	1085883a 	add	r2,r2,r2
   13c24:	d8c07804 	addi	r3,sp,480
   13c28:	1085883a 	add	r2,r2,r2
   13c2c:	1885883a 	add	r2,r3,r2
   13c30:	4007883a 	mov	r3,r8
   13c34:	10bfff04 	addi	r2,r2,-4
   13c38:	11000117 	ldw	r4,4(r2)
   13c3c:	8c7fffc4 	addi	r17,r17,-1
   13c40:	18fffa04 	addi	r3,r3,-24
   13c44:	203ffb26 	beq	r4,zero,13c34 <_gp+0xfffefbd4>
   13c48:	d8c09015 	stw	r3,576(sp)
   13c4c:	d9809017 	ldw	r6,576(sp)
   13c50:	0009883a 	mov	r4,zero
   13c54:	014ffc34 	movhi	r5,16368
   13c58:	00147900 	call	14790 <scalbn>
   13c5c:	1029883a 	mov	r20,r2
   13c60:	182b883a 	mov	r21,r3
   13c64:	88018416 	blt	r17,zero,14278 <__kernel_rem_pio2+0xd44>
   13c68:	881090fa 	slli	r8,r17,3
   13c6c:	d8c07804 	addi	r3,sp,480
   13c70:	da008e15 	stw	r8,568(sp)
   13c74:	d8808e17 	ldw	r2,568(sp)
   13c78:	8c51883a 	add	r8,r17,r17
   13c7c:	4211883a 	add	r8,r8,r8
   13c80:	d8a1883a 	add	r16,sp,r2
   13c84:	1a25883a 	add	r18,r3,r8
   13c88:	da3ffe04 	addi	r8,sp,-8
   13c8c:	da008c15 	stw	r8,560(sp)
   13c90:	8039883a 	mov	fp,r16
   13c94:	91000017 	ldw	r4,0(r18)
   13c98:	e73ffe04 	addi	fp,fp,-8
   13c9c:	94bfff04 	addi	r18,r18,-4
   13ca0:	00182780 	call	18278 <__floatsidf>
   13ca4:	a00d883a 	mov	r6,r20
   13ca8:	a80f883a 	mov	r7,r21
   13cac:	1009883a 	mov	r4,r2
   13cb0:	180b883a 	mov	r5,r3
   13cb4:	00171e40 	call	171e4 <__muldf3>
   13cb8:	a009883a 	mov	r4,r20
   13cbc:	a80b883a 	mov	r5,r21
   13cc0:	e0800215 	stw	r2,8(fp)
   13cc4:	e0c00315 	stw	r3,12(fp)
   13cc8:	000d883a 	mov	r6,zero
   13ccc:	01cf9c34 	movhi	r7,15984
   13cd0:	00171e40 	call	171e4 <__muldf3>
   13cd4:	da008c17 	ldw	r8,560(sp)
   13cd8:	1029883a 	mov	r20,r2
   13cdc:	182b883a 	mov	r21,r3
   13ce0:	e23fec1e 	bne	fp,r8,13c94 <_gp+0xfffefc34>
   13ce4:	0029883a 	mov	r20,zero
   13ce8:	b0004f16 	blt	r22,zero,13e28 <__kernel_rem_pio2+0x8f4>
   13cec:	054000b4 	movhi	r21,2
   13cf0:	014ffe74 	movhi	r5,16377
   13cf4:	ad6d9704 	addi	r21,r21,-18852
   13cf8:	8027883a 	mov	r19,r16
   13cfc:	01100034 	movhi	r4,16384
   13d00:	29487ec4 	addi	r5,r5,8699
   13d04:	0039883a 	mov	fp,zero
   13d08:	002f883a 	mov	r23,zero
   13d0c:	0025883a 	mov	r18,zero
   13d10:	00000506 	br	13d28 <__kernel_rem_pio2+0x7f4>
   13d14:	9cc00204 	addi	r19,r19,8
   13d18:	a4800f16 	blt	r20,r18,13d58 <__kernel_rem_pio2+0x824>
   13d1c:	a9000017 	ldw	r4,0(r21)
   13d20:	a9400117 	ldw	r5,4(r21)
   13d24:	ad400204 	addi	r21,r21,8
   13d28:	99800017 	ldw	r6,0(r19)
   13d2c:	99c00117 	ldw	r7,4(r19)
   13d30:	94800044 	addi	r18,r18,1
   13d34:	00171e40 	call	171e4 <__muldf3>
   13d38:	e009883a 	mov	r4,fp
   13d3c:	b80b883a 	mov	r5,r23
   13d40:	100d883a 	mov	r6,r2
   13d44:	180f883a 	mov	r7,r3
   13d48:	0015eec0 	call	15eec <__adddf3>
   13d4c:	1039883a 	mov	fp,r2
   13d50:	182f883a 	mov	r23,r3
   13d54:	b4bfef0e 	bge	r22,r18,13d14 <_gp+0xfffefcb4>
   13d58:	a00490fa 	slli	r2,r20,3
   13d5c:	da008c17 	ldw	r8,560(sp)
   13d60:	843ffe04 	addi	r16,r16,-8
   13d64:	d885883a 	add	r2,sp,r2
   13d68:	10802804 	addi	r2,r2,160
   13d6c:	17000015 	stw	fp,0(r2)
   13d70:	15c00115 	stw	r23,4(r2)
   13d74:	a5000044 	addi	r20,r20,1
   13d78:	823fdb1e 	bne	r16,r8,13ce8 <_gp+0xfffefc88>
   13d7c:	da00a617 	ldw	r8,664(sp)
   13d80:	00800084 	movi	r2,2
   13d84:	12006616 	blt	r2,r8,13f20 <__kernel_rem_pio2+0x9ec>
   13d88:	0200de16 	blt	zero,r8,14104 <__kernel_rem_pio2+0xbd0>
   13d8c:	4000141e 	bne	r8,zero,13de0 <__kernel_rem_pio2+0x8ac>
   13d90:	da008e17 	ldw	r8,568(sp)
   13d94:	d8802804 	addi	r2,sp,160
   13d98:	0007883a 	mov	r3,zero
   13d9c:	1225883a 	add	r18,r2,r8
   13da0:	043fffc4 	movi	r16,-1
   13da4:	0005883a 	mov	r2,zero
   13da8:	91800017 	ldw	r6,0(r18)
   13dac:	91c00117 	ldw	r7,4(r18)
   13db0:	1009883a 	mov	r4,r2
   13db4:	180b883a 	mov	r5,r3
   13db8:	8c7fffc4 	addi	r17,r17,-1
   13dbc:	0015eec0 	call	15eec <__adddf3>
   13dc0:	94bffe04 	addi	r18,r18,-8
   13dc4:	8c3ff81e 	bne	r17,r16,13da8 <_gp+0xfffefd48>
   13dc8:	da008d17 	ldw	r8,564(sp)
   13dcc:	40000126 	beq	r8,zero,13dd4 <__kernel_rem_pio2+0x8a0>
   13dd0:	18e0003c 	xorhi	r3,r3,32768
   13dd4:	da008f17 	ldw	r8,572(sp)
   13dd8:	40800015 	stw	r2,0(r8)
   13ddc:	40c00115 	stw	r3,4(r8)
   13de0:	da009117 	ldw	r8,580(sp)
   13de4:	408001cc 	andi	r2,r8,7
   13de8:	dfc0a517 	ldw	ra,660(sp)
   13dec:	df00a417 	ldw	fp,656(sp)
   13df0:	ddc0a317 	ldw	r23,652(sp)
   13df4:	dd80a217 	ldw	r22,648(sp)
   13df8:	dd40a117 	ldw	r21,644(sp)
   13dfc:	dd00a017 	ldw	r20,640(sp)
   13e00:	dcc09f17 	ldw	r19,636(sp)
   13e04:	dc809e17 	ldw	r18,632(sp)
   13e08:	dc409d17 	ldw	r17,628(sp)
   13e0c:	dc009c17 	ldw	r16,624(sp)
   13e10:	dec0a604 	addi	sp,sp,664
   13e14:	f800283a 	ret
   13e18:	8c400044 	addi	r17,r17,1
   13e1c:	04810d0e 	bge	zero,r18,14254 <__kernel_rem_pio2+0xd20>
   13e20:	04c00084 	movi	r19,2
   13e24:	003eac06 	br	138d8 <_gp+0xfffef878>
   13e28:	0039883a 	mov	fp,zero
   13e2c:	002f883a 	mov	r23,zero
   13e30:	003fc906 	br	13d58 <_gp+0xfffefcf8>
   13e34:	0029883a 	mov	r20,zero
   13e38:	003ebd06 	br	13930 <_gp+0xfffef8d0>
   13e3c:	05000044 	movi	r20,1
   13e40:	003eef06 	br	13a00 <_gp+0xfffef9a0>
   13e44:	4029883a 	mov	r20,r8
   13e48:	da009017 	ldw	r8,576(sp)
   13e4c:	a809883a 	mov	r4,r21
   13e50:	a00b883a 	mov	r5,r20
   13e54:	020dc83a 	sub	r6,zero,r8
   13e58:	dc409115 	stw	r17,580(sp)
   13e5c:	dd809417 	ldw	r22,592(sp)
   13e60:	dcc08d15 	stw	r19,564(sp)
   13e64:	00147900 	call	14790 <scalbn>
   13e68:	000d883a 	mov	r6,zero
   13e6c:	01d05c34 	movhi	r7,16752
   13e70:	1009883a 	mov	r4,r2
   13e74:	180b883a 	mov	r5,r3
   13e78:	102b883a 	mov	r21,r2
   13e7c:	1823883a 	mov	r17,r3
   13e80:	00171080 	call	17108 <__gedf2>
   13e84:	1000e916 	blt	r2,zero,1422c <__kernel_rem_pio2+0xcf8>
   13e88:	000d883a 	mov	r6,zero
   13e8c:	01cf9c34 	movhi	r7,15984
   13e90:	880b883a 	mov	r5,r17
   13e94:	a809883a 	mov	r4,r21
   13e98:	00171e40 	call	171e4 <__muldf3>
   13e9c:	180b883a 	mov	r5,r3
   13ea0:	1009883a 	mov	r4,r2
   13ea4:	00181f80 	call	181f8 <__fixdfsi>
   13ea8:	1029883a 	mov	r20,r2
   13eac:	9485883a 	add	r2,r18,r18
   13eb0:	1085883a 	add	r2,r2,r2
   13eb4:	a009883a 	mov	r4,r20
   13eb8:	d8a1883a 	add	r16,sp,r2
   13ebc:	00182780 	call	18278 <__floatsidf>
   13ec0:	000d883a 	mov	r6,zero
   13ec4:	01d05c34 	movhi	r7,16752
   13ec8:	1009883a 	mov	r4,r2
   13ecc:	180b883a 	mov	r5,r3
   13ed0:	00171e40 	call	171e4 <__muldf3>
   13ed4:	880b883a 	mov	r5,r17
   13ed8:	100d883a 	mov	r6,r2
   13edc:	180f883a 	mov	r7,r3
   13ee0:	a809883a 	mov	r4,r21
   13ee4:	00178fc0 	call	178fc <__subdf3>
   13ee8:	180b883a 	mov	r5,r3
   13eec:	1009883a 	mov	r4,r2
   13ef0:	00181f80 	call	181f8 <__fixdfsi>
   13ef4:	da009017 	ldw	r8,576(sp)
   13ef8:	94400044 	addi	r17,r18,1
   13efc:	8c47883a 	add	r3,r17,r17
   13f00:	84007804 	addi	r16,r16,480
   13f04:	18c7883a 	add	r3,r3,r3
   13f08:	80800015 	stw	r2,0(r16)
   13f0c:	d8c7883a 	add	r3,sp,r3
   13f10:	42000604 	addi	r8,r8,24
   13f14:	da009015 	stw	r8,576(sp)
   13f18:	1d007815 	stw	r20,480(r3)
   13f1c:	003f4b06 	br	13c4c <_gp+0xfffefbec>
   13f20:	da00a617 	ldw	r8,664(sp)
   13f24:	008000c4 	movi	r2,3
   13f28:	40bfad1e 	bne	r8,r2,13de0 <_gp+0xfffefd80>
   13f2c:	0440bc0e 	bge	zero,r17,14220 <__kernel_rem_pio2+0xcec>
   13f30:	da008e17 	ldw	r8,568(sp)
   13f34:	882090fa 	slli	r16,r17,3
   13f38:	dd402804 	addi	r21,sp,160
   13f3c:	da05883a 	add	r2,sp,r8
   13f40:	10802804 	addi	r2,r2,160
   13f44:	15c00017 	ldw	r23,0(r2)
   13f48:	15800117 	ldw	r22,4(r2)
   13f4c:	8029883a 	mov	r20,r16
   13f50:	843ffe04 	addi	r16,r16,-8
   13f54:	ac21883a 	add	r16,r21,r16
   13f58:	ad29883a 	add	r20,r21,r20
   13f5c:	dac02604 	addi	r11,sp,152
   13f60:	8811883a 	mov	r8,r17
   13f64:	84400017 	ldw	r17,0(r16)
   13f68:	87000117 	ldw	fp,4(r16)
   13f6c:	b80d883a 	mov	r6,r23
   13f70:	b00f883a 	mov	r7,r22
   13f74:	8809883a 	mov	r4,r17
   13f78:	e00b883a 	mov	r5,fp
   13f7c:	da009b15 	stw	r8,620(sp)
   13f80:	dac09915 	stw	r11,612(sp)
   13f84:	0015eec0 	call	15eec <__adddf3>
   13f88:	100d883a 	mov	r6,r2
   13f8c:	180f883a 	mov	r7,r3
   13f90:	8809883a 	mov	r4,r17
   13f94:	e00b883a 	mov	r5,fp
   13f98:	1027883a 	mov	r19,r2
   13f9c:	1825883a 	mov	r18,r3
   13fa0:	00178fc0 	call	178fc <__subdf3>
   13fa4:	b80d883a 	mov	r6,r23
   13fa8:	b00f883a 	mov	r7,r22
   13fac:	1009883a 	mov	r4,r2
   13fb0:	180b883a 	mov	r5,r3
   13fb4:	0015eec0 	call	15eec <__adddf3>
   13fb8:	dac09917 	ldw	r11,612(sp)
   13fbc:	a0800015 	stw	r2,0(r20)
   13fc0:	a0c00115 	stw	r3,4(r20)
   13fc4:	84c00015 	stw	r19,0(r16)
   13fc8:	84800115 	stw	r18,4(r16)
   13fcc:	843ffe04 	addi	r16,r16,-8
   13fd0:	a53ffe04 	addi	r20,r20,-8
   13fd4:	982f883a 	mov	r23,r19
   13fd8:	902d883a 	mov	r22,r18
   13fdc:	da009b17 	ldw	r8,620(sp)
   13fe0:	5c3fe01e 	bne	r11,r16,13f64 <_gp+0xfffeff04>
   13fe4:	00800044 	movi	r2,1
   13fe8:	12008d0e 	bge	r2,r8,14220 <__kernel_rem_pio2+0xcec>
   13fec:	402090fa 	slli	r16,r8,3
   13ff0:	da008e17 	ldw	r8,568(sp)
   13ff4:	8023883a 	mov	r17,r16
   13ff8:	da05883a 	add	r2,sp,r8
   13ffc:	10802804 	addi	r2,r2,160
   14000:	15800017 	ldw	r22,0(r2)
   14004:	15000117 	ldw	r20,4(r2)
   14008:	ac63883a 	add	r17,r21,r17
   1400c:	843ffe04 	addi	r16,r16,-8
   14010:	ac21883a 	add	r16,r21,r16
   14014:	8825883a 	mov	r18,r17
   14018:	8811883a 	mov	r8,r17
   1401c:	84400017 	ldw	r17,0(r16)
   14020:	87000117 	ldw	fp,4(r16)
   14024:	b009883a 	mov	r4,r22
   14028:	a00b883a 	mov	r5,r20
   1402c:	880d883a 	mov	r6,r17
   14030:	e00f883a 	mov	r7,fp
   14034:	da009b15 	stw	r8,620(sp)
   14038:	0015eec0 	call	15eec <__adddf3>
   1403c:	100d883a 	mov	r6,r2
   14040:	180f883a 	mov	r7,r3
   14044:	8809883a 	mov	r4,r17
   14048:	e00b883a 	mov	r5,fp
   1404c:	102f883a 	mov	r23,r2
   14050:	1827883a 	mov	r19,r3
   14054:	00178fc0 	call	178fc <__subdf3>
   14058:	b00d883a 	mov	r6,r22
   1405c:	a00f883a 	mov	r7,r20
   14060:	1009883a 	mov	r4,r2
   14064:	180b883a 	mov	r5,r3
   14068:	0015eec0 	call	15eec <__adddf3>
   1406c:	90800015 	stw	r2,0(r18)
   14070:	90c00115 	stw	r3,4(r18)
   14074:	85c00015 	stw	r23,0(r16)
   14078:	84c00115 	stw	r19,4(r16)
   1407c:	843ffe04 	addi	r16,r16,-8
   14080:	94bffe04 	addi	r18,r18,-8
   14084:	b82d883a 	mov	r22,r23
   14088:	9829883a 	mov	r20,r19
   1408c:	da009b17 	ldw	r8,620(sp)
   14090:	ac3fe21e 	bne	r21,r16,1401c <_gp+0xfffeffbc>
   14094:	4023883a 	mov	r17,r8
   14098:	dc002a04 	addi	r16,sp,168
   1409c:	0005883a 	mov	r2,zero
   140a0:	0007883a 	mov	r3,zero
   140a4:	89800017 	ldw	r6,0(r17)
   140a8:	89c00117 	ldw	r7,4(r17)
   140ac:	1009883a 	mov	r4,r2
   140b0:	8c7ffe04 	addi	r17,r17,-8
   140b4:	180b883a 	mov	r5,r3
   140b8:	0015eec0 	call	15eec <__adddf3>
   140bc:	847ff91e 	bne	r16,r17,140a4 <_gp+0xffff0044>
   140c0:	da008d17 	ldw	r8,564(sp)
   140c4:	40004726 	beq	r8,zero,141e4 <__kernel_rem_pio2+0xcb0>
   140c8:	d9002b17 	ldw	r4,172(sp)
   140cc:	d9402917 	ldw	r5,164(sp)
   140d0:	d9802a17 	ldw	r6,168(sp)
   140d4:	da008f17 	ldw	r8,572(sp)
   140d8:	d9c02817 	ldw	r7,160(sp)
   140dc:	2960003c 	xorhi	r5,r5,32768
   140e0:	2120003c 	xorhi	r4,r4,32768
   140e4:	18e0003c 	xorhi	r3,r3,32768
   140e8:	41c00015 	stw	r7,0(r8)
   140ec:	41400115 	stw	r5,4(r8)
   140f0:	41800215 	stw	r6,8(r8)
   140f4:	41000315 	stw	r4,12(r8)
   140f8:	40800415 	stw	r2,16(r8)
   140fc:	40c00515 	stw	r3,20(r8)
   14100:	003f3706 	br	13de0 <_gp+0xfffefd80>
   14104:	da008e17 	ldw	r8,568(sp)
   14108:	d8802804 	addi	r2,sp,160
   1410c:	dc002604 	addi	r16,sp,152
   14110:	1225883a 	add	r18,r2,r8
   14114:	0007883a 	mov	r3,zero
   14118:	0005883a 	mov	r2,zero
   1411c:	91800017 	ldw	r6,0(r18)
   14120:	91c00117 	ldw	r7,4(r18)
   14124:	1009883a 	mov	r4,r2
   14128:	94bffe04 	addi	r18,r18,-8
   1412c:	180b883a 	mov	r5,r3
   14130:	0015eec0 	call	15eec <__adddf3>
   14134:	943ff91e 	bne	r18,r16,1411c <_gp+0xffff00bc>
   14138:	da008d17 	ldw	r8,564(sp)
   1413c:	d9002817 	ldw	r4,160(sp)
   14140:	d9402917 	ldw	r5,164(sp)
   14144:	40001a26 	beq	r8,zero,141b0 <__kernel_rem_pio2+0xc7c>
   14148:	da008f17 	ldw	r8,572(sp)
   1414c:	19a0003c 	xorhi	r6,r3,32768
   14150:	180f883a 	mov	r7,r3
   14154:	41800115 	stw	r6,4(r8)
   14158:	40800015 	stw	r2,0(r8)
   1415c:	100d883a 	mov	r6,r2
   14160:	00178fc0 	call	178fc <__subdf3>
   14164:	04400c0e 	bge	zero,r17,14198 <__kernel_rem_pio2+0xc64>
   14168:	dc002a04 	addi	r16,sp,168
   1416c:	04800044 	movi	r18,1
   14170:	81800017 	ldw	r6,0(r16)
   14174:	81c00117 	ldw	r7,4(r16)
   14178:	1009883a 	mov	r4,r2
   1417c:	180b883a 	mov	r5,r3
   14180:	94800044 	addi	r18,r18,1
   14184:	0015eec0 	call	15eec <__adddf3>
   14188:	84000204 	addi	r16,r16,8
   1418c:	8cbff80e 	bge	r17,r18,14170 <_gp+0xffff0110>
   14190:	da008d17 	ldw	r8,564(sp)
   14194:	40004226 	beq	r8,zero,142a0 <__kernel_rem_pio2+0xd6c>
   14198:	da008f17 	ldw	r8,572(sp)
   1419c:	1009883a 	mov	r4,r2
   141a0:	18a0003c 	xorhi	r2,r3,32768
   141a4:	41000215 	stw	r4,8(r8)
   141a8:	40800315 	stw	r2,12(r8)
   141ac:	003f0c06 	br	13de0 <_gp+0xfffefd80>
   141b0:	da008f17 	ldw	r8,572(sp)
   141b4:	100d883a 	mov	r6,r2
   141b8:	180f883a 	mov	r7,r3
   141bc:	40800015 	stw	r2,0(r8)
   141c0:	40c00115 	stw	r3,4(r8)
   141c4:	00178fc0 	call	178fc <__subdf3>
   141c8:	047fe716 	blt	zero,r17,14168 <_gp+0xffff0108>
   141cc:	da008f17 	ldw	r8,572(sp)
   141d0:	1009883a 	mov	r4,r2
   141d4:	1805883a 	mov	r2,r3
   141d8:	41000215 	stw	r4,8(r8)
   141dc:	40800315 	stw	r2,12(r8)
   141e0:	003eff06 	br	13de0 <_gp+0xfffefd80>
   141e4:	da008f17 	ldw	r8,572(sp)
   141e8:	d9802817 	ldw	r6,160(sp)
   141ec:	d9402a17 	ldw	r5,168(sp)
   141f0:	d9002b17 	ldw	r4,172(sp)
   141f4:	41800015 	stw	r6,0(r8)
   141f8:	d9802917 	ldw	r6,164(sp)
   141fc:	41400215 	stw	r5,8(r8)
   14200:	41000315 	stw	r4,12(r8)
   14204:	41800115 	stw	r6,4(r8)
   14208:	40800415 	stw	r2,16(r8)
   1420c:	40c00515 	stw	r3,20(r8)
   14210:	003ef306 	br	13de0 <_gp+0xfffefd80>
   14214:	da00a617 	ldw	r8,664(sp)
   14218:	008000c4 	movi	r2,3
   1421c:	40bef01e 	bne	r8,r2,13de0 <_gp+0xfffefd80>
   14220:	0005883a 	mov	r2,zero
   14224:	0007883a 	mov	r3,zero
   14228:	003fa506 	br	140c0 <_gp+0xffff0060>
   1422c:	9485883a 	add	r2,r18,r18
   14230:	1085883a 	add	r2,r2,r2
   14234:	d8a1883a 	add	r16,sp,r2
   14238:	880b883a 	mov	r5,r17
   1423c:	a809883a 	mov	r4,r21
   14240:	84007804 	addi	r16,r16,480
   14244:	00181f80 	call	181f8 <__fixdfsi>
   14248:	80800015 	stw	r2,0(r16)
   1424c:	9023883a 	mov	r17,r18
   14250:	003e7e06 	br	13c4c <_gp+0xfffefbec>
   14254:	a80d883a 	mov	r6,r21
   14258:	400f883a 	mov	r7,r8
   1425c:	0009883a 	mov	r4,zero
   14260:	014ffc34 	movhi	r5,16368
   14264:	00178fc0 	call	178fc <__subdf3>
   14268:	102b883a 	mov	r21,r2
   1426c:	1811883a 	mov	r8,r3
   14270:	04c00084 	movi	r19,2
   14274:	003dc006 	br	13978 <_gp+0xfffef918>
   14278:	da00a617 	ldw	r8,664(sp)
   1427c:	00800084 	movi	r2,2
   14280:	123fe416 	blt	r2,r8,14214 <_gp+0xffff01b4>
   14284:	02000c16 	blt	zero,r8,142b8 <__kernel_rem_pio2+0xd84>
   14288:	403ed51e 	bne	r8,zero,13de0 <_gp+0xfffefd80>
   1428c:	0005883a 	mov	r2,zero
   14290:	0007883a 	mov	r3,zero
   14294:	003ecc06 	br	13dc8 <_gp+0xfffefd68>
   14298:	d8009215 	stw	zero,584(sp)
   1429c:	003cc306 	br	135ac <_gp+0xfffef54c>
   142a0:	da008f17 	ldw	r8,572(sp)
   142a4:	1009883a 	mov	r4,r2
   142a8:	1805883a 	mov	r2,r3
   142ac:	41000215 	stw	r4,8(r8)
   142b0:	40800315 	stw	r2,12(r8)
   142b4:	003eca06 	br	13de0 <_gp+0xfffefd80>
   142b8:	0005883a 	mov	r2,zero
   142bc:	0007883a 	mov	r3,zero
   142c0:	003f9d06 	br	14138 <_gp+0xffff00d8>

000142c4 <__kernel_sin>:
   142c4:	00a00034 	movhi	r2,32768
   142c8:	defff404 	addi	sp,sp,-48
   142cc:	10bfffc4 	addi	r2,r2,-1
   142d0:	00cf9034 	movhi	r3,15936
   142d4:	ddc00915 	stw	r23,36(sp)
   142d8:	dd800815 	stw	r22,32(sp)
   142dc:	dc400315 	stw	r17,12(sp)
   142e0:	dc000215 	stw	r16,8(sp)
   142e4:	dfc00b15 	stw	ra,44(sp)
   142e8:	df000a15 	stw	fp,40(sp)
   142ec:	dd400715 	stw	r21,28(sp)
   142f0:	dd000615 	stw	r20,24(sp)
   142f4:	dcc00515 	stw	r19,20(sp)
   142f8:	dc800415 	stw	r18,16(sp)
   142fc:	2884703a 	and	r2,r5,r2
   14300:	18ffffc4 	addi	r3,r3,-1
   14304:	2821883a 	mov	r16,r5
   14308:	2023883a 	mov	r17,r4
   1430c:	302f883a 	mov	r23,r6
   14310:	382d883a 	mov	r22,r7
   14314:	18800216 	blt	r3,r2,14320 <__kernel_sin+0x5c>
   14318:	00181f80 	call	181f8 <__fixdfsi>
   1431c:	10009926 	beq	r2,zero,14584 <__kernel_sin+0x2c0>
   14320:	880d883a 	mov	r6,r17
   14324:	800f883a 	mov	r7,r16
   14328:	8809883a 	mov	r4,r17
   1432c:	800b883a 	mov	r5,r16
   14330:	00171e40 	call	171e4 <__muldf3>
   14334:	100d883a 	mov	r6,r2
   14338:	180f883a 	mov	r7,r3
   1433c:	8809883a 	mov	r4,r17
   14340:	800b883a 	mov	r5,r16
   14344:	1027883a 	mov	r19,r2
   14348:	1825883a 	mov	r18,r3
   1434c:	00171e40 	call	171e4 <__muldf3>
   14350:	0196b434 	movhi	r6,23248
   14354:	01cf79b4 	movhi	r7,15846
   14358:	31b55f04 	addi	r6,r6,-10884
   1435c:	39f64e84 	addi	r7,r7,-9926
   14360:	9809883a 	mov	r4,r19
   14364:	900b883a 	mov	r5,r18
   14368:	102b883a 	mov	r21,r2
   1436c:	1829883a 	mov	r20,r3
   14370:	00171e40 	call	171e4 <__muldf3>
   14374:	01a28b34 	movhi	r6,35372
   14378:	01cf96f4 	movhi	r7,15963
   1437c:	31a73ac4 	addi	r6,r6,-25365
   14380:	39f97984 	addi	r7,r7,-6682
   14384:	1009883a 	mov	r4,r2
   14388:	180b883a 	mov	r5,r3
   1438c:	00178fc0 	call	178fc <__subdf3>
   14390:	980d883a 	mov	r6,r19
   14394:	900f883a 	mov	r7,r18
   14398:	1009883a 	mov	r4,r2
   1439c:	180b883a 	mov	r5,r3
   143a0:	00171e40 	call	171e4 <__muldf3>
   143a4:	0195ecb4 	movhi	r6,22450
   143a8:	01cfb1f4 	movhi	r7,16071
   143ac:	31bf9f44 	addi	r6,r6,-387
   143b0:	39c778c4 	addi	r7,r7,7651
   143b4:	1009883a 	mov	r4,r2
   143b8:	180b883a 	mov	r5,r3
   143bc:	0015eec0 	call	15eec <__adddf3>
   143c0:	980d883a 	mov	r6,r19
   143c4:	900f883a 	mov	r7,r18
   143c8:	1009883a 	mov	r4,r2
   143cc:	180b883a 	mov	r5,r3
   143d0:	00171e40 	call	171e4 <__muldf3>
   143d4:	01867074 	movhi	r6,6593
   143d8:	01cfcab4 	movhi	r7,16170
   143dc:	31987544 	addi	r6,r6,25045
   143e0:	39c06804 	addi	r7,r7,416
   143e4:	1009883a 	mov	r4,r2
   143e8:	180b883a 	mov	r5,r3
   143ec:	00178fc0 	call	178fc <__subdf3>
   143f0:	980d883a 	mov	r6,r19
   143f4:	900f883a 	mov	r7,r18
   143f8:	1009883a 	mov	r4,r2
   143fc:	180b883a 	mov	r5,r3
   14400:	00171e40 	call	171e4 <__muldf3>
   14404:	01844474 	movhi	r6,4369
   14408:	01cfe074 	movhi	r7,16257
   1440c:	31be2984 	addi	r6,r6,-1882
   14410:	39c44444 	addi	r7,r7,4369
   14414:	1009883a 	mov	r4,r2
   14418:	180b883a 	mov	r5,r3
   1441c:	0015eec0 	call	15eec <__adddf3>
   14420:	1011883a 	mov	r8,r2
   14424:	d8800c17 	ldw	r2,48(sp)
   14428:	1839883a 	mov	fp,r3
   1442c:	10003e26 	beq	r2,zero,14528 <__kernel_sin+0x264>
   14430:	000d883a 	mov	r6,zero
   14434:	01cff834 	movhi	r7,16352
   14438:	b809883a 	mov	r4,r23
   1443c:	b00b883a 	mov	r5,r22
   14440:	da000015 	stw	r8,0(sp)
   14444:	00171e40 	call	171e4 <__muldf3>
   14448:	da000017 	ldw	r8,0(sp)
   1444c:	e00f883a 	mov	r7,fp
   14450:	a809883a 	mov	r4,r21
   14454:	400d883a 	mov	r6,r8
   14458:	a00b883a 	mov	r5,r20
   1445c:	d8c00115 	stw	r3,4(sp)
   14460:	d8800015 	stw	r2,0(sp)
   14464:	00171e40 	call	171e4 <__muldf3>
   14468:	da800017 	ldw	r10,0(sp)
   1446c:	da400117 	ldw	r9,4(sp)
   14470:	100d883a 	mov	r6,r2
   14474:	5009883a 	mov	r4,r10
   14478:	480b883a 	mov	r5,r9
   1447c:	180f883a 	mov	r7,r3
   14480:	00178fc0 	call	178fc <__subdf3>
   14484:	980d883a 	mov	r6,r19
   14488:	900f883a 	mov	r7,r18
   1448c:	1009883a 	mov	r4,r2
   14490:	180b883a 	mov	r5,r3
   14494:	00171e40 	call	171e4 <__muldf3>
   14498:	b80d883a 	mov	r6,r23
   1449c:	b00f883a 	mov	r7,r22
   144a0:	1009883a 	mov	r4,r2
   144a4:	180b883a 	mov	r5,r3
   144a8:	00178fc0 	call	178fc <__subdf3>
   144ac:	01955574 	movhi	r6,21845
   144b0:	01cff174 	movhi	r7,16325
   144b4:	31955244 	addi	r6,r6,21833
   144b8:	39d55544 	addi	r7,r7,21845
   144bc:	a809883a 	mov	r4,r21
   144c0:	a00b883a 	mov	r5,r20
   144c4:	1027883a 	mov	r19,r2
   144c8:	1825883a 	mov	r18,r3
   144cc:	00171e40 	call	171e4 <__muldf3>
   144d0:	100d883a 	mov	r6,r2
   144d4:	180f883a 	mov	r7,r3
   144d8:	9809883a 	mov	r4,r19
   144dc:	900b883a 	mov	r5,r18
   144e0:	0015eec0 	call	15eec <__adddf3>
   144e4:	100d883a 	mov	r6,r2
   144e8:	180f883a 	mov	r7,r3
   144ec:	8809883a 	mov	r4,r17
   144f0:	800b883a 	mov	r5,r16
   144f4:	00178fc0 	call	178fc <__subdf3>
   144f8:	dfc00b17 	ldw	ra,44(sp)
   144fc:	df000a17 	ldw	fp,40(sp)
   14500:	ddc00917 	ldw	r23,36(sp)
   14504:	dd800817 	ldw	r22,32(sp)
   14508:	dd400717 	ldw	r21,28(sp)
   1450c:	dd000617 	ldw	r20,24(sp)
   14510:	dcc00517 	ldw	r19,20(sp)
   14514:	dc800417 	ldw	r18,16(sp)
   14518:	dc400317 	ldw	r17,12(sp)
   1451c:	dc000217 	ldw	r16,8(sp)
   14520:	dec00c04 	addi	sp,sp,48
   14524:	f800283a 	ret
   14528:	400d883a 	mov	r6,r8
   1452c:	9809883a 	mov	r4,r19
   14530:	900b883a 	mov	r5,r18
   14534:	180f883a 	mov	r7,r3
   14538:	00171e40 	call	171e4 <__muldf3>
   1453c:	01955574 	movhi	r6,21845
   14540:	01cff174 	movhi	r7,16325
   14544:	31955244 	addi	r6,r6,21833
   14548:	39d55544 	addi	r7,r7,21845
   1454c:	1009883a 	mov	r4,r2
   14550:	180b883a 	mov	r5,r3
   14554:	00178fc0 	call	178fc <__subdf3>
   14558:	a80d883a 	mov	r6,r21
   1455c:	a00f883a 	mov	r7,r20
   14560:	1009883a 	mov	r4,r2
   14564:	180b883a 	mov	r5,r3
   14568:	00171e40 	call	171e4 <__muldf3>
   1456c:	880d883a 	mov	r6,r17
   14570:	800f883a 	mov	r7,r16
   14574:	1009883a 	mov	r4,r2
   14578:	180b883a 	mov	r5,r3
   1457c:	0015eec0 	call	15eec <__adddf3>
   14580:	003fdd06 	br	144f8 <_gp+0xffff0498>
   14584:	8805883a 	mov	r2,r17
   14588:	8007883a 	mov	r3,r16
   1458c:	003fda06 	br	144f8 <_gp+0xffff0498>

00014590 <fabs>:
   14590:	00e00034 	movhi	r3,32768
   14594:	18ffffc4 	addi	r3,r3,-1
   14598:	2005883a 	mov	r2,r4
   1459c:	28c6703a 	and	r3,r5,r3
   145a0:	f800283a 	ret

000145a4 <floor>:
   145a4:	2811d53a 	srai	r8,r5,20
   145a8:	defffa04 	addi	sp,sp,-24
   145ac:	dcc00315 	stw	r19,12(sp)
   145b0:	4201ffcc 	andi	r8,r8,2047
   145b4:	dc800215 	stw	r18,8(sp)
   145b8:	dc400115 	stw	r17,4(sp)
   145bc:	dc000015 	stw	r16,0(sp)
   145c0:	dfc00515 	stw	ra,20(sp)
   145c4:	dd000415 	stw	r20,16(sp)
   145c8:	44bf0044 	addi	r18,r8,-1023
   145cc:	018004c4 	movi	r6,19
   145d0:	2821883a 	mov	r16,r5
   145d4:	2005883a 	mov	r2,r4
   145d8:	280f883a 	mov	r7,r5
   145dc:	2827883a 	mov	r19,r5
   145e0:	2023883a 	mov	r17,r4
   145e4:	34801916 	blt	r6,r18,1464c <floor+0xa8>
   145e8:	90003c16 	blt	r18,zero,146dc <floor+0x138>
   145ec:	05000434 	movhi	r20,16
   145f0:	a53fffc4 	addi	r20,r20,-1
   145f4:	a4a9d83a 	sra	r20,r20,r18
   145f8:	2d0c703a 	and	r6,r5,r20
   145fc:	310cb03a 	or	r6,r6,r4
   14600:	30001626 	beq	r6,zero,1465c <floor+0xb8>
   14604:	01a20034 	movhi	r6,34816
   14608:	01df8e34 	movhi	r7,32312
   1460c:	319d6704 	addi	r6,r6,30108
   14610:	39f90f04 	addi	r7,r7,-7108
   14614:	0015eec0 	call	15eec <__adddf3>
   14618:	000d883a 	mov	r6,zero
   1461c:	000f883a 	mov	r7,zero
   14620:	1009883a 	mov	r4,r2
   14624:	180b883a 	mov	r5,r3
   14628:	00171080 	call	17108 <__gedf2>
   1462c:	0080040e 	bge	zero,r2,14640 <floor+0x9c>
   14630:	80003c16 	blt	r16,zero,14724 <floor+0x180>
   14634:	0520303a 	nor	r16,zero,r20
   14638:	84e0703a 	and	r16,r16,r19
   1463c:	0023883a 	mov	r17,zero
   14640:	8805883a 	mov	r2,r17
   14644:	8007883a 	mov	r3,r16
   14648:	00000506 	br	14660 <floor+0xbc>
   1464c:	01800cc4 	movi	r6,51
   14650:	34800b0e 	bge	r6,r18,14680 <floor+0xdc>
   14654:	01810004 	movi	r6,1024
   14658:	91802f26 	beq	r18,r6,14718 <floor+0x174>
   1465c:	3807883a 	mov	r3,r7
   14660:	dfc00517 	ldw	ra,20(sp)
   14664:	dd000417 	ldw	r20,16(sp)
   14668:	dcc00317 	ldw	r19,12(sp)
   1466c:	dc800217 	ldw	r18,8(sp)
   14670:	dc400117 	ldw	r17,4(sp)
   14674:	dc000017 	ldw	r16,0(sp)
   14678:	dec00604 	addi	sp,sp,24
   1467c:	f800283a 	ret
   14680:	423efb44 	addi	r8,r8,-1043
   14684:	053fffc4 	movi	r20,-1
   14688:	a228d83a 	srl	r20,r20,r8
   1468c:	250c703a 	and	r6,r4,r20
   14690:	303ff226 	beq	r6,zero,1465c <_gp+0xffff05fc>
   14694:	01a20034 	movhi	r6,34816
   14698:	01df8e34 	movhi	r7,32312
   1469c:	319d6704 	addi	r6,r6,30108
   146a0:	39f90f04 	addi	r7,r7,-7108
   146a4:	0015eec0 	call	15eec <__adddf3>
   146a8:	000d883a 	mov	r6,zero
   146ac:	000f883a 	mov	r7,zero
   146b0:	1009883a 	mov	r4,r2
   146b4:	180b883a 	mov	r5,r3
   146b8:	00171080 	call	17108 <__gedf2>
   146bc:	00bfe00e 	bge	zero,r2,14640 <_gp+0xffff05e0>
   146c0:	80001c16 	blt	r16,zero,14734 <floor+0x190>
   146c4:	0510303a 	nor	r8,zero,r20
   146c8:	9821883a 	mov	r16,r19
   146cc:	8a22703a 	and	r17,r17,r8
   146d0:	8805883a 	mov	r2,r17
   146d4:	8007883a 	mov	r3,r16
   146d8:	003fe106 	br	14660 <_gp+0xffff0600>
   146dc:	01a20034 	movhi	r6,34816
   146e0:	01df8e34 	movhi	r7,32312
   146e4:	319d6704 	addi	r6,r6,30108
   146e8:	39f90f04 	addi	r7,r7,-7108
   146ec:	0015eec0 	call	15eec <__adddf3>
   146f0:	000d883a 	mov	r6,zero
   146f4:	000f883a 	mov	r7,zero
   146f8:	1009883a 	mov	r4,r2
   146fc:	180b883a 	mov	r5,r3
   14700:	00171080 	call	17108 <__gedf2>
   14704:	00bfce0e 	bge	zero,r2,14640 <_gp+0xffff05e0>
   14708:	80001516 	blt	r16,zero,14760 <floor+0x1bc>
   1470c:	0023883a 	mov	r17,zero
   14710:	0021883a 	mov	r16,zero
   14714:	003fca06 	br	14640 <_gp+0xffff05e0>
   14718:	200d883a 	mov	r6,r4
   1471c:	0015eec0 	call	15eec <__adddf3>
   14720:	003fcf06 	br	14660 <_gp+0xffff0600>
   14724:	00800434 	movhi	r2,16
   14728:	14a5d83a 	sra	r18,r2,r18
   1472c:	84a7883a 	add	r19,r16,r18
   14730:	003fc006 	br	14634 <_gp+0xffff05d4>
   14734:	00800504 	movi	r2,20
   14738:	90801326 	beq	r18,r2,14788 <floor+0x1e4>
   1473c:	00800d04 	movi	r2,52
   14740:	14a5c83a 	sub	r18,r2,r18
   14744:	00800044 	movi	r2,1
   14748:	1484983a 	sll	r2,r2,r18
   1474c:	1445883a 	add	r2,r2,r17
   14750:	14400b2e 	bgeu	r2,r17,14780 <floor+0x1dc>
   14754:	84c00044 	addi	r19,r16,1
   14758:	1023883a 	mov	r17,r2
   1475c:	003fd906 	br	146c4 <_gp+0xffff0664>
   14760:	00a00034 	movhi	r2,32768
   14764:	10bfffc4 	addi	r2,r2,-1
   14768:	8084703a 	and	r2,r16,r2
   1476c:	1462b03a 	or	r17,r2,r17
   14770:	883fb326 	beq	r17,zero,14640 <_gp+0xffff05e0>
   14774:	0023883a 	mov	r17,zero
   14778:	042ffc34 	movhi	r16,49136
   1477c:	003fb006 	br	14640 <_gp+0xffff05e0>
   14780:	1023883a 	mov	r17,r2
   14784:	003fcf06 	br	146c4 <_gp+0xffff0664>
   14788:	84c00044 	addi	r19,r16,1
   1478c:	003fcd06 	br	146c4 <_gp+0xffff0664>

00014790 <scalbn>:
   14790:	2a1ffc2c 	andhi	r8,r5,32752
   14794:	4011d53a 	srai	r8,r8,20
   14798:	defffe04 	addi	sp,sp,-8
   1479c:	dc000015 	stw	r16,0(sp)
   147a0:	dfc00115 	stw	ra,4(sp)
   147a4:	280f883a 	mov	r7,r5
   147a8:	2015883a 	mov	r10,r4
   147ac:	3021883a 	mov	r16,r6
   147b0:	40001e1e 	bne	r8,zero,1482c <scalbn+0x9c>
   147b4:	00a00034 	movhi	r2,32768
   147b8:	10bfffc4 	addi	r2,r2,-1
   147bc:	2884703a 	and	r2,r5,r2
   147c0:	1104b03a 	or	r2,r2,r4
   147c4:	10002226 	beq	r2,zero,14850 <scalbn+0xc0>
   147c8:	01d0d434 	movhi	r7,17232
   147cc:	000d883a 	mov	r6,zero
   147d0:	00171e40 	call	171e4 <__muldf3>
   147d4:	013ffff4 	movhi	r4,65535
   147d8:	210f2c04 	addi	r4,r4,15536
   147dc:	1015883a 	mov	r10,r2
   147e0:	180f883a 	mov	r7,r3
   147e4:	81002a16 	blt	r16,r4,14890 <scalbn+0x100>
   147e8:	191ffc2c 	andhi	r4,r3,32752
   147ec:	2009d53a 	srai	r4,r4,20
   147f0:	223ff284 	addi	r8,r4,-54
   147f4:	8211883a 	add	r8,r16,r8
   147f8:	0081ff84 	movi	r2,2046
   147fc:	12002f16 	blt	r2,r8,148bc <scalbn+0x12c>
   14800:	0200190e 	bge	zero,r8,14868 <scalbn+0xd8>
   14804:	4010953a 	slli	r8,r8,20
   14808:	01600434 	movhi	r5,32784
   1480c:	297fffc4 	addi	r5,r5,-1
   14810:	194e703a 	and	r7,r3,r5
   14814:	5005883a 	mov	r2,r10
   14818:	3a06b03a 	or	r3,r7,r8
   1481c:	dfc00117 	ldw	ra,4(sp)
   14820:	dc000017 	ldw	r16,0(sp)
   14824:	dec00204 	addi	sp,sp,8
   14828:	f800283a 	ret
   1482c:	0081ffc4 	movi	r2,2047
   14830:	2807883a 	mov	r3,r5
   14834:	40bfef1e 	bne	r8,r2,147f4 <_gp+0xffff0794>
   14838:	200d883a 	mov	r6,r4
   1483c:	0015eec0 	call	15eec <__adddf3>
   14840:	dfc00117 	ldw	ra,4(sp)
   14844:	dc000017 	ldw	r16,0(sp)
   14848:	dec00204 	addi	sp,sp,8
   1484c:	f800283a 	ret
   14850:	2005883a 	mov	r2,r4
   14854:	2807883a 	mov	r3,r5
   14858:	dfc00117 	ldw	ra,4(sp)
   1485c:	dc000017 	ldw	r16,0(sp)
   14860:	dec00204 	addi	sp,sp,8
   14864:	f800283a 	ret
   14868:	00bff2c4 	movi	r2,-53
   1486c:	4080240e 	bge	r8,r2,14900 <scalbn+0x170>
   14870:	00b0d414 	movui	r2,50000
   14874:	14001116 	blt	r2,r16,148bc <scalbn+0x12c>
   14878:	0130be74 	movhi	r4,49913
   1487c:	01406974 	movhi	r5,421
   14880:	213cd644 	addi	r4,r4,-3239
   14884:	295b87c4 	addi	r5,r5,28191
   14888:	500d883a 	mov	r6,r10
   1488c:	001492c0 	call	1492c <copysign>
   14890:	01b0be74 	movhi	r6,49913
   14894:	01c06974 	movhi	r7,421
   14898:	31bcd644 	addi	r6,r6,-3239
   1489c:	39db87c4 	addi	r7,r7,28191
   148a0:	1009883a 	mov	r4,r2
   148a4:	180b883a 	mov	r5,r3
   148a8:	00171e40 	call	171e4 <__muldf3>
   148ac:	dfc00117 	ldw	ra,4(sp)
   148b0:	dc000017 	ldw	r16,0(sp)
   148b4:	dec00204 	addi	sp,sp,8
   148b8:	f800283a 	ret
   148bc:	01220034 	movhi	r4,34816
   148c0:	015f8e34 	movhi	r5,32312
   148c4:	500d883a 	mov	r6,r10
   148c8:	211d6704 	addi	r4,r4,30108
   148cc:	29790f04 	addi	r5,r5,-7108
   148d0:	001492c0 	call	1492c <copysign>
   148d4:	01a20034 	movhi	r6,34816
   148d8:	01df8e34 	movhi	r7,32312
   148dc:	319d6704 	addi	r6,r6,30108
   148e0:	39f90f04 	addi	r7,r7,-7108
   148e4:	1009883a 	mov	r4,r2
   148e8:	180b883a 	mov	r5,r3
   148ec:	00171e40 	call	171e4 <__muldf3>
   148f0:	dfc00117 	ldw	ra,4(sp)
   148f4:	dc000017 	ldw	r16,0(sp)
   148f8:	dec00204 	addi	sp,sp,8
   148fc:	f800283a 	ret
   14900:	42000d84 	addi	r8,r8,54
   14904:	4012953a 	slli	r9,r8,20
   14908:	01e00434 	movhi	r7,32784
   1490c:	39ffffc4 	addi	r7,r7,-1
   14910:	19ca703a 	and	r5,r3,r7
   14914:	000d883a 	mov	r6,zero
   14918:	01cf2434 	movhi	r7,15504
   1491c:	5009883a 	mov	r4,r10
   14920:	494ab03a 	or	r5,r9,r5
   14924:	00171e40 	call	171e4 <__muldf3>
   14928:	003fbc06 	br	1481c <_gp+0xffff07bc>

0001492c <copysign>:
   1492c:	2005883a 	mov	r2,r4
   14930:	01200034 	movhi	r4,32768
   14934:	213fffc4 	addi	r4,r4,-1
   14938:	38e0002c 	andhi	r3,r7,32768
   1493c:	290a703a 	and	r5,r5,r4
   14940:	28c6b03a 	or	r3,r5,r3
   14944:	f800283a 	ret

00014948 <__fixunsdfsi>:
   14948:	defffd04 	addi	sp,sp,-12
   1494c:	000d883a 	mov	r6,zero
   14950:	01d07834 	movhi	r7,16864
   14954:	dc400115 	stw	r17,4(sp)
   14958:	dc000015 	stw	r16,0(sp)
   1495c:	dfc00215 	stw	ra,8(sp)
   14960:	2023883a 	mov	r17,r4
   14964:	2821883a 	mov	r16,r5
   14968:	00171080 	call	17108 <__gedf2>
   1496c:	1000080e 	bge	r2,zero,14990 <__fixunsdfsi+0x48>
   14970:	8809883a 	mov	r4,r17
   14974:	800b883a 	mov	r5,r16
   14978:	00181f80 	call	181f8 <__fixdfsi>
   1497c:	dfc00217 	ldw	ra,8(sp)
   14980:	dc400117 	ldw	r17,4(sp)
   14984:	dc000017 	ldw	r16,0(sp)
   14988:	dec00304 	addi	sp,sp,12
   1498c:	f800283a 	ret
   14990:	000d883a 	mov	r6,zero
   14994:	01d07834 	movhi	r7,16864
   14998:	8809883a 	mov	r4,r17
   1499c:	800b883a 	mov	r5,r16
   149a0:	00178fc0 	call	178fc <__subdf3>
   149a4:	180b883a 	mov	r5,r3
   149a8:	1009883a 	mov	r4,r2
   149ac:	00181f80 	call	181f8 <__fixdfsi>
   149b0:	00e00034 	movhi	r3,32768
   149b4:	10c5883a 	add	r2,r2,r3
   149b8:	003ff006 	br	1497c <_gp+0xffff091c>

000149bc <__divsi3>:
   149bc:	20001b16 	blt	r4,zero,14a2c <__divsi3+0x70>
   149c0:	000f883a 	mov	r7,zero
   149c4:	28001616 	blt	r5,zero,14a20 <__divsi3+0x64>
   149c8:	200d883a 	mov	r6,r4
   149cc:	29001a2e 	bgeu	r5,r4,14a38 <__divsi3+0x7c>
   149d0:	00800804 	movi	r2,32
   149d4:	00c00044 	movi	r3,1
   149d8:	00000106 	br	149e0 <__divsi3+0x24>
   149dc:	10000d26 	beq	r2,zero,14a14 <__divsi3+0x58>
   149e0:	294b883a 	add	r5,r5,r5
   149e4:	10bfffc4 	addi	r2,r2,-1
   149e8:	18c7883a 	add	r3,r3,r3
   149ec:	293ffb36 	bltu	r5,r4,149dc <_gp+0xffff097c>
   149f0:	0005883a 	mov	r2,zero
   149f4:	18000726 	beq	r3,zero,14a14 <__divsi3+0x58>
   149f8:	0005883a 	mov	r2,zero
   149fc:	31400236 	bltu	r6,r5,14a08 <__divsi3+0x4c>
   14a00:	314dc83a 	sub	r6,r6,r5
   14a04:	10c4b03a 	or	r2,r2,r3
   14a08:	1806d07a 	srli	r3,r3,1
   14a0c:	280ad07a 	srli	r5,r5,1
   14a10:	183ffa1e 	bne	r3,zero,149fc <_gp+0xffff099c>
   14a14:	38000126 	beq	r7,zero,14a1c <__divsi3+0x60>
   14a18:	0085c83a 	sub	r2,zero,r2
   14a1c:	f800283a 	ret
   14a20:	014bc83a 	sub	r5,zero,r5
   14a24:	39c0005c 	xori	r7,r7,1
   14a28:	003fe706 	br	149c8 <_gp+0xffff0968>
   14a2c:	0109c83a 	sub	r4,zero,r4
   14a30:	01c00044 	movi	r7,1
   14a34:	003fe306 	br	149c4 <_gp+0xffff0964>
   14a38:	00c00044 	movi	r3,1
   14a3c:	003fee06 	br	149f8 <_gp+0xffff0998>

00014a40 <__modsi3>:
   14a40:	20001716 	blt	r4,zero,14aa0 <__modsi3+0x60>
   14a44:	000f883a 	mov	r7,zero
   14a48:	2005883a 	mov	r2,r4
   14a4c:	28001216 	blt	r5,zero,14a98 <__modsi3+0x58>
   14a50:	2900162e 	bgeu	r5,r4,14aac <__modsi3+0x6c>
   14a54:	01800804 	movi	r6,32
   14a58:	00c00044 	movi	r3,1
   14a5c:	00000106 	br	14a64 <__modsi3+0x24>
   14a60:	30000a26 	beq	r6,zero,14a8c <__modsi3+0x4c>
   14a64:	294b883a 	add	r5,r5,r5
   14a68:	31bfffc4 	addi	r6,r6,-1
   14a6c:	18c7883a 	add	r3,r3,r3
   14a70:	293ffb36 	bltu	r5,r4,14a60 <_gp+0xffff0a00>
   14a74:	18000526 	beq	r3,zero,14a8c <__modsi3+0x4c>
   14a78:	1806d07a 	srli	r3,r3,1
   14a7c:	11400136 	bltu	r2,r5,14a84 <__modsi3+0x44>
   14a80:	1145c83a 	sub	r2,r2,r5
   14a84:	280ad07a 	srli	r5,r5,1
   14a88:	183ffb1e 	bne	r3,zero,14a78 <_gp+0xffff0a18>
   14a8c:	38000126 	beq	r7,zero,14a94 <__modsi3+0x54>
   14a90:	0085c83a 	sub	r2,zero,r2
   14a94:	f800283a 	ret
   14a98:	014bc83a 	sub	r5,zero,r5
   14a9c:	003fec06 	br	14a50 <_gp+0xffff09f0>
   14aa0:	0109c83a 	sub	r4,zero,r4
   14aa4:	01c00044 	movi	r7,1
   14aa8:	003fe706 	br	14a48 <_gp+0xffff09e8>
   14aac:	00c00044 	movi	r3,1
   14ab0:	003ff106 	br	14a78 <_gp+0xffff0a18>

00014ab4 <__udivsi3>:
   14ab4:	200d883a 	mov	r6,r4
   14ab8:	2900152e 	bgeu	r5,r4,14b10 <__udivsi3+0x5c>
   14abc:	28001416 	blt	r5,zero,14b10 <__udivsi3+0x5c>
   14ac0:	00800804 	movi	r2,32
   14ac4:	00c00044 	movi	r3,1
   14ac8:	00000206 	br	14ad4 <__udivsi3+0x20>
   14acc:	10000e26 	beq	r2,zero,14b08 <__udivsi3+0x54>
   14ad0:	28000516 	blt	r5,zero,14ae8 <__udivsi3+0x34>
   14ad4:	294b883a 	add	r5,r5,r5
   14ad8:	10bfffc4 	addi	r2,r2,-1
   14adc:	18c7883a 	add	r3,r3,r3
   14ae0:	293ffa36 	bltu	r5,r4,14acc <_gp+0xffff0a6c>
   14ae4:	18000826 	beq	r3,zero,14b08 <__udivsi3+0x54>
   14ae8:	0005883a 	mov	r2,zero
   14aec:	31400236 	bltu	r6,r5,14af8 <__udivsi3+0x44>
   14af0:	314dc83a 	sub	r6,r6,r5
   14af4:	10c4b03a 	or	r2,r2,r3
   14af8:	1806d07a 	srli	r3,r3,1
   14afc:	280ad07a 	srli	r5,r5,1
   14b00:	183ffa1e 	bne	r3,zero,14aec <_gp+0xffff0a8c>
   14b04:	f800283a 	ret
   14b08:	0005883a 	mov	r2,zero
   14b0c:	f800283a 	ret
   14b10:	00c00044 	movi	r3,1
   14b14:	003ff406 	br	14ae8 <_gp+0xffff0a88>

00014b18 <__umodsi3>:
   14b18:	2005883a 	mov	r2,r4
   14b1c:	2900122e 	bgeu	r5,r4,14b68 <__umodsi3+0x50>
   14b20:	28001116 	blt	r5,zero,14b68 <__umodsi3+0x50>
   14b24:	01800804 	movi	r6,32
   14b28:	00c00044 	movi	r3,1
   14b2c:	00000206 	br	14b38 <__umodsi3+0x20>
   14b30:	30000c26 	beq	r6,zero,14b64 <__umodsi3+0x4c>
   14b34:	28000516 	blt	r5,zero,14b4c <__umodsi3+0x34>
   14b38:	294b883a 	add	r5,r5,r5
   14b3c:	31bfffc4 	addi	r6,r6,-1
   14b40:	18c7883a 	add	r3,r3,r3
   14b44:	293ffa36 	bltu	r5,r4,14b30 <_gp+0xffff0ad0>
   14b48:	18000626 	beq	r3,zero,14b64 <__umodsi3+0x4c>
   14b4c:	1806d07a 	srli	r3,r3,1
   14b50:	11400136 	bltu	r2,r5,14b58 <__umodsi3+0x40>
   14b54:	1145c83a 	sub	r2,r2,r5
   14b58:	280ad07a 	srli	r5,r5,1
   14b5c:	183ffb1e 	bne	r3,zero,14b4c <_gp+0xffff0aec>
   14b60:	f800283a 	ret
   14b64:	f800283a 	ret
   14b68:	00c00044 	movi	r3,1
   14b6c:	003ff706 	br	14b4c <_gp+0xffff0aec>

00014b70 <__addsf3>:
   14b70:	defffc04 	addi	sp,sp,-16
   14b74:	2004d7fa 	srli	r2,r4,31
   14b78:	280cd5fa 	srli	r6,r5,23
   14b7c:	dc000015 	stw	r16,0(sp)
   14b80:	00c02034 	movhi	r3,128
   14b84:	2020d5fa 	srli	r16,r4,23
   14b88:	280ed7fa 	srli	r7,r5,31
   14b8c:	18ffffc4 	addi	r3,r3,-1
   14b90:	dc400115 	stw	r17,4(sp)
   14b94:	1908703a 	and	r4,r3,r4
   14b98:	194a703a 	and	r5,r3,r5
   14b9c:	dfc00315 	stw	ra,12(sp)
   14ba0:	dc800215 	stw	r18,8(sp)
   14ba4:	14403fcc 	andi	r17,r2,255
   14ba8:	84003fcc 	andi	r16,r16,255
   14bac:	200890fa 	slli	r4,r4,3
   14bb0:	31803fcc 	andi	r6,r6,255
   14bb4:	280a90fa 	slli	r5,r5,3
   14bb8:	89c05026 	beq	r17,r7,14cfc <__addsf3+0x18c>
   14bbc:	8185c83a 	sub	r2,r16,r6
   14bc0:	00807a0e 	bge	zero,r2,14dac <__addsf3+0x23c>
   14bc4:	30001e1e 	bne	r6,zero,14c40 <__addsf3+0xd0>
   14bc8:	28006d1e 	bne	r5,zero,14d80 <__addsf3+0x210>
   14bcc:	208001cc 	andi	r2,r4,7
   14bd0:	10000426 	beq	r2,zero,14be4 <__addsf3+0x74>
   14bd4:	208003cc 	andi	r2,r4,15
   14bd8:	00c00104 	movi	r3,4
   14bdc:	10c00126 	beq	r2,r3,14be4 <__addsf3+0x74>
   14be0:	20c9883a 	add	r4,r4,r3
   14be4:	2081002c 	andhi	r2,r4,1024
   14be8:	10003926 	beq	r2,zero,14cd0 <__addsf3+0x160>
   14bec:	84000044 	addi	r16,r16,1
   14bf0:	00803fc4 	movi	r2,255
   14bf4:	80807826 	beq	r16,r2,14dd8 <__addsf3+0x268>
   14bf8:	200891ba 	slli	r4,r4,6
   14bfc:	8805883a 	mov	r2,r17
   14c00:	2008d27a 	srli	r4,r4,9
   14c04:	84003fcc 	andi	r16,r16,255
   14c08:	800695fa 	slli	r3,r16,23
   14c0c:	10803fcc 	andi	r2,r2,255
   14c10:	04002034 	movhi	r16,128
   14c14:	843fffc4 	addi	r16,r16,-1
   14c18:	100497fa 	slli	r2,r2,31
   14c1c:	2408703a 	and	r4,r4,r16
   14c20:	20e0b03a 	or	r16,r4,r3
   14c24:	8084b03a 	or	r2,r16,r2
   14c28:	dfc00317 	ldw	ra,12(sp)
   14c2c:	dc800217 	ldw	r18,8(sp)
   14c30:	dc400117 	ldw	r17,4(sp)
   14c34:	dc000017 	ldw	r16,0(sp)
   14c38:	dec00404 	addi	sp,sp,16
   14c3c:	f800283a 	ret
   14c40:	00c03fc4 	movi	r3,255
   14c44:	80ffe126 	beq	r16,r3,14bcc <_gp+0xffff0b6c>
   14c48:	29410034 	orhi	r5,r5,1024
   14c4c:	00c006c4 	movi	r3,27
   14c50:	18807516 	blt	r3,r2,14e28 <__addsf3+0x2b8>
   14c54:	00c00804 	movi	r3,32
   14c58:	1887c83a 	sub	r3,r3,r2
   14c5c:	28c6983a 	sll	r3,r5,r3
   14c60:	288ad83a 	srl	r5,r5,r2
   14c64:	1804c03a 	cmpne	r2,r3,zero
   14c68:	288ab03a 	or	r5,r5,r2
   14c6c:	2149c83a 	sub	r4,r4,r5
   14c70:	2081002c 	andhi	r2,r4,1024
   14c74:	10001426 	beq	r2,zero,14cc8 <__addsf3+0x158>
   14c78:	04810034 	movhi	r18,1024
   14c7c:	94bfffc4 	addi	r18,r18,-1
   14c80:	24a4703a 	and	r18,r4,r18
   14c84:	9009883a 	mov	r4,r18
   14c88:	00186b40 	call	186b4 <__clzsi2>
   14c8c:	10bffec4 	addi	r2,r2,-5
   14c90:	90a4983a 	sll	r18,r18,r2
   14c94:	14005416 	blt	r2,r16,14de8 <__addsf3+0x278>
   14c98:	1405c83a 	sub	r2,r2,r16
   14c9c:	11000044 	addi	r4,r2,1
   14ca0:	00800804 	movi	r2,32
   14ca4:	1105c83a 	sub	r2,r2,r4
   14ca8:	9084983a 	sll	r2,r18,r2
   14cac:	9124d83a 	srl	r18,r18,r4
   14cb0:	0021883a 	mov	r16,zero
   14cb4:	1008c03a 	cmpne	r4,r2,zero
   14cb8:	9108b03a 	or	r4,r18,r4
   14cbc:	003fc306 	br	14bcc <_gp+0xffff0b6c>
   14cc0:	1000db26 	beq	r2,zero,15030 <__addsf3+0x4c0>
   14cc4:	1009883a 	mov	r4,r2
   14cc8:	208001cc 	andi	r2,r4,7
   14ccc:	103fc11e 	bne	r2,zero,14bd4 <_gp+0xffff0b74>
   14cd0:	2006d0fa 	srli	r3,r4,3
   14cd4:	01003fc4 	movi	r4,255
   14cd8:	8805883a 	mov	r2,r17
   14cdc:	8100241e 	bne	r16,r4,14d70 <__addsf3+0x200>
   14ce0:	18006e26 	beq	r3,zero,14e9c <__addsf3+0x32c>
   14ce4:	19001034 	orhi	r4,r3,64
   14ce8:	00c02034 	movhi	r3,128
   14cec:	18ffffc4 	addi	r3,r3,-1
   14cf0:	043fffc4 	movi	r16,-1
   14cf4:	20c8703a 	and	r4,r4,r3
   14cf8:	003fc206 	br	14c04 <_gp+0xffff0ba4>
   14cfc:	8187c83a 	sub	r3,r16,r6
   14d00:	00c03e0e 	bge	zero,r3,14dfc <__addsf3+0x28c>
   14d04:	30002326 	beq	r6,zero,14d94 <__addsf3+0x224>
   14d08:	01803fc4 	movi	r6,255
   14d0c:	81bfaf26 	beq	r16,r6,14bcc <_gp+0xffff0b6c>
   14d10:	29410034 	orhi	r5,r5,1024
   14d14:	018006c4 	movi	r6,27
   14d18:	30c07416 	blt	r6,r3,14eec <__addsf3+0x37c>
   14d1c:	01800804 	movi	r6,32
   14d20:	30cdc83a 	sub	r6,r6,r3
   14d24:	298c983a 	sll	r6,r5,r6
   14d28:	28cad83a 	srl	r5,r5,r3
   14d2c:	3006c03a 	cmpne	r3,r6,zero
   14d30:	28cab03a 	or	r5,r5,r3
   14d34:	2149883a 	add	r4,r4,r5
   14d38:	20c1002c 	andhi	r3,r4,1024
   14d3c:	183fe226 	beq	r3,zero,14cc8 <_gp+0xffff0c68>
   14d40:	84000044 	addi	r16,r16,1
   14d44:	00c03fc4 	movi	r3,255
   14d48:	80c05426 	beq	r16,r3,14e9c <__addsf3+0x32c>
   14d4c:	00bf0034 	movhi	r2,64512
   14d50:	10bfffc4 	addi	r2,r2,-1
   14d54:	20c0004c 	andi	r3,r4,1
   14d58:	2088703a 	and	r4,r4,r2
   14d5c:	2008d07a 	srli	r4,r4,1
   14d60:	20c8b03a 	or	r4,r4,r3
   14d64:	003f9906 	br	14bcc <_gp+0xffff0b6c>
   14d68:	0007883a 	mov	r3,zero
   14d6c:	0005883a 	mov	r2,zero
   14d70:	01002034 	movhi	r4,128
   14d74:	213fffc4 	addi	r4,r4,-1
   14d78:	1908703a 	and	r4,r3,r4
   14d7c:	003fa106 	br	14c04 <_gp+0xffff0ba4>
   14d80:	10bfffc4 	addi	r2,r2,-1
   14d84:	103fb926 	beq	r2,zero,14c6c <_gp+0xffff0c0c>
   14d88:	00c03fc4 	movi	r3,255
   14d8c:	80ffaf1e 	bne	r16,r3,14c4c <_gp+0xffff0bec>
   14d90:	003f8e06 	br	14bcc <_gp+0xffff0b6c>
   14d94:	283f8d26 	beq	r5,zero,14bcc <_gp+0xffff0b6c>
   14d98:	18ffffc4 	addi	r3,r3,-1
   14d9c:	183fe526 	beq	r3,zero,14d34 <_gp+0xffff0cd4>
   14da0:	01803fc4 	movi	r6,255
   14da4:	81bfdb1e 	bne	r16,r6,14d14 <_gp+0xffff0cb4>
   14da8:	003f8806 	br	14bcc <_gp+0xffff0b6c>
   14dac:	1000201e 	bne	r2,zero,14e30 <__addsf3+0x2c0>
   14db0:	80800044 	addi	r2,r16,1
   14db4:	10803fcc 	andi	r2,r2,255
   14db8:	01800044 	movi	r6,1
   14dbc:	3080450e 	bge	r6,r2,14ed4 <__addsf3+0x364>
   14dc0:	2165c83a 	sub	r18,r4,r5
   14dc4:	90c1002c 	andhi	r3,r18,1024
   14dc8:	18002b26 	beq	r3,zero,14e78 <__addsf3+0x308>
   14dcc:	2925c83a 	sub	r18,r5,r4
   14dd0:	3823883a 	mov	r17,r7
   14dd4:	003fab06 	br	14c84 <_gp+0xffff0c24>
   14dd8:	8805883a 	mov	r2,r17
   14ddc:	043fffc4 	movi	r16,-1
   14de0:	0009883a 	mov	r4,zero
   14de4:	003f8706 	br	14c04 <_gp+0xffff0ba4>
   14de8:	013f0034 	movhi	r4,64512
   14dec:	213fffc4 	addi	r4,r4,-1
   14df0:	80a1c83a 	sub	r16,r16,r2
   14df4:	9108703a 	and	r4,r18,r4
   14df8:	003f7406 	br	14bcc <_gp+0xffff0b6c>
   14dfc:	1800411e 	bne	r3,zero,14f04 <__addsf3+0x394>
   14e00:	80c00044 	addi	r3,r16,1
   14e04:	19c03fcc 	andi	r7,r3,255
   14e08:	01800044 	movi	r6,1
   14e0c:	31c0260e 	bge	r6,r7,14ea8 <__addsf3+0x338>
   14e10:	01803fc4 	movi	r6,255
   14e14:	19802126 	beq	r3,r6,14e9c <__addsf3+0x32c>
   14e18:	2149883a 	add	r4,r4,r5
   14e1c:	2008d07a 	srli	r4,r4,1
   14e20:	1821883a 	mov	r16,r3
   14e24:	003f6906 	br	14bcc <_gp+0xffff0b6c>
   14e28:	01400044 	movi	r5,1
   14e2c:	003f8f06 	br	14c6c <_gp+0xffff0c0c>
   14e30:	8000151e 	bne	r16,zero,14e88 <__addsf3+0x318>
   14e34:	20002f26 	beq	r4,zero,14ef4 <__addsf3+0x384>
   14e38:	0084303a 	nor	r2,zero,r2
   14e3c:	10000a26 	beq	r2,zero,14e68 <__addsf3+0x2f8>
   14e40:	00c03fc4 	movi	r3,255
   14e44:	30c02b26 	beq	r6,r3,14ef4 <__addsf3+0x384>
   14e48:	00c006c4 	movi	r3,27
   14e4c:	18806d16 	blt	r3,r2,15004 <__addsf3+0x494>
   14e50:	00c00804 	movi	r3,32
   14e54:	1887c83a 	sub	r3,r3,r2
   14e58:	20c6983a 	sll	r3,r4,r3
   14e5c:	2084d83a 	srl	r2,r4,r2
   14e60:	1808c03a 	cmpne	r4,r3,zero
   14e64:	1108b03a 	or	r4,r2,r4
   14e68:	2909c83a 	sub	r4,r5,r4
   14e6c:	3021883a 	mov	r16,r6
   14e70:	3823883a 	mov	r17,r7
   14e74:	003f7e06 	br	14c70 <_gp+0xffff0c10>
   14e78:	903f821e 	bne	r18,zero,14c84 <_gp+0xffff0c24>
   14e7c:	0005883a 	mov	r2,zero
   14e80:	0021883a 	mov	r16,zero
   14e84:	003fba06 	br	14d70 <_gp+0xffff0d10>
   14e88:	00c03fc4 	movi	r3,255
   14e8c:	30c01926 	beq	r6,r3,14ef4 <__addsf3+0x384>
   14e90:	0085c83a 	sub	r2,zero,r2
   14e94:	21010034 	orhi	r4,r4,1024
   14e98:	003feb06 	br	14e48 <_gp+0xffff0de8>
   14e9c:	043fffc4 	movi	r16,-1
   14ea0:	0009883a 	mov	r4,zero
   14ea4:	003f5706 	br	14c04 <_gp+0xffff0ba4>
   14ea8:	80004a1e 	bne	r16,zero,14fd4 <__addsf3+0x464>
   14eac:	20005926 	beq	r4,zero,15014 <__addsf3+0x4a4>
   14eb0:	283f4626 	beq	r5,zero,14bcc <_gp+0xffff0b6c>
   14eb4:	2149883a 	add	r4,r4,r5
   14eb8:	2081002c 	andhi	r2,r4,1024
   14ebc:	103f8226 	beq	r2,zero,14cc8 <_gp+0xffff0c68>
   14ec0:	00bf0034 	movhi	r2,64512
   14ec4:	10bfffc4 	addi	r2,r2,-1
   14ec8:	3021883a 	mov	r16,r6
   14ecc:	2088703a 	and	r4,r4,r2
   14ed0:	003f3e06 	br	14bcc <_gp+0xffff0b6c>
   14ed4:	8000121e 	bne	r16,zero,14f20 <__addsf3+0x3b0>
   14ed8:	2000261e 	bne	r4,zero,14f74 <__addsf3+0x404>
   14edc:	283fa226 	beq	r5,zero,14d68 <_gp+0xffff0d08>
   14ee0:	2809883a 	mov	r4,r5
   14ee4:	3823883a 	mov	r17,r7
   14ee8:	003f3806 	br	14bcc <_gp+0xffff0b6c>
   14eec:	01400044 	movi	r5,1
   14ef0:	003f9006 	br	14d34 <_gp+0xffff0cd4>
   14ef4:	2809883a 	mov	r4,r5
   14ef8:	3021883a 	mov	r16,r6
   14efc:	3823883a 	mov	r17,r7
   14f00:	003f3206 	br	14bcc <_gp+0xffff0b6c>
   14f04:	80000c1e 	bne	r16,zero,14f38 <__addsf3+0x3c8>
   14f08:	20002f26 	beq	r4,zero,14fc8 <__addsf3+0x458>
   14f0c:	00c6303a 	nor	r3,zero,r3
   14f10:	18002b1e 	bne	r3,zero,14fc0 <__addsf3+0x450>
   14f14:	2149883a 	add	r4,r4,r5
   14f18:	3021883a 	mov	r16,r6
   14f1c:	003f8606 	br	14d38 <_gp+0xffff0cd8>
   14f20:	20001b1e 	bne	r4,zero,14f90 <__addsf3+0x420>
   14f24:	28003926 	beq	r5,zero,1500c <__addsf3+0x49c>
   14f28:	2809883a 	mov	r4,r5
   14f2c:	3823883a 	mov	r17,r7
   14f30:	04003fc4 	movi	r16,255
   14f34:	003f2506 	br	14bcc <_gp+0xffff0b6c>
   14f38:	01c03fc4 	movi	r7,255
   14f3c:	31c02226 	beq	r6,r7,14fc8 <__addsf3+0x458>
   14f40:	00c7c83a 	sub	r3,zero,r3
   14f44:	21010034 	orhi	r4,r4,1024
   14f48:	01c006c4 	movi	r7,27
   14f4c:	38c03616 	blt	r7,r3,15028 <__addsf3+0x4b8>
   14f50:	01c00804 	movi	r7,32
   14f54:	38cfc83a 	sub	r7,r7,r3
   14f58:	21ce983a 	sll	r7,r4,r7
   14f5c:	20c6d83a 	srl	r3,r4,r3
   14f60:	3808c03a 	cmpne	r4,r7,zero
   14f64:	1906b03a 	or	r3,r3,r4
   14f68:	1949883a 	add	r4,r3,r5
   14f6c:	3021883a 	mov	r16,r6
   14f70:	003f7106 	br	14d38 <_gp+0xffff0cd8>
   14f74:	283f1526 	beq	r5,zero,14bcc <_gp+0xffff0b6c>
   14f78:	2145c83a 	sub	r2,r4,r5
   14f7c:	10c1002c 	andhi	r3,r2,1024
   14f80:	183f4f26 	beq	r3,zero,14cc0 <_gp+0xffff0c60>
   14f84:	2909c83a 	sub	r4,r5,r4
   14f88:	3823883a 	mov	r17,r7
   14f8c:	003f0f06 	br	14bcc <_gp+0xffff0b6c>
   14f90:	28001a26 	beq	r5,zero,14ffc <__addsf3+0x48c>
   14f94:	2008d0fa 	srli	r4,r4,3
   14f98:	2080102c 	andhi	r2,r4,64
   14f9c:	10000526 	beq	r2,zero,14fb4 <__addsf3+0x444>
   14fa0:	280ad0fa 	srli	r5,r5,3
   14fa4:	2880102c 	andhi	r2,r5,64
   14fa8:	1000021e 	bne	r2,zero,14fb4 <__addsf3+0x444>
   14fac:	2809883a 	mov	r4,r5
   14fb0:	3823883a 	mov	r17,r7
   14fb4:	200890fa 	slli	r4,r4,3
   14fb8:	04003fc4 	movi	r16,255
   14fbc:	003f0306 	br	14bcc <_gp+0xffff0b6c>
   14fc0:	01c03fc4 	movi	r7,255
   14fc4:	31ffe01e 	bne	r6,r7,14f48 <_gp+0xffff0ee8>
   14fc8:	2809883a 	mov	r4,r5
   14fcc:	3021883a 	mov	r16,r6
   14fd0:	003efe06 	br	14bcc <_gp+0xffff0b6c>
   14fd4:	20001126 	beq	r4,zero,1501c <__addsf3+0x4ac>
   14fd8:	28000826 	beq	r5,zero,14ffc <__addsf3+0x48c>
   14fdc:	2008d0fa 	srli	r4,r4,3
   14fe0:	2080102c 	andhi	r2,r4,64
   14fe4:	103ff326 	beq	r2,zero,14fb4 <_gp+0xffff0f54>
   14fe8:	280ad0fa 	srli	r5,r5,3
   14fec:	2880102c 	andhi	r2,r5,64
   14ff0:	103ff01e 	bne	r2,zero,14fb4 <_gp+0xffff0f54>
   14ff4:	2809883a 	mov	r4,r5
   14ff8:	003fee06 	br	14fb4 <_gp+0xffff0f54>
   14ffc:	04003fc4 	movi	r16,255
   15000:	003ef206 	br	14bcc <_gp+0xffff0b6c>
   15004:	01000044 	movi	r4,1
   15008:	003f9706 	br	14e68 <_gp+0xffff0e08>
   1500c:	0005883a 	mov	r2,zero
   15010:	003f3406 	br	14ce4 <_gp+0xffff0c84>
   15014:	2809883a 	mov	r4,r5
   15018:	003eec06 	br	14bcc <_gp+0xffff0b6c>
   1501c:	2809883a 	mov	r4,r5
   15020:	04003fc4 	movi	r16,255
   15024:	003ee906 	br	14bcc <_gp+0xffff0b6c>
   15028:	00c00044 	movi	r3,1
   1502c:	003fce06 	br	14f68 <_gp+0xffff0f08>
   15030:	0005883a 	mov	r2,zero
   15034:	003f4e06 	br	14d70 <_gp+0xffff0d10>

00015038 <__divsf3>:
   15038:	defff504 	addi	sp,sp,-44
   1503c:	200cd5fa 	srli	r6,r4,23
   15040:	dcc00415 	stw	r19,16(sp)
   15044:	2026d7fa 	srli	r19,r4,31
   15048:	00c02034 	movhi	r3,128
   1504c:	dd800715 	stw	r22,28(sp)
   15050:	dd000515 	stw	r20,20(sp)
   15054:	dc800315 	stw	r18,12(sp)
   15058:	18ffffc4 	addi	r3,r3,-1
   1505c:	dfc00a15 	stw	ra,40(sp)
   15060:	df000915 	stw	fp,36(sp)
   15064:	ddc00815 	stw	r23,32(sp)
   15068:	dd400615 	stw	r21,24(sp)
   1506c:	dc400215 	stw	r17,8(sp)
   15070:	dc000115 	stw	r16,4(sp)
   15074:	35003fcc 	andi	r20,r6,255
   15078:	1924703a 	and	r18,r3,r4
   1507c:	9d803fcc 	andi	r22,r19,255
   15080:	a0005226 	beq	r20,zero,151cc <__divsf3+0x194>
   15084:	00803fc4 	movi	r2,255
   15088:	a0802e26 	beq	r20,r2,15144 <__divsf3+0x10c>
   1508c:	91002034 	orhi	r4,r18,128
   15090:	202490fa 	slli	r18,r4,3
   15094:	a53fe044 	addi	r20,r20,-127
   15098:	0021883a 	mov	r16,zero
   1509c:	002f883a 	mov	r23,zero
   150a0:	280cd5fa 	srli	r6,r5,23
   150a4:	282ad7fa 	srli	r21,r5,31
   150a8:	00c02034 	movhi	r3,128
   150ac:	18ffffc4 	addi	r3,r3,-1
   150b0:	31803fcc 	andi	r6,r6,255
   150b4:	1962703a 	and	r17,r3,r5
   150b8:	af003fcc 	andi	fp,r21,255
   150bc:	30004a26 	beq	r6,zero,151e8 <__divsf3+0x1b0>
   150c0:	00803fc4 	movi	r2,255
   150c4:	30804526 	beq	r6,r2,151dc <__divsf3+0x1a4>
   150c8:	89402034 	orhi	r5,r17,128
   150cc:	282290fa 	slli	r17,r5,3
   150d0:	31bfe044 	addi	r6,r6,-127
   150d4:	000b883a 	mov	r5,zero
   150d8:	2c20b03a 	or	r16,r5,r16
   150dc:	802090ba 	slli	r16,r16,2
   150e0:	00800074 	movhi	r2,1
   150e4:	10944104 	addi	r2,r2,20740
   150e8:	80a1883a 	add	r16,r16,r2
   150ec:	81000017 	ldw	r4,0(r16)
   150f0:	9d46f03a 	xor	r3,r19,r21
   150f4:	180f883a 	mov	r7,r3
   150f8:	18803fcc 	andi	r2,r3,255
   150fc:	a18dc83a 	sub	r6,r20,r6
   15100:	2000683a 	jmp	r4
   15104:	000152e8 	cmpgeui	zero,zero,1355
   15108:	0001516c 	andhi	zero,zero,1349
   1510c:	000152dc 	xori	zero,zero,1355
   15110:	00015158 	cmpnei	zero,zero,1349
   15114:	000152dc 	xori	zero,zero,1355
   15118:	000152b4 	movhi	zero,1354
   1511c:	000152dc 	xori	zero,zero,1355
   15120:	00015158 	cmpnei	zero,zero,1349
   15124:	0001516c 	andhi	zero,zero,1349
   15128:	0001516c 	andhi	zero,zero,1349
   1512c:	000152b4 	movhi	zero,1354
   15130:	00015158 	cmpnei	zero,zero,1349
   15134:	000153c8 	cmpgei	zero,zero,1359
   15138:	000153c8 	cmpgei	zero,zero,1359
   1513c:	000153c8 	cmpgei	zero,zero,1359
   15140:	0001537c 	xorhi	zero,zero,1357
   15144:	9000581e 	bne	r18,zero,152a8 <__divsf3+0x270>
   15148:	04000204 	movi	r16,8
   1514c:	05c00084 	movi	r23,2
   15150:	003fd306 	br	150a0 <_gp+0xffff1040>
   15154:	0023883a 	mov	r17,zero
   15158:	e02d883a 	mov	r22,fp
   1515c:	282f883a 	mov	r23,r5
   15160:	00800084 	movi	r2,2
   15164:	b8808f1e 	bne	r23,r2,153a4 <__divsf3+0x36c>
   15168:	b005883a 	mov	r2,r22
   1516c:	11c0004c 	andi	r7,r2,1
   15170:	013fffc4 	movi	r4,-1
   15174:	000d883a 	mov	r6,zero
   15178:	21003fcc 	andi	r4,r4,255
   1517c:	200895fa 	slli	r4,r4,23
   15180:	38803fcc 	andi	r2,r7,255
   15184:	00c02034 	movhi	r3,128
   15188:	100497fa 	slli	r2,r2,31
   1518c:	18ffffc4 	addi	r3,r3,-1
   15190:	30c6703a 	and	r3,r6,r3
   15194:	1906b03a 	or	r3,r3,r4
   15198:	1884b03a 	or	r2,r3,r2
   1519c:	dfc00a17 	ldw	ra,40(sp)
   151a0:	df000917 	ldw	fp,36(sp)
   151a4:	ddc00817 	ldw	r23,32(sp)
   151a8:	dd800717 	ldw	r22,28(sp)
   151ac:	dd400617 	ldw	r21,24(sp)
   151b0:	dd000517 	ldw	r20,20(sp)
   151b4:	dcc00417 	ldw	r19,16(sp)
   151b8:	dc800317 	ldw	r18,12(sp)
   151bc:	dc400217 	ldw	r17,8(sp)
   151c0:	dc000117 	ldw	r16,4(sp)
   151c4:	dec00b04 	addi	sp,sp,44
   151c8:	f800283a 	ret
   151cc:	90002b1e 	bne	r18,zero,1527c <__divsf3+0x244>
   151d0:	04000104 	movi	r16,4
   151d4:	05c00044 	movi	r23,1
   151d8:	003fb106 	br	150a0 <_gp+0xffff1040>
   151dc:	8800251e 	bne	r17,zero,15274 <__divsf3+0x23c>
   151e0:	01400084 	movi	r5,2
   151e4:	00000206 	br	151f0 <__divsf3+0x1b8>
   151e8:	88001a1e 	bne	r17,zero,15254 <__divsf3+0x21c>
   151ec:	01400044 	movi	r5,1
   151f0:	8160b03a 	or	r16,r16,r5
   151f4:	802090ba 	slli	r16,r16,2
   151f8:	00c00074 	movhi	r3,1
   151fc:	18d48504 	addi	r3,r3,21012
   15200:	80e1883a 	add	r16,r16,r3
   15204:	80c00017 	ldw	r3,0(r16)
   15208:	9d44f03a 	xor	r2,r19,r21
   1520c:	a18dc83a 	sub	r6,r20,r6
   15210:	1800683a 	jmp	r3
   15214:	0001516c 	andhi	zero,zero,1349
   15218:	0001516c 	andhi	zero,zero,1349
   1521c:	000153b8 	rdprs	zero,zero,1358
   15220:	00015154 	movui	zero,1349
   15224:	000153b8 	rdprs	zero,zero,1358
   15228:	000152b4 	movhi	zero,1354
   1522c:	000153b8 	rdprs	zero,zero,1358
   15230:	00015154 	movui	zero,1349
   15234:	0001516c 	andhi	zero,zero,1349
   15238:	0001516c 	andhi	zero,zero,1349
   1523c:	000152b4 	movhi	zero,1354
   15240:	00015154 	movui	zero,1349
   15244:	000153c8 	cmpgei	zero,zero,1359
   15248:	000153c8 	cmpgei	zero,zero,1359
   1524c:	000153c8 	cmpgei	zero,zero,1359
   15250:	000153e0 	cmpeqi	zero,zero,1359
   15254:	8809883a 	mov	r4,r17
   15258:	00186b40 	call	186b4 <__clzsi2>
   1525c:	10fffec4 	addi	r3,r2,-5
   15260:	10801d84 	addi	r2,r2,118
   15264:	88e2983a 	sll	r17,r17,r3
   15268:	008dc83a 	sub	r6,zero,r2
   1526c:	000b883a 	mov	r5,zero
   15270:	003f9906 	br	150d8 <_gp+0xffff1078>
   15274:	014000c4 	movi	r5,3
   15278:	003f9706 	br	150d8 <_gp+0xffff1078>
   1527c:	9009883a 	mov	r4,r18
   15280:	d9400015 	stw	r5,0(sp)
   15284:	00186b40 	call	186b4 <__clzsi2>
   15288:	10fffec4 	addi	r3,r2,-5
   1528c:	11801d84 	addi	r6,r2,118
   15290:	90e4983a 	sll	r18,r18,r3
   15294:	01a9c83a 	sub	r20,zero,r6
   15298:	0021883a 	mov	r16,zero
   1529c:	002f883a 	mov	r23,zero
   152a0:	d9400017 	ldw	r5,0(sp)
   152a4:	003f7e06 	br	150a0 <_gp+0xffff1040>
   152a8:	04000304 	movi	r16,12
   152ac:	05c000c4 	movi	r23,3
   152b0:	003f7b06 	br	150a0 <_gp+0xffff1040>
   152b4:	01802034 	movhi	r6,128
   152b8:	000f883a 	mov	r7,zero
   152bc:	31bfffc4 	addi	r6,r6,-1
   152c0:	013fffc4 	movi	r4,-1
   152c4:	003fac06 	br	15178 <_gp+0xffff1118>
   152c8:	01400044 	movi	r5,1
   152cc:	2909c83a 	sub	r4,r5,r4
   152d0:	00c006c4 	movi	r3,27
   152d4:	19004b0e 	bge	r3,r4,15404 <__divsf3+0x3cc>
   152d8:	114e703a 	and	r7,r2,r5
   152dc:	0009883a 	mov	r4,zero
   152e0:	000d883a 	mov	r6,zero
   152e4:	003fa406 	br	15178 <_gp+0xffff1118>
   152e8:	9006917a 	slli	r3,r18,5
   152ec:	8822917a 	slli	r17,r17,5
   152f0:	1c40372e 	bgeu	r3,r17,153d0 <__divsf3+0x398>
   152f4:	31bfffc4 	addi	r6,r6,-1
   152f8:	010006c4 	movi	r4,27
   152fc:	000b883a 	mov	r5,zero
   15300:	180f883a 	mov	r7,r3
   15304:	294b883a 	add	r5,r5,r5
   15308:	18c7883a 	add	r3,r3,r3
   1530c:	38000116 	blt	r7,zero,15314 <__divsf3+0x2dc>
   15310:	1c400236 	bltu	r3,r17,1531c <__divsf3+0x2e4>
   15314:	1c47c83a 	sub	r3,r3,r17
   15318:	29400054 	ori	r5,r5,1
   1531c:	213fffc4 	addi	r4,r4,-1
   15320:	203ff71e 	bne	r4,zero,15300 <_gp+0xffff12a0>
   15324:	1806c03a 	cmpne	r3,r3,zero
   15328:	1962b03a 	or	r17,r3,r5
   1532c:	31001fc4 	addi	r4,r6,127
   15330:	013fe50e 	bge	zero,r4,152c8 <_gp+0xffff1268>
   15334:	88c001cc 	andi	r3,r17,7
   15338:	18000426 	beq	r3,zero,1534c <__divsf3+0x314>
   1533c:	88c003cc 	andi	r3,r17,15
   15340:	01400104 	movi	r5,4
   15344:	19400126 	beq	r3,r5,1534c <__divsf3+0x314>
   15348:	8963883a 	add	r17,r17,r5
   1534c:	88c2002c 	andhi	r3,r17,2048
   15350:	18000426 	beq	r3,zero,15364 <__divsf3+0x32c>
   15354:	00fe0034 	movhi	r3,63488
   15358:	18ffffc4 	addi	r3,r3,-1
   1535c:	31002004 	addi	r4,r6,128
   15360:	88e2703a 	and	r17,r17,r3
   15364:	00c03f84 	movi	r3,254
   15368:	193f8016 	blt	r3,r4,1516c <_gp+0xffff110c>
   1536c:	880c91ba 	slli	r6,r17,6
   15370:	11c0004c 	andi	r7,r2,1
   15374:	300cd27a 	srli	r6,r6,9
   15378:	003f7f06 	br	15178 <_gp+0xffff1118>
   1537c:	9080102c 	andhi	r2,r18,64
   15380:	10000226 	beq	r2,zero,1538c <__divsf3+0x354>
   15384:	8880102c 	andhi	r2,r17,64
   15388:	10001826 	beq	r2,zero,153ec <__divsf3+0x3b4>
   1538c:	00802034 	movhi	r2,128
   15390:	91801034 	orhi	r6,r18,64
   15394:	10bfffc4 	addi	r2,r2,-1
   15398:	980f883a 	mov	r7,r19
   1539c:	308c703a 	and	r6,r6,r2
   153a0:	003fc706 	br	152c0 <_gp+0xffff1260>
   153a4:	008000c4 	movi	r2,3
   153a8:	b8802d26 	beq	r23,r2,15460 <__divsf3+0x428>
   153ac:	00c00044 	movi	r3,1
   153b0:	b005883a 	mov	r2,r22
   153b4:	b8ffdd1e 	bne	r23,r3,1532c <_gp+0xffff12cc>
   153b8:	11c0004c 	andi	r7,r2,1
   153bc:	0009883a 	mov	r4,zero
   153c0:	000d883a 	mov	r6,zero
   153c4:	003f6c06 	br	15178 <_gp+0xffff1118>
   153c8:	9023883a 	mov	r17,r18
   153cc:	003f6406 	br	15160 <_gp+0xffff1100>
   153d0:	1c47c83a 	sub	r3,r3,r17
   153d4:	01000684 	movi	r4,26
   153d8:	01400044 	movi	r5,1
   153dc:	003fc806 	br	15300 <_gp+0xffff12a0>
   153e0:	9080102c 	andhi	r2,r18,64
   153e4:	103fe926 	beq	r2,zero,1538c <_gp+0xffff132c>
   153e8:	0023883a 	mov	r17,zero
   153ec:	00802034 	movhi	r2,128
   153f0:	89801034 	orhi	r6,r17,64
   153f4:	10bfffc4 	addi	r2,r2,-1
   153f8:	a80f883a 	mov	r7,r21
   153fc:	308c703a 	and	r6,r6,r2
   15400:	003faf06 	br	152c0 <_gp+0xffff1260>
   15404:	01c00804 	movi	r7,32
   15408:	390fc83a 	sub	r7,r7,r4
   1540c:	89ce983a 	sll	r7,r17,r7
   15410:	890ad83a 	srl	r5,r17,r4
   15414:	380ec03a 	cmpne	r7,r7,zero
   15418:	29cab03a 	or	r5,r5,r7
   1541c:	28c001cc 	andi	r3,r5,7
   15420:	18000426 	beq	r3,zero,15434 <__divsf3+0x3fc>
   15424:	28c003cc 	andi	r3,r5,15
   15428:	01000104 	movi	r4,4
   1542c:	19000126 	beq	r3,r4,15434 <__divsf3+0x3fc>
   15430:	290b883a 	add	r5,r5,r4
   15434:	28c1002c 	andhi	r3,r5,1024
   15438:	18000426 	beq	r3,zero,1544c <__divsf3+0x414>
   1543c:	11c0004c 	andi	r7,r2,1
   15440:	01000044 	movi	r4,1
   15444:	000d883a 	mov	r6,zero
   15448:	003f4b06 	br	15178 <_gp+0xffff1118>
   1544c:	280a91ba 	slli	r5,r5,6
   15450:	11c0004c 	andi	r7,r2,1
   15454:	0009883a 	mov	r4,zero
   15458:	280cd27a 	srli	r6,r5,9
   1545c:	003f4606 	br	15178 <_gp+0xffff1118>
   15460:	00802034 	movhi	r2,128
   15464:	89801034 	orhi	r6,r17,64
   15468:	10bfffc4 	addi	r2,r2,-1
   1546c:	b00f883a 	mov	r7,r22
   15470:	308c703a 	and	r6,r6,r2
   15474:	003f9206 	br	152c0 <_gp+0xffff1260>

00015478 <__mulsf3>:
   15478:	defff504 	addi	sp,sp,-44
   1547c:	dc000115 	stw	r16,4(sp)
   15480:	2020d5fa 	srli	r16,r4,23
   15484:	dd400615 	stw	r21,24(sp)
   15488:	202ad7fa 	srli	r21,r4,31
   1548c:	dc800315 	stw	r18,12(sp)
   15490:	04802034 	movhi	r18,128
   15494:	df000915 	stw	fp,36(sp)
   15498:	dd000515 	stw	r20,20(sp)
   1549c:	94bfffc4 	addi	r18,r18,-1
   154a0:	dfc00a15 	stw	ra,40(sp)
   154a4:	ddc00815 	stw	r23,32(sp)
   154a8:	dd800715 	stw	r22,28(sp)
   154ac:	dcc00415 	stw	r19,16(sp)
   154b0:	dc400215 	stw	r17,8(sp)
   154b4:	84003fcc 	andi	r16,r16,255
   154b8:	9124703a 	and	r18,r18,r4
   154bc:	a829883a 	mov	r20,r21
   154c0:	af003fcc 	andi	fp,r21,255
   154c4:	80005426 	beq	r16,zero,15618 <__mulsf3+0x1a0>
   154c8:	00803fc4 	movi	r2,255
   154cc:	80802f26 	beq	r16,r2,1558c <__mulsf3+0x114>
   154d0:	91002034 	orhi	r4,r18,128
   154d4:	202490fa 	slli	r18,r4,3
   154d8:	843fe044 	addi	r16,r16,-127
   154dc:	0023883a 	mov	r17,zero
   154e0:	002f883a 	mov	r23,zero
   154e4:	2804d5fa 	srli	r2,r5,23
   154e8:	282cd7fa 	srli	r22,r5,31
   154ec:	01002034 	movhi	r4,128
   154f0:	213fffc4 	addi	r4,r4,-1
   154f4:	10803fcc 	andi	r2,r2,255
   154f8:	2166703a 	and	r19,r4,r5
   154fc:	b1803fcc 	andi	r6,r22,255
   15500:	10004c26 	beq	r2,zero,15634 <__mulsf3+0x1bc>
   15504:	00c03fc4 	movi	r3,255
   15508:	10c04726 	beq	r2,r3,15628 <__mulsf3+0x1b0>
   1550c:	99002034 	orhi	r4,r19,128
   15510:	202690fa 	slli	r19,r4,3
   15514:	10bfe044 	addi	r2,r2,-127
   15518:	0007883a 	mov	r3,zero
   1551c:	80a1883a 	add	r16,r16,r2
   15520:	010003c4 	movi	r4,15
   15524:	1c44b03a 	or	r2,r3,r17
   15528:	b56af03a 	xor	r21,r22,r21
   1552c:	81c00044 	addi	r7,r16,1
   15530:	20806b36 	bltu	r4,r2,156e0 <__mulsf3+0x268>
   15534:	100490ba 	slli	r2,r2,2
   15538:	01000074 	movhi	r4,1
   1553c:	21155304 	addi	r4,r4,21836
   15540:	1105883a 	add	r2,r2,r4
   15544:	10800017 	ldw	r2,0(r2)
   15548:	1000683a 	jmp	r2
   1554c:	000156e0 	cmpeqi	zero,zero,1371
   15550:	000155a0 	cmpeqi	zero,zero,1366
   15554:	000155a0 	cmpeqi	zero,zero,1366
   15558:	0001559c 	xori	zero,zero,1366
   1555c:	000156c4 	movi	zero,1371
   15560:	000156c4 	movi	zero,1371
   15564:	000156b0 	cmpltui	zero,zero,1370
   15568:	0001559c 	xori	zero,zero,1366
   1556c:	000156c4 	movi	zero,1371
   15570:	000156b0 	cmpltui	zero,zero,1370
   15574:	000156c4 	movi	zero,1371
   15578:	0001559c 	xori	zero,zero,1366
   1557c:	000156d0 	cmplti	zero,zero,1371
   15580:	000156d0 	cmplti	zero,zero,1371
   15584:	000156d0 	cmplti	zero,zero,1371
   15588:	000157ac 	andhi	zero,zero,1374
   1558c:	90003b1e 	bne	r18,zero,1567c <__mulsf3+0x204>
   15590:	04400204 	movi	r17,8
   15594:	05c00084 	movi	r23,2
   15598:	003fd206 	br	154e4 <_gp+0xffff1484>
   1559c:	302b883a 	mov	r21,r6
   155a0:	00800084 	movi	r2,2
   155a4:	18802626 	beq	r3,r2,15640 <__mulsf3+0x1c8>
   155a8:	008000c4 	movi	r2,3
   155ac:	1880ab26 	beq	r3,r2,1585c <__mulsf3+0x3e4>
   155b0:	00800044 	movi	r2,1
   155b4:	1880a21e 	bne	r3,r2,15840 <__mulsf3+0x3c8>
   155b8:	a829883a 	mov	r20,r21
   155bc:	0007883a 	mov	r3,zero
   155c0:	0009883a 	mov	r4,zero
   155c4:	18803fcc 	andi	r2,r3,255
   155c8:	100695fa 	slli	r3,r2,23
   155cc:	a0803fcc 	andi	r2,r20,255
   155d0:	100a97fa 	slli	r5,r2,31
   155d4:	00802034 	movhi	r2,128
   155d8:	10bfffc4 	addi	r2,r2,-1
   155dc:	2084703a 	and	r2,r4,r2
   155e0:	10c4b03a 	or	r2,r2,r3
   155e4:	1144b03a 	or	r2,r2,r5
   155e8:	dfc00a17 	ldw	ra,40(sp)
   155ec:	df000917 	ldw	fp,36(sp)
   155f0:	ddc00817 	ldw	r23,32(sp)
   155f4:	dd800717 	ldw	r22,28(sp)
   155f8:	dd400617 	ldw	r21,24(sp)
   155fc:	dd000517 	ldw	r20,20(sp)
   15600:	dcc00417 	ldw	r19,16(sp)
   15604:	dc800317 	ldw	r18,12(sp)
   15608:	dc400217 	ldw	r17,8(sp)
   1560c:	dc000117 	ldw	r16,4(sp)
   15610:	dec00b04 	addi	sp,sp,44
   15614:	f800283a 	ret
   15618:	90000d1e 	bne	r18,zero,15650 <__mulsf3+0x1d8>
   1561c:	04400104 	movi	r17,4
   15620:	05c00044 	movi	r23,1
   15624:	003faf06 	br	154e4 <_gp+0xffff1484>
   15628:	9806c03a 	cmpne	r3,r19,zero
   1562c:	18c00084 	addi	r3,r3,2
   15630:	003fba06 	br	1551c <_gp+0xffff14bc>
   15634:	9800141e 	bne	r19,zero,15688 <__mulsf3+0x210>
   15638:	00c00044 	movi	r3,1
   1563c:	003fb706 	br	1551c <_gp+0xffff14bc>
   15640:	a829883a 	mov	r20,r21
   15644:	00ffffc4 	movi	r3,-1
   15648:	0009883a 	mov	r4,zero
   1564c:	003fdd06 	br	155c4 <_gp+0xffff1564>
   15650:	9009883a 	mov	r4,r18
   15654:	d9400015 	stw	r5,0(sp)
   15658:	00186b40 	call	186b4 <__clzsi2>
   1565c:	10fffec4 	addi	r3,r2,-5
   15660:	10801d84 	addi	r2,r2,118
   15664:	90e4983a 	sll	r18,r18,r3
   15668:	00a1c83a 	sub	r16,zero,r2
   1566c:	0023883a 	mov	r17,zero
   15670:	002f883a 	mov	r23,zero
   15674:	d9400017 	ldw	r5,0(sp)
   15678:	003f9a06 	br	154e4 <_gp+0xffff1484>
   1567c:	04400304 	movi	r17,12
   15680:	05c000c4 	movi	r23,3
   15684:	003f9706 	br	154e4 <_gp+0xffff1484>
   15688:	9809883a 	mov	r4,r19
   1568c:	d9800015 	stw	r6,0(sp)
   15690:	00186b40 	call	186b4 <__clzsi2>
   15694:	10fffec4 	addi	r3,r2,-5
   15698:	10801d84 	addi	r2,r2,118
   1569c:	98e6983a 	sll	r19,r19,r3
   156a0:	0085c83a 	sub	r2,zero,r2
   156a4:	0007883a 	mov	r3,zero
   156a8:	d9800017 	ldw	r6,0(sp)
   156ac:	003f9b06 	br	1551c <_gp+0xffff14bc>
   156b0:	01002034 	movhi	r4,128
   156b4:	0029883a 	mov	r20,zero
   156b8:	213fffc4 	addi	r4,r4,-1
   156bc:	00ffffc4 	movi	r3,-1
   156c0:	003fc006 	br	155c4 <_gp+0xffff1564>
   156c4:	9027883a 	mov	r19,r18
   156c8:	b807883a 	mov	r3,r23
   156cc:	003fb406 	br	155a0 <_gp+0xffff1540>
   156d0:	9027883a 	mov	r19,r18
   156d4:	e02b883a 	mov	r21,fp
   156d8:	b807883a 	mov	r3,r23
   156dc:	003fb006 	br	155a0 <_gp+0xffff1540>
   156e0:	9004d43a 	srli	r2,r18,16
   156e4:	9810d43a 	srli	r8,r19,16
   156e8:	94bfffcc 	andi	r18,r18,65535
   156ec:	993fffcc 	andi	r4,r19,65535
   156f0:	910d383a 	mul	r6,r18,r4
   156f4:	20a7383a 	mul	r19,r4,r2
   156f8:	9225383a 	mul	r18,r18,r8
   156fc:	3006d43a 	srli	r3,r6,16
   15700:	1211383a 	mul	r8,r2,r8
   15704:	94e5883a 	add	r18,r18,r19
   15708:	1c87883a 	add	r3,r3,r18
   1570c:	1cc0022e 	bgeu	r3,r19,15718 <__mulsf3+0x2a0>
   15710:	00800074 	movhi	r2,1
   15714:	4091883a 	add	r8,r8,r2
   15718:	1804943a 	slli	r2,r3,16
   1571c:	31bfffcc 	andi	r6,r6,65535
   15720:	1806d43a 	srli	r3,r3,16
   15724:	1185883a 	add	r2,r2,r6
   15728:	102691ba 	slli	r19,r2,6
   1572c:	1a07883a 	add	r3,r3,r8
   15730:	1004d6ba 	srli	r2,r2,26
   15734:	180891ba 	slli	r4,r3,6
   15738:	9826c03a 	cmpne	r19,r19,zero
   1573c:	9884b03a 	or	r2,r19,r2
   15740:	1126b03a 	or	r19,r2,r4
   15744:	9882002c 	andhi	r2,r19,2048
   15748:	10000426 	beq	r2,zero,1575c <__mulsf3+0x2e4>
   1574c:	9804d07a 	srli	r2,r19,1
   15750:	9900004c 	andi	r4,r19,1
   15754:	3821883a 	mov	r16,r7
   15758:	1126b03a 	or	r19,r2,r4
   1575c:	80c01fc4 	addi	r3,r16,127
   15760:	00c0210e 	bge	zero,r3,157e8 <__mulsf3+0x370>
   15764:	988001cc 	andi	r2,r19,7
   15768:	10000426 	beq	r2,zero,1577c <__mulsf3+0x304>
   1576c:	988003cc 	andi	r2,r19,15
   15770:	01000104 	movi	r4,4
   15774:	11000126 	beq	r2,r4,1577c <__mulsf3+0x304>
   15778:	9927883a 	add	r19,r19,r4
   1577c:	9882002c 	andhi	r2,r19,2048
   15780:	10000426 	beq	r2,zero,15794 <__mulsf3+0x31c>
   15784:	00be0034 	movhi	r2,63488
   15788:	10bfffc4 	addi	r2,r2,-1
   1578c:	80c02004 	addi	r3,r16,128
   15790:	98a6703a 	and	r19,r19,r2
   15794:	00803f84 	movi	r2,254
   15798:	10ffa916 	blt	r2,r3,15640 <_gp+0xffff15e0>
   1579c:	980891ba 	slli	r4,r19,6
   157a0:	a829883a 	mov	r20,r21
   157a4:	2008d27a 	srli	r4,r4,9
   157a8:	003f8606 	br	155c4 <_gp+0xffff1564>
   157ac:	9080102c 	andhi	r2,r18,64
   157b0:	10000826 	beq	r2,zero,157d4 <__mulsf3+0x35c>
   157b4:	9880102c 	andhi	r2,r19,64
   157b8:	1000061e 	bne	r2,zero,157d4 <__mulsf3+0x35c>
   157bc:	00802034 	movhi	r2,128
   157c0:	99001034 	orhi	r4,r19,64
   157c4:	10bfffc4 	addi	r2,r2,-1
   157c8:	b029883a 	mov	r20,r22
   157cc:	2088703a 	and	r4,r4,r2
   157d0:	003fba06 	br	156bc <_gp+0xffff165c>
   157d4:	00802034 	movhi	r2,128
   157d8:	91001034 	orhi	r4,r18,64
   157dc:	10bfffc4 	addi	r2,r2,-1
   157e0:	2088703a 	and	r4,r4,r2
   157e4:	003fb506 	br	156bc <_gp+0xffff165c>
   157e8:	00800044 	movi	r2,1
   157ec:	10c7c83a 	sub	r3,r2,r3
   157f0:	008006c4 	movi	r2,27
   157f4:	10ff7016 	blt	r2,r3,155b8 <_gp+0xffff1558>
   157f8:	00800804 	movi	r2,32
   157fc:	10c5c83a 	sub	r2,r2,r3
   15800:	9884983a 	sll	r2,r19,r2
   15804:	98c6d83a 	srl	r3,r19,r3
   15808:	1004c03a 	cmpne	r2,r2,zero
   1580c:	1884b03a 	or	r2,r3,r2
   15810:	10c001cc 	andi	r3,r2,7
   15814:	18000426 	beq	r3,zero,15828 <__mulsf3+0x3b0>
   15818:	10c003cc 	andi	r3,r2,15
   1581c:	01000104 	movi	r4,4
   15820:	19000126 	beq	r3,r4,15828 <__mulsf3+0x3b0>
   15824:	1105883a 	add	r2,r2,r4
   15828:	10c1002c 	andhi	r3,r2,1024
   1582c:	18000626 	beq	r3,zero,15848 <__mulsf3+0x3d0>
   15830:	a829883a 	mov	r20,r21
   15834:	00c00044 	movi	r3,1
   15838:	0009883a 	mov	r4,zero
   1583c:	003f6106 	br	155c4 <_gp+0xffff1564>
   15840:	3821883a 	mov	r16,r7
   15844:	003fc506 	br	1575c <_gp+0xffff16fc>
   15848:	100491ba 	slli	r2,r2,6
   1584c:	a829883a 	mov	r20,r21
   15850:	0007883a 	mov	r3,zero
   15854:	1008d27a 	srli	r4,r2,9
   15858:	003f5a06 	br	155c4 <_gp+0xffff1564>
   1585c:	00802034 	movhi	r2,128
   15860:	99001034 	orhi	r4,r19,64
   15864:	10bfffc4 	addi	r2,r2,-1
   15868:	a829883a 	mov	r20,r21
   1586c:	2088703a 	and	r4,r4,r2
   15870:	003f9206 	br	156bc <_gp+0xffff165c>

00015874 <__subsf3>:
   15874:	defffc04 	addi	sp,sp,-16
   15878:	280cd5fa 	srli	r6,r5,23
   1587c:	dc000015 	stw	r16,0(sp)
   15880:	01c02034 	movhi	r7,128
   15884:	2020d5fa 	srli	r16,r4,23
   15888:	39ffffc4 	addi	r7,r7,-1
   1588c:	3906703a 	and	r3,r7,r4
   15890:	dc400115 	stw	r17,4(sp)
   15894:	394e703a 	and	r7,r7,r5
   15898:	2022d7fa 	srli	r17,r4,31
   1589c:	dfc00315 	stw	ra,12(sp)
   158a0:	dc800215 	stw	r18,8(sp)
   158a4:	31803fcc 	andi	r6,r6,255
   158a8:	01003fc4 	movi	r4,255
   158ac:	84003fcc 	andi	r16,r16,255
   158b0:	180690fa 	slli	r3,r3,3
   158b4:	2804d7fa 	srli	r2,r5,31
   158b8:	380e90fa 	slli	r7,r7,3
   158bc:	31006d26 	beq	r6,r4,15a74 <__subsf3+0x200>
   158c0:	1080005c 	xori	r2,r2,1
   158c4:	8189c83a 	sub	r4,r16,r6
   158c8:	14404f26 	beq	r2,r17,15a08 <__subsf3+0x194>
   158cc:	0100770e 	bge	zero,r4,15aac <__subsf3+0x238>
   158d0:	30001e1e 	bne	r6,zero,1594c <__subsf3+0xd8>
   158d4:	38006a1e 	bne	r7,zero,15a80 <__subsf3+0x20c>
   158d8:	188001cc 	andi	r2,r3,7
   158dc:	10000426 	beq	r2,zero,158f0 <__subsf3+0x7c>
   158e0:	188003cc 	andi	r2,r3,15
   158e4:	01000104 	movi	r4,4
   158e8:	11000126 	beq	r2,r4,158f0 <__subsf3+0x7c>
   158ec:	1907883a 	add	r3,r3,r4
   158f0:	1881002c 	andhi	r2,r3,1024
   158f4:	10003926 	beq	r2,zero,159dc <__subsf3+0x168>
   158f8:	84000044 	addi	r16,r16,1
   158fc:	00803fc4 	movi	r2,255
   15900:	80807526 	beq	r16,r2,15ad8 <__subsf3+0x264>
   15904:	180691ba 	slli	r3,r3,6
   15908:	8880004c 	andi	r2,r17,1
   1590c:	180ad27a 	srli	r5,r3,9
   15910:	84003fcc 	andi	r16,r16,255
   15914:	800695fa 	slli	r3,r16,23
   15918:	10803fcc 	andi	r2,r2,255
   1591c:	01002034 	movhi	r4,128
   15920:	213fffc4 	addi	r4,r4,-1
   15924:	100497fa 	slli	r2,r2,31
   15928:	2920703a 	and	r16,r5,r4
   1592c:	80e0b03a 	or	r16,r16,r3
   15930:	8084b03a 	or	r2,r16,r2
   15934:	dfc00317 	ldw	ra,12(sp)
   15938:	dc800217 	ldw	r18,8(sp)
   1593c:	dc400117 	ldw	r17,4(sp)
   15940:	dc000017 	ldw	r16,0(sp)
   15944:	dec00404 	addi	sp,sp,16
   15948:	f800283a 	ret
   1594c:	00803fc4 	movi	r2,255
   15950:	80bfe126 	beq	r16,r2,158d8 <_gp+0xffff1878>
   15954:	39c10034 	orhi	r7,r7,1024
   15958:	008006c4 	movi	r2,27
   1595c:	11007416 	blt	r2,r4,15b30 <__subsf3+0x2bc>
   15960:	00800804 	movi	r2,32
   15964:	1105c83a 	sub	r2,r2,r4
   15968:	3884983a 	sll	r2,r7,r2
   1596c:	390ed83a 	srl	r7,r7,r4
   15970:	1008c03a 	cmpne	r4,r2,zero
   15974:	390eb03a 	or	r7,r7,r4
   15978:	19c7c83a 	sub	r3,r3,r7
   1597c:	1881002c 	andhi	r2,r3,1024
   15980:	10001426 	beq	r2,zero,159d4 <__subsf3+0x160>
   15984:	04810034 	movhi	r18,1024
   15988:	94bfffc4 	addi	r18,r18,-1
   1598c:	1ca4703a 	and	r18,r3,r18
   15990:	9009883a 	mov	r4,r18
   15994:	00186b40 	call	186b4 <__clzsi2>
   15998:	10bffec4 	addi	r2,r2,-5
   1599c:	90a4983a 	sll	r18,r18,r2
   159a0:	14005116 	blt	r2,r16,15ae8 <__subsf3+0x274>
   159a4:	1405c83a 	sub	r2,r2,r16
   159a8:	10c00044 	addi	r3,r2,1
   159ac:	00800804 	movi	r2,32
   159b0:	10c5c83a 	sub	r2,r2,r3
   159b4:	9084983a 	sll	r2,r18,r2
   159b8:	90e4d83a 	srl	r18,r18,r3
   159bc:	0021883a 	mov	r16,zero
   159c0:	1006c03a 	cmpne	r3,r2,zero
   159c4:	90c6b03a 	or	r3,r18,r3
   159c8:	003fc306 	br	158d8 <_gp+0xffff1878>
   159cc:	2000e026 	beq	r4,zero,15d50 <__subsf3+0x4dc>
   159d0:	2007883a 	mov	r3,r4
   159d4:	188001cc 	andi	r2,r3,7
   159d8:	103fc11e 	bne	r2,zero,158e0 <_gp+0xffff1880>
   159dc:	180ad0fa 	srli	r5,r3,3
   159e0:	00c03fc4 	movi	r3,255
   159e4:	8880004c 	andi	r2,r17,1
   159e8:	80c0031e 	bne	r16,r3,159f8 <__subsf3+0x184>
   159ec:	28006d26 	beq	r5,zero,15ba4 <__subsf3+0x330>
   159f0:	29401034 	orhi	r5,r5,64
   159f4:	043fffc4 	movi	r16,-1
   159f8:	00c02034 	movhi	r3,128
   159fc:	18ffffc4 	addi	r3,r3,-1
   15a00:	28ca703a 	and	r5,r5,r3
   15a04:	003fc206 	br	15910 <_gp+0xffff18b0>
   15a08:	01003c0e 	bge	zero,r4,15afc <__subsf3+0x288>
   15a0c:	30002126 	beq	r6,zero,15a94 <__subsf3+0x220>
   15a10:	01403fc4 	movi	r5,255
   15a14:	817fb026 	beq	r16,r5,158d8 <_gp+0xffff1878>
   15a18:	39c10034 	orhi	r7,r7,1024
   15a1c:	014006c4 	movi	r5,27
   15a20:	29007416 	blt	r5,r4,15bf4 <__subsf3+0x380>
   15a24:	01400804 	movi	r5,32
   15a28:	290bc83a 	sub	r5,r5,r4
   15a2c:	394a983a 	sll	r5,r7,r5
   15a30:	390ed83a 	srl	r7,r7,r4
   15a34:	2808c03a 	cmpne	r4,r5,zero
   15a38:	390eb03a 	or	r7,r7,r4
   15a3c:	19c7883a 	add	r3,r3,r7
   15a40:	1901002c 	andhi	r4,r3,1024
   15a44:	20003826 	beq	r4,zero,15b28 <__subsf3+0x2b4>
   15a48:	84000044 	addi	r16,r16,1
   15a4c:	01003fc4 	movi	r4,255
   15a50:	81005426 	beq	r16,r4,15ba4 <__subsf3+0x330>
   15a54:	1023883a 	mov	r17,r2
   15a58:	00bf0034 	movhi	r2,64512
   15a5c:	10bfffc4 	addi	r2,r2,-1
   15a60:	1900004c 	andi	r4,r3,1
   15a64:	1886703a 	and	r3,r3,r2
   15a68:	1806d07a 	srli	r3,r3,1
   15a6c:	1906b03a 	or	r3,r3,r4
   15a70:	003f9906 	br	158d8 <_gp+0xffff1878>
   15a74:	383f9226 	beq	r7,zero,158c0 <_gp+0xffff1860>
   15a78:	10803fcc 	andi	r2,r2,255
   15a7c:	003f9106 	br	158c4 <_gp+0xffff1864>
   15a80:	213fffc4 	addi	r4,r4,-1
   15a84:	203fbc26 	beq	r4,zero,15978 <_gp+0xffff1918>
   15a88:	00803fc4 	movi	r2,255
   15a8c:	80bfb21e 	bne	r16,r2,15958 <_gp+0xffff18f8>
   15a90:	003f9106 	br	158d8 <_gp+0xffff1878>
   15a94:	383f9026 	beq	r7,zero,158d8 <_gp+0xffff1878>
   15a98:	213fffc4 	addi	r4,r4,-1
   15a9c:	203fe726 	beq	r4,zero,15a3c <_gp+0xffff19dc>
   15aa0:	01403fc4 	movi	r5,255
   15aa4:	817fdd1e 	bne	r16,r5,15a1c <_gp+0xffff19bc>
   15aa8:	003f8b06 	br	158d8 <_gp+0xffff1878>
   15aac:	2000221e 	bne	r4,zero,15b38 <__subsf3+0x2c4>
   15ab0:	81000044 	addi	r4,r16,1
   15ab4:	21003fcc 	andi	r4,r4,255
   15ab8:	01400044 	movi	r5,1
   15abc:	2900470e 	bge	r5,r4,15bdc <__subsf3+0x368>
   15ac0:	19e5c83a 	sub	r18,r3,r7
   15ac4:	9141002c 	andhi	r5,r18,1024
   15ac8:	28002d26 	beq	r5,zero,15b80 <__subsf3+0x30c>
   15acc:	38e5c83a 	sub	r18,r7,r3
   15ad0:	1023883a 	mov	r17,r2
   15ad4:	003fae06 	br	15990 <_gp+0xffff1930>
   15ad8:	8880004c 	andi	r2,r17,1
   15adc:	043fffc4 	movi	r16,-1
   15ae0:	000b883a 	mov	r5,zero
   15ae4:	003f8a06 	br	15910 <_gp+0xffff18b0>
   15ae8:	00ff0034 	movhi	r3,64512
   15aec:	18ffffc4 	addi	r3,r3,-1
   15af0:	80a1c83a 	sub	r16,r16,r2
   15af4:	90c6703a 	and	r3,r18,r3
   15af8:	003f7706 	br	158d8 <_gp+0xffff1878>
   15afc:	2000431e 	bne	r4,zero,15c0c <__subsf3+0x398>
   15b00:	81000044 	addi	r4,r16,1
   15b04:	21803fcc 	andi	r6,r4,255
   15b08:	01400044 	movi	r5,1
   15b0c:	2980280e 	bge	r5,r6,15bb0 <__subsf3+0x33c>
   15b10:	01403fc4 	movi	r5,255
   15b14:	21402326 	beq	r4,r5,15ba4 <__subsf3+0x330>
   15b18:	19c7883a 	add	r3,r3,r7
   15b1c:	1806d07a 	srli	r3,r3,1
   15b20:	2021883a 	mov	r16,r4
   15b24:	003f6c06 	br	158d8 <_gp+0xffff1878>
   15b28:	1023883a 	mov	r17,r2
   15b2c:	003fa906 	br	159d4 <_gp+0xffff1974>
   15b30:	01c00044 	movi	r7,1
   15b34:	003f9006 	br	15978 <_gp+0xffff1918>
   15b38:	8000151e 	bne	r16,zero,15b90 <__subsf3+0x31c>
   15b3c:	18002f26 	beq	r3,zero,15bfc <__subsf3+0x388>
   15b40:	0108303a 	nor	r4,zero,r4
   15b44:	20000a26 	beq	r4,zero,15b70 <__subsf3+0x2fc>
   15b48:	01403fc4 	movi	r5,255
   15b4c:	31402b26 	beq	r6,r5,15bfc <__subsf3+0x388>
   15b50:	014006c4 	movi	r5,27
   15b54:	29006e16 	blt	r5,r4,15d10 <__subsf3+0x49c>
   15b58:	01400804 	movi	r5,32
   15b5c:	290bc83a 	sub	r5,r5,r4
   15b60:	194a983a 	sll	r5,r3,r5
   15b64:	1908d83a 	srl	r4,r3,r4
   15b68:	2806c03a 	cmpne	r3,r5,zero
   15b6c:	20c6b03a 	or	r3,r4,r3
   15b70:	38c7c83a 	sub	r3,r7,r3
   15b74:	3021883a 	mov	r16,r6
   15b78:	1023883a 	mov	r17,r2
   15b7c:	003f7f06 	br	1597c <_gp+0xffff191c>
   15b80:	903f831e 	bne	r18,zero,15990 <_gp+0xffff1930>
   15b84:	0005883a 	mov	r2,zero
   15b88:	0021883a 	mov	r16,zero
   15b8c:	003f9a06 	br	159f8 <_gp+0xffff1998>
   15b90:	01403fc4 	movi	r5,255
   15b94:	31401926 	beq	r6,r5,15bfc <__subsf3+0x388>
   15b98:	0109c83a 	sub	r4,zero,r4
   15b9c:	18c10034 	orhi	r3,r3,1024
   15ba0:	003feb06 	br	15b50 <_gp+0xffff1af0>
   15ba4:	043fffc4 	movi	r16,-1
   15ba8:	000b883a 	mov	r5,zero
   15bac:	003f5806 	br	15910 <_gp+0xffff18b0>
   15bb0:	8000481e 	bne	r16,zero,15cd4 <__subsf3+0x460>
   15bb4:	18006226 	beq	r3,zero,15d40 <__subsf3+0x4cc>
   15bb8:	383f4726 	beq	r7,zero,158d8 <_gp+0xffff1878>
   15bbc:	19c7883a 	add	r3,r3,r7
   15bc0:	1881002c 	andhi	r2,r3,1024
   15bc4:	103f8326 	beq	r2,zero,159d4 <_gp+0xffff1974>
   15bc8:	00bf0034 	movhi	r2,64512
   15bcc:	10bfffc4 	addi	r2,r2,-1
   15bd0:	2821883a 	mov	r16,r5
   15bd4:	1886703a 	and	r3,r3,r2
   15bd8:	003f3f06 	br	158d8 <_gp+0xffff1878>
   15bdc:	80001c1e 	bne	r16,zero,15c50 <__subsf3+0x3dc>
   15be0:	1800261e 	bne	r3,zero,15c7c <__subsf3+0x408>
   15be4:	38004c26 	beq	r7,zero,15d18 <__subsf3+0x4a4>
   15be8:	3807883a 	mov	r3,r7
   15bec:	1023883a 	mov	r17,r2
   15bf0:	003f3906 	br	158d8 <_gp+0xffff1878>
   15bf4:	01c00044 	movi	r7,1
   15bf8:	003f9006 	br	15a3c <_gp+0xffff19dc>
   15bfc:	3807883a 	mov	r3,r7
   15c00:	3021883a 	mov	r16,r6
   15c04:	1023883a 	mov	r17,r2
   15c08:	003f3306 	br	158d8 <_gp+0xffff1878>
   15c0c:	8000161e 	bne	r16,zero,15c68 <__subsf3+0x3f4>
   15c10:	18002d26 	beq	r3,zero,15cc8 <__subsf3+0x454>
   15c14:	0108303a 	nor	r4,zero,r4
   15c18:	20000a26 	beq	r4,zero,15c44 <__subsf3+0x3d0>
   15c1c:	01403fc4 	movi	r5,255
   15c20:	31402926 	beq	r6,r5,15cc8 <__subsf3+0x454>
   15c24:	014006c4 	movi	r5,27
   15c28:	29004716 	blt	r5,r4,15d48 <__subsf3+0x4d4>
   15c2c:	01400804 	movi	r5,32
   15c30:	290bc83a 	sub	r5,r5,r4
   15c34:	194a983a 	sll	r5,r3,r5
   15c38:	1908d83a 	srl	r4,r3,r4
   15c3c:	2806c03a 	cmpne	r3,r5,zero
   15c40:	20c6b03a 	or	r3,r4,r3
   15c44:	19c7883a 	add	r3,r3,r7
   15c48:	3021883a 	mov	r16,r6
   15c4c:	003f7c06 	br	15a40 <_gp+0xffff19e0>
   15c50:	1800111e 	bne	r3,zero,15c98 <__subsf3+0x424>
   15c54:	38003326 	beq	r7,zero,15d24 <__subsf3+0x4b0>
   15c58:	3807883a 	mov	r3,r7
   15c5c:	1023883a 	mov	r17,r2
   15c60:	04003fc4 	movi	r16,255
   15c64:	003f1c06 	br	158d8 <_gp+0xffff1878>
   15c68:	01403fc4 	movi	r5,255
   15c6c:	31401626 	beq	r6,r5,15cc8 <__subsf3+0x454>
   15c70:	0109c83a 	sub	r4,zero,r4
   15c74:	18c10034 	orhi	r3,r3,1024
   15c78:	003fea06 	br	15c24 <_gp+0xffff1bc4>
   15c7c:	383f1626 	beq	r7,zero,158d8 <_gp+0xffff1878>
   15c80:	19c9c83a 	sub	r4,r3,r7
   15c84:	2141002c 	andhi	r5,r4,1024
   15c88:	283f5026 	beq	r5,zero,159cc <_gp+0xffff196c>
   15c8c:	38c7c83a 	sub	r3,r7,r3
   15c90:	1023883a 	mov	r17,r2
   15c94:	003f1006 	br	158d8 <_gp+0xffff1878>
   15c98:	38001b26 	beq	r7,zero,15d08 <__subsf3+0x494>
   15c9c:	1806d0fa 	srli	r3,r3,3
   15ca0:	1900102c 	andhi	r4,r3,64
   15ca4:	20000526 	beq	r4,zero,15cbc <__subsf3+0x448>
   15ca8:	380ed0fa 	srli	r7,r7,3
   15cac:	3900102c 	andhi	r4,r7,64
   15cb0:	2000021e 	bne	r4,zero,15cbc <__subsf3+0x448>
   15cb4:	3807883a 	mov	r3,r7
   15cb8:	1023883a 	mov	r17,r2
   15cbc:	180690fa 	slli	r3,r3,3
   15cc0:	04003fc4 	movi	r16,255
   15cc4:	003f0406 	br	158d8 <_gp+0xffff1878>
   15cc8:	3807883a 	mov	r3,r7
   15ccc:	3021883a 	mov	r16,r6
   15cd0:	003f0106 	br	158d8 <_gp+0xffff1878>
   15cd4:	18001726 	beq	r3,zero,15d34 <__subsf3+0x4c0>
   15cd8:	38000b26 	beq	r7,zero,15d08 <__subsf3+0x494>
   15cdc:	1806d0fa 	srli	r3,r3,3
   15ce0:	1900102c 	andhi	r4,r3,64
   15ce4:	20000426 	beq	r4,zero,15cf8 <__subsf3+0x484>
   15ce8:	380ed0fa 	srli	r7,r7,3
   15cec:	3900102c 	andhi	r4,r7,64
   15cf0:	2000011e 	bne	r4,zero,15cf8 <__subsf3+0x484>
   15cf4:	3807883a 	mov	r3,r7
   15cf8:	180690fa 	slli	r3,r3,3
   15cfc:	1023883a 	mov	r17,r2
   15d00:	04003fc4 	movi	r16,255
   15d04:	003ef406 	br	158d8 <_gp+0xffff1878>
   15d08:	04003fc4 	movi	r16,255
   15d0c:	003ef206 	br	158d8 <_gp+0xffff1878>
   15d10:	00c00044 	movi	r3,1
   15d14:	003f9606 	br	15b70 <_gp+0xffff1b10>
   15d18:	000b883a 	mov	r5,zero
   15d1c:	0005883a 	mov	r2,zero
   15d20:	003f3506 	br	159f8 <_gp+0xffff1998>
   15d24:	01402034 	movhi	r5,128
   15d28:	297fffc4 	addi	r5,r5,-1
   15d2c:	0005883a 	mov	r2,zero
   15d30:	003f2f06 	br	159f0 <_gp+0xffff1990>
   15d34:	3807883a 	mov	r3,r7
   15d38:	04003fc4 	movi	r16,255
   15d3c:	003ee606 	br	158d8 <_gp+0xffff1878>
   15d40:	3807883a 	mov	r3,r7
   15d44:	003ee406 	br	158d8 <_gp+0xffff1878>
   15d48:	00c00044 	movi	r3,1
   15d4c:	003fbd06 	br	15c44 <_gp+0xffff1be4>
   15d50:	0005883a 	mov	r2,zero
   15d54:	003f2806 	br	159f8 <_gp+0xffff1998>

00015d58 <__fixsfsi>:
   15d58:	200ad5fa 	srli	r5,r4,23
   15d5c:	00c02034 	movhi	r3,128
   15d60:	18ffffc4 	addi	r3,r3,-1
   15d64:	29403fcc 	andi	r5,r5,255
   15d68:	00801f84 	movi	r2,126
   15d6c:	1906703a 	and	r3,r3,r4
   15d70:	2008d7fa 	srli	r4,r4,31
   15d74:	11400e0e 	bge	r2,r5,15db0 <__fixsfsi+0x58>
   15d78:	00802744 	movi	r2,157
   15d7c:	11400816 	blt	r2,r5,15da0 <__fixsfsi+0x48>
   15d80:	00802544 	movi	r2,149
   15d84:	18c02034 	orhi	r3,r3,128
   15d88:	11400b0e 	bge	r2,r5,15db8 <__fixsfsi+0x60>
   15d8c:	28bfda84 	addi	r2,r5,-150
   15d90:	1884983a 	sll	r2,r3,r2
   15d94:	20000726 	beq	r4,zero,15db4 <__fixsfsi+0x5c>
   15d98:	0085c83a 	sub	r2,zero,r2
   15d9c:	f800283a 	ret
   15da0:	00a00034 	movhi	r2,32768
   15da4:	10bfffc4 	addi	r2,r2,-1
   15da8:	2085883a 	add	r2,r4,r2
   15dac:	f800283a 	ret
   15db0:	0005883a 	mov	r2,zero
   15db4:	f800283a 	ret
   15db8:	00802584 	movi	r2,150
   15dbc:	1145c83a 	sub	r2,r2,r5
   15dc0:	1884d83a 	srl	r2,r3,r2
   15dc4:	003ff306 	br	15d94 <_gp+0xffff1d34>

00015dc8 <__floatsisf>:
   15dc8:	defffd04 	addi	sp,sp,-12
   15dcc:	dfc00215 	stw	ra,8(sp)
   15dd0:	dc400115 	stw	r17,4(sp)
   15dd4:	dc000015 	stw	r16,0(sp)
   15dd8:	20003526 	beq	r4,zero,15eb0 <__floatsisf+0xe8>
   15ddc:	2021883a 	mov	r16,r4
   15de0:	2022d7fa 	srli	r17,r4,31
   15de4:	20003616 	blt	r4,zero,15ec0 <__floatsisf+0xf8>
   15de8:	8009883a 	mov	r4,r16
   15dec:	00186b40 	call	186b4 <__clzsi2>
   15df0:	00c02784 	movi	r3,158
   15df4:	1887c83a 	sub	r3,r3,r2
   15df8:	01002584 	movi	r4,150
   15dfc:	20c01416 	blt	r4,r3,15e50 <__floatsisf+0x88>
   15e00:	20c9c83a 	sub	r4,r4,r3
   15e04:	8120983a 	sll	r16,r16,r4
   15e08:	00802034 	movhi	r2,128
   15e0c:	10bfffc4 	addi	r2,r2,-1
   15e10:	8809883a 	mov	r4,r17
   15e14:	80a0703a 	and	r16,r16,r2
   15e18:	18803fcc 	andi	r2,r3,255
   15e1c:	100695fa 	slli	r3,r2,23
   15e20:	20803fcc 	andi	r2,r4,255
   15e24:	100897fa 	slli	r4,r2,31
   15e28:	00802034 	movhi	r2,128
   15e2c:	10bfffc4 	addi	r2,r2,-1
   15e30:	8084703a 	and	r2,r16,r2
   15e34:	10c4b03a 	or	r2,r2,r3
   15e38:	1104b03a 	or	r2,r2,r4
   15e3c:	dfc00217 	ldw	ra,8(sp)
   15e40:	dc400117 	ldw	r17,4(sp)
   15e44:	dc000017 	ldw	r16,0(sp)
   15e48:	dec00304 	addi	sp,sp,12
   15e4c:	f800283a 	ret
   15e50:	01002644 	movi	r4,153
   15e54:	20c01c16 	blt	r4,r3,15ec8 <__floatsisf+0x100>
   15e58:	20c9c83a 	sub	r4,r4,r3
   15e5c:	8120983a 	sll	r16,r16,r4
   15e60:	013f0034 	movhi	r4,64512
   15e64:	213fffc4 	addi	r4,r4,-1
   15e68:	814001cc 	andi	r5,r16,7
   15e6c:	8108703a 	and	r4,r16,r4
   15e70:	28000426 	beq	r5,zero,15e84 <__floatsisf+0xbc>
   15e74:	840003cc 	andi	r16,r16,15
   15e78:	01400104 	movi	r5,4
   15e7c:	81400126 	beq	r16,r5,15e84 <__floatsisf+0xbc>
   15e80:	2149883a 	add	r4,r4,r5
   15e84:	2141002c 	andhi	r5,r4,1024
   15e88:	28000526 	beq	r5,zero,15ea0 <__floatsisf+0xd8>
   15e8c:	00c027c4 	movi	r3,159
   15e90:	1887c83a 	sub	r3,r3,r2
   15e94:	00bf0034 	movhi	r2,64512
   15e98:	10bfffc4 	addi	r2,r2,-1
   15e9c:	2088703a 	and	r4,r4,r2
   15ea0:	202091ba 	slli	r16,r4,6
   15ea4:	8809883a 	mov	r4,r17
   15ea8:	8020d27a 	srli	r16,r16,9
   15eac:	003fda06 	br	15e18 <_gp+0xffff1db8>
   15eb0:	0009883a 	mov	r4,zero
   15eb4:	0007883a 	mov	r3,zero
   15eb8:	0021883a 	mov	r16,zero
   15ebc:	003fd606 	br	15e18 <_gp+0xffff1db8>
   15ec0:	0121c83a 	sub	r16,zero,r4
   15ec4:	003fc806 	br	15de8 <_gp+0xffff1d88>
   15ec8:	01002e44 	movi	r4,185
   15ecc:	20c9c83a 	sub	r4,r4,r3
   15ed0:	01400144 	movi	r5,5
   15ed4:	8108983a 	sll	r4,r16,r4
   15ed8:	288bc83a 	sub	r5,r5,r2
   15edc:	8160d83a 	srl	r16,r16,r5
   15ee0:	2008c03a 	cmpne	r4,r4,zero
   15ee4:	8120b03a 	or	r16,r16,r4
   15ee8:	003fdd06 	br	15e60 <_gp+0xffff1e00>

00015eec <__adddf3>:
   15eec:	02c00434 	movhi	r11,16
   15ef0:	5affffc4 	addi	r11,r11,-1
   15ef4:	2806d7fa 	srli	r3,r5,31
   15ef8:	2ad4703a 	and	r10,r5,r11
   15efc:	3ad2703a 	and	r9,r7,r11
   15f00:	3804d53a 	srli	r2,r7,20
   15f04:	3018d77a 	srli	r12,r6,29
   15f08:	280ad53a 	srli	r5,r5,20
   15f0c:	501490fa 	slli	r10,r10,3
   15f10:	2010d77a 	srli	r8,r4,29
   15f14:	481290fa 	slli	r9,r9,3
   15f18:	380ed7fa 	srli	r7,r7,31
   15f1c:	defffb04 	addi	sp,sp,-20
   15f20:	dc800215 	stw	r18,8(sp)
   15f24:	dc400115 	stw	r17,4(sp)
   15f28:	dc000015 	stw	r16,0(sp)
   15f2c:	dfc00415 	stw	ra,16(sp)
   15f30:	dcc00315 	stw	r19,12(sp)
   15f34:	1c803fcc 	andi	r18,r3,255
   15f38:	2c01ffcc 	andi	r16,r5,2047
   15f3c:	5210b03a 	or	r8,r10,r8
   15f40:	202290fa 	slli	r17,r4,3
   15f44:	1081ffcc 	andi	r2,r2,2047
   15f48:	4b12b03a 	or	r9,r9,r12
   15f4c:	300c90fa 	slli	r6,r6,3
   15f50:	91c07526 	beq	r18,r7,16128 <__adddf3+0x23c>
   15f54:	8087c83a 	sub	r3,r16,r2
   15f58:	00c0ab0e 	bge	zero,r3,16208 <__adddf3+0x31c>
   15f5c:	10002a1e 	bne	r2,zero,16008 <__adddf3+0x11c>
   15f60:	4984b03a 	or	r2,r9,r6
   15f64:	1000961e 	bne	r2,zero,161c0 <__adddf3+0x2d4>
   15f68:	888001cc 	andi	r2,r17,7
   15f6c:	10000726 	beq	r2,zero,15f8c <__adddf3+0xa0>
   15f70:	888003cc 	andi	r2,r17,15
   15f74:	00c00104 	movi	r3,4
   15f78:	10c00426 	beq	r2,r3,15f8c <__adddf3+0xa0>
   15f7c:	88c7883a 	add	r3,r17,r3
   15f80:	1c63803a 	cmpltu	r17,r3,r17
   15f84:	4451883a 	add	r8,r8,r17
   15f88:	1823883a 	mov	r17,r3
   15f8c:	4080202c 	andhi	r2,r8,128
   15f90:	10005926 	beq	r2,zero,160f8 <__adddf3+0x20c>
   15f94:	84000044 	addi	r16,r16,1
   15f98:	0081ffc4 	movi	r2,2047
   15f9c:	8080ba26 	beq	r16,r2,16288 <__adddf3+0x39c>
   15fa0:	00bfe034 	movhi	r2,65408
   15fa4:	10bfffc4 	addi	r2,r2,-1
   15fa8:	4090703a 	and	r8,r8,r2
   15fac:	4004977a 	slli	r2,r8,29
   15fb0:	4010927a 	slli	r8,r8,9
   15fb4:	8822d0fa 	srli	r17,r17,3
   15fb8:	8401ffcc 	andi	r16,r16,2047
   15fbc:	4010d33a 	srli	r8,r8,12
   15fc0:	9007883a 	mov	r3,r18
   15fc4:	1444b03a 	or	r2,r2,r17
   15fc8:	8401ffcc 	andi	r16,r16,2047
   15fcc:	8020953a 	slli	r16,r16,20
   15fd0:	18c03fcc 	andi	r3,r3,255
   15fd4:	01000434 	movhi	r4,16
   15fd8:	213fffc4 	addi	r4,r4,-1
   15fdc:	180697fa 	slli	r3,r3,31
   15fe0:	4110703a 	and	r8,r8,r4
   15fe4:	4410b03a 	or	r8,r8,r16
   15fe8:	40c6b03a 	or	r3,r8,r3
   15fec:	dfc00417 	ldw	ra,16(sp)
   15ff0:	dcc00317 	ldw	r19,12(sp)
   15ff4:	dc800217 	ldw	r18,8(sp)
   15ff8:	dc400117 	ldw	r17,4(sp)
   15ffc:	dc000017 	ldw	r16,0(sp)
   16000:	dec00504 	addi	sp,sp,20
   16004:	f800283a 	ret
   16008:	0081ffc4 	movi	r2,2047
   1600c:	80bfd626 	beq	r16,r2,15f68 <_gp+0xffff1f08>
   16010:	4a402034 	orhi	r9,r9,128
   16014:	00800e04 	movi	r2,56
   16018:	10c09f16 	blt	r2,r3,16298 <__adddf3+0x3ac>
   1601c:	008007c4 	movi	r2,31
   16020:	10c0c216 	blt	r2,r3,1632c <__adddf3+0x440>
   16024:	00800804 	movi	r2,32
   16028:	10c5c83a 	sub	r2,r2,r3
   1602c:	488a983a 	sll	r5,r9,r2
   16030:	30c8d83a 	srl	r4,r6,r3
   16034:	3084983a 	sll	r2,r6,r2
   16038:	48c6d83a 	srl	r3,r9,r3
   1603c:	290cb03a 	or	r6,r5,r4
   16040:	1004c03a 	cmpne	r2,r2,zero
   16044:	308cb03a 	or	r6,r6,r2
   16048:	898dc83a 	sub	r6,r17,r6
   1604c:	89a3803a 	cmpltu	r17,r17,r6
   16050:	40d1c83a 	sub	r8,r8,r3
   16054:	4451c83a 	sub	r8,r8,r17
   16058:	3023883a 	mov	r17,r6
   1605c:	4080202c 	andhi	r2,r8,128
   16060:	10002326 	beq	r2,zero,160f0 <__adddf3+0x204>
   16064:	04c02034 	movhi	r19,128
   16068:	9cffffc4 	addi	r19,r19,-1
   1606c:	44e6703a 	and	r19,r8,r19
   16070:	98007626 	beq	r19,zero,1624c <__adddf3+0x360>
   16074:	9809883a 	mov	r4,r19
   16078:	00186b40 	call	186b4 <__clzsi2>
   1607c:	10fffe04 	addi	r3,r2,-8
   16080:	010007c4 	movi	r4,31
   16084:	20c07716 	blt	r4,r3,16264 <__adddf3+0x378>
   16088:	00800804 	movi	r2,32
   1608c:	10c5c83a 	sub	r2,r2,r3
   16090:	8884d83a 	srl	r2,r17,r2
   16094:	98d0983a 	sll	r8,r19,r3
   16098:	88e2983a 	sll	r17,r17,r3
   1609c:	1204b03a 	or	r2,r2,r8
   160a0:	1c007416 	blt	r3,r16,16274 <__adddf3+0x388>
   160a4:	1c21c83a 	sub	r16,r3,r16
   160a8:	82000044 	addi	r8,r16,1
   160ac:	00c007c4 	movi	r3,31
   160b0:	1a009116 	blt	r3,r8,162f8 <__adddf3+0x40c>
   160b4:	00c00804 	movi	r3,32
   160b8:	1a07c83a 	sub	r3,r3,r8
   160bc:	8a08d83a 	srl	r4,r17,r8
   160c0:	88e2983a 	sll	r17,r17,r3
   160c4:	10c6983a 	sll	r3,r2,r3
   160c8:	1210d83a 	srl	r8,r2,r8
   160cc:	8804c03a 	cmpne	r2,r17,zero
   160d0:	1906b03a 	or	r3,r3,r4
   160d4:	18a2b03a 	or	r17,r3,r2
   160d8:	0021883a 	mov	r16,zero
   160dc:	003fa206 	br	15f68 <_gp+0xffff1f08>
   160e0:	1890b03a 	or	r8,r3,r2
   160e4:	40017d26 	beq	r8,zero,166dc <__adddf3+0x7f0>
   160e8:	1011883a 	mov	r8,r2
   160ec:	1823883a 	mov	r17,r3
   160f0:	888001cc 	andi	r2,r17,7
   160f4:	103f9e1e 	bne	r2,zero,15f70 <_gp+0xffff1f10>
   160f8:	4004977a 	slli	r2,r8,29
   160fc:	8822d0fa 	srli	r17,r17,3
   16100:	4010d0fa 	srli	r8,r8,3
   16104:	9007883a 	mov	r3,r18
   16108:	1444b03a 	or	r2,r2,r17
   1610c:	0101ffc4 	movi	r4,2047
   16110:	81002426 	beq	r16,r4,161a4 <__adddf3+0x2b8>
   16114:	8120703a 	and	r16,r16,r4
   16118:	01000434 	movhi	r4,16
   1611c:	213fffc4 	addi	r4,r4,-1
   16120:	4110703a 	and	r8,r8,r4
   16124:	003fa806 	br	15fc8 <_gp+0xffff1f68>
   16128:	8089c83a 	sub	r4,r16,r2
   1612c:	01005e0e 	bge	zero,r4,162a8 <__adddf3+0x3bc>
   16130:	10002b26 	beq	r2,zero,161e0 <__adddf3+0x2f4>
   16134:	0081ffc4 	movi	r2,2047
   16138:	80bf8b26 	beq	r16,r2,15f68 <_gp+0xffff1f08>
   1613c:	4a402034 	orhi	r9,r9,128
   16140:	00800e04 	movi	r2,56
   16144:	1100a40e 	bge	r2,r4,163d8 <__adddf3+0x4ec>
   16148:	498cb03a 	or	r6,r9,r6
   1614c:	300ac03a 	cmpne	r5,r6,zero
   16150:	0013883a 	mov	r9,zero
   16154:	2c4b883a 	add	r5,r5,r17
   16158:	2c63803a 	cmpltu	r17,r5,r17
   1615c:	4a11883a 	add	r8,r9,r8
   16160:	8a11883a 	add	r8,r17,r8
   16164:	2823883a 	mov	r17,r5
   16168:	4080202c 	andhi	r2,r8,128
   1616c:	103fe026 	beq	r2,zero,160f0 <_gp+0xffff2090>
   16170:	84000044 	addi	r16,r16,1
   16174:	0081ffc4 	movi	r2,2047
   16178:	8080d226 	beq	r16,r2,164c4 <__adddf3+0x5d8>
   1617c:	00bfe034 	movhi	r2,65408
   16180:	10bfffc4 	addi	r2,r2,-1
   16184:	4090703a 	and	r8,r8,r2
   16188:	880ad07a 	srli	r5,r17,1
   1618c:	400897fa 	slli	r4,r8,31
   16190:	88c0004c 	andi	r3,r17,1
   16194:	28e2b03a 	or	r17,r5,r3
   16198:	4010d07a 	srli	r8,r8,1
   1619c:	2462b03a 	or	r17,r4,r17
   161a0:	003f7106 	br	15f68 <_gp+0xffff1f08>
   161a4:	4088b03a 	or	r4,r8,r2
   161a8:	20014526 	beq	r4,zero,166c0 <__adddf3+0x7d4>
   161ac:	01000434 	movhi	r4,16
   161b0:	42000234 	orhi	r8,r8,8
   161b4:	213fffc4 	addi	r4,r4,-1
   161b8:	4110703a 	and	r8,r8,r4
   161bc:	003f8206 	br	15fc8 <_gp+0xffff1f68>
   161c0:	18ffffc4 	addi	r3,r3,-1
   161c4:	1800491e 	bne	r3,zero,162ec <__adddf3+0x400>
   161c8:	898bc83a 	sub	r5,r17,r6
   161cc:	8963803a 	cmpltu	r17,r17,r5
   161d0:	4251c83a 	sub	r8,r8,r9
   161d4:	4451c83a 	sub	r8,r8,r17
   161d8:	2823883a 	mov	r17,r5
   161dc:	003f9f06 	br	1605c <_gp+0xffff1ffc>
   161e0:	4984b03a 	or	r2,r9,r6
   161e4:	103f6026 	beq	r2,zero,15f68 <_gp+0xffff1f08>
   161e8:	213fffc4 	addi	r4,r4,-1
   161ec:	2000931e 	bne	r4,zero,1643c <__adddf3+0x550>
   161f0:	898d883a 	add	r6,r17,r6
   161f4:	3463803a 	cmpltu	r17,r6,r17
   161f8:	4251883a 	add	r8,r8,r9
   161fc:	8a11883a 	add	r8,r17,r8
   16200:	3023883a 	mov	r17,r6
   16204:	003fd806 	br	16168 <_gp+0xffff2108>
   16208:	1800541e 	bne	r3,zero,1635c <__adddf3+0x470>
   1620c:	80800044 	addi	r2,r16,1
   16210:	1081ffcc 	andi	r2,r2,2047
   16214:	00c00044 	movi	r3,1
   16218:	1880a00e 	bge	r3,r2,1649c <__adddf3+0x5b0>
   1621c:	8989c83a 	sub	r4,r17,r6
   16220:	8905803a 	cmpltu	r2,r17,r4
   16224:	4267c83a 	sub	r19,r8,r9
   16228:	98a7c83a 	sub	r19,r19,r2
   1622c:	9880202c 	andhi	r2,r19,128
   16230:	10006326 	beq	r2,zero,163c0 <__adddf3+0x4d4>
   16234:	3463c83a 	sub	r17,r6,r17
   16238:	4a07c83a 	sub	r3,r9,r8
   1623c:	344d803a 	cmpltu	r6,r6,r17
   16240:	19a7c83a 	sub	r19,r3,r6
   16244:	3825883a 	mov	r18,r7
   16248:	983f8a1e 	bne	r19,zero,16074 <_gp+0xffff2014>
   1624c:	8809883a 	mov	r4,r17
   16250:	00186b40 	call	186b4 <__clzsi2>
   16254:	10800804 	addi	r2,r2,32
   16258:	10fffe04 	addi	r3,r2,-8
   1625c:	010007c4 	movi	r4,31
   16260:	20ff890e 	bge	r4,r3,16088 <_gp+0xffff2028>
   16264:	10bff604 	addi	r2,r2,-40
   16268:	8884983a 	sll	r2,r17,r2
   1626c:	0023883a 	mov	r17,zero
   16270:	1c3f8c0e 	bge	r3,r16,160a4 <_gp+0xffff2044>
   16274:	023fe034 	movhi	r8,65408
   16278:	423fffc4 	addi	r8,r8,-1
   1627c:	80e1c83a 	sub	r16,r16,r3
   16280:	1210703a 	and	r8,r2,r8
   16284:	003f3806 	br	15f68 <_gp+0xffff1f08>
   16288:	9007883a 	mov	r3,r18
   1628c:	0011883a 	mov	r8,zero
   16290:	0005883a 	mov	r2,zero
   16294:	003f4c06 	br	15fc8 <_gp+0xffff1f68>
   16298:	498cb03a 	or	r6,r9,r6
   1629c:	300cc03a 	cmpne	r6,r6,zero
   162a0:	0007883a 	mov	r3,zero
   162a4:	003f6806 	br	16048 <_gp+0xffff1fe8>
   162a8:	20009c1e 	bne	r4,zero,1651c <__adddf3+0x630>
   162ac:	80800044 	addi	r2,r16,1
   162b0:	1141ffcc 	andi	r5,r2,2047
   162b4:	01000044 	movi	r4,1
   162b8:	2140670e 	bge	r4,r5,16458 <__adddf3+0x56c>
   162bc:	0101ffc4 	movi	r4,2047
   162c0:	11007f26 	beq	r2,r4,164c0 <__adddf3+0x5d4>
   162c4:	898d883a 	add	r6,r17,r6
   162c8:	4247883a 	add	r3,r8,r9
   162cc:	3451803a 	cmpltu	r8,r6,r17
   162d0:	40d1883a 	add	r8,r8,r3
   162d4:	402297fa 	slli	r17,r8,31
   162d8:	300cd07a 	srli	r6,r6,1
   162dc:	4010d07a 	srli	r8,r8,1
   162e0:	1021883a 	mov	r16,r2
   162e4:	89a2b03a 	or	r17,r17,r6
   162e8:	003f1f06 	br	15f68 <_gp+0xffff1f08>
   162ec:	0081ffc4 	movi	r2,2047
   162f0:	80bf481e 	bne	r16,r2,16014 <_gp+0xffff1fb4>
   162f4:	003f1c06 	br	15f68 <_gp+0xffff1f08>
   162f8:	843ff844 	addi	r16,r16,-31
   162fc:	01000804 	movi	r4,32
   16300:	1406d83a 	srl	r3,r2,r16
   16304:	41005026 	beq	r8,r4,16448 <__adddf3+0x55c>
   16308:	01001004 	movi	r4,64
   1630c:	2211c83a 	sub	r8,r4,r8
   16310:	1204983a 	sll	r2,r2,r8
   16314:	88a2b03a 	or	r17,r17,r2
   16318:	8822c03a 	cmpne	r17,r17,zero
   1631c:	1c62b03a 	or	r17,r3,r17
   16320:	0011883a 	mov	r8,zero
   16324:	0021883a 	mov	r16,zero
   16328:	003f7106 	br	160f0 <_gp+0xffff2090>
   1632c:	193ff804 	addi	r4,r3,-32
   16330:	00800804 	movi	r2,32
   16334:	4908d83a 	srl	r4,r9,r4
   16338:	18804526 	beq	r3,r2,16450 <__adddf3+0x564>
   1633c:	00801004 	movi	r2,64
   16340:	10c5c83a 	sub	r2,r2,r3
   16344:	4886983a 	sll	r3,r9,r2
   16348:	198cb03a 	or	r6,r3,r6
   1634c:	300cc03a 	cmpne	r6,r6,zero
   16350:	218cb03a 	or	r6,r4,r6
   16354:	0007883a 	mov	r3,zero
   16358:	003f3b06 	br	16048 <_gp+0xffff1fe8>
   1635c:	80002a26 	beq	r16,zero,16408 <__adddf3+0x51c>
   16360:	0101ffc4 	movi	r4,2047
   16364:	11006826 	beq	r2,r4,16508 <__adddf3+0x61c>
   16368:	00c7c83a 	sub	r3,zero,r3
   1636c:	42002034 	orhi	r8,r8,128
   16370:	01000e04 	movi	r4,56
   16374:	20c07c16 	blt	r4,r3,16568 <__adddf3+0x67c>
   16378:	010007c4 	movi	r4,31
   1637c:	20c0da16 	blt	r4,r3,166e8 <__adddf3+0x7fc>
   16380:	01000804 	movi	r4,32
   16384:	20c9c83a 	sub	r4,r4,r3
   16388:	4114983a 	sll	r10,r8,r4
   1638c:	88cad83a 	srl	r5,r17,r3
   16390:	8908983a 	sll	r4,r17,r4
   16394:	40c6d83a 	srl	r3,r8,r3
   16398:	5162b03a 	or	r17,r10,r5
   1639c:	2008c03a 	cmpne	r4,r4,zero
   163a0:	8922b03a 	or	r17,r17,r4
   163a4:	3463c83a 	sub	r17,r6,r17
   163a8:	48c7c83a 	sub	r3,r9,r3
   163ac:	344d803a 	cmpltu	r6,r6,r17
   163b0:	1991c83a 	sub	r8,r3,r6
   163b4:	1021883a 	mov	r16,r2
   163b8:	3825883a 	mov	r18,r7
   163bc:	003f2706 	br	1605c <_gp+0xffff1ffc>
   163c0:	24d0b03a 	or	r8,r4,r19
   163c4:	40001b1e 	bne	r8,zero,16434 <__adddf3+0x548>
   163c8:	0005883a 	mov	r2,zero
   163cc:	0007883a 	mov	r3,zero
   163d0:	0021883a 	mov	r16,zero
   163d4:	003f4d06 	br	1610c <_gp+0xffff20ac>
   163d8:	008007c4 	movi	r2,31
   163dc:	11003c16 	blt	r2,r4,164d0 <__adddf3+0x5e4>
   163e0:	00800804 	movi	r2,32
   163e4:	1105c83a 	sub	r2,r2,r4
   163e8:	488e983a 	sll	r7,r9,r2
   163ec:	310ad83a 	srl	r5,r6,r4
   163f0:	3084983a 	sll	r2,r6,r2
   163f4:	4912d83a 	srl	r9,r9,r4
   163f8:	394ab03a 	or	r5,r7,r5
   163fc:	1004c03a 	cmpne	r2,r2,zero
   16400:	288ab03a 	or	r5,r5,r2
   16404:	003f5306 	br	16154 <_gp+0xffff20f4>
   16408:	4448b03a 	or	r4,r8,r17
   1640c:	20003e26 	beq	r4,zero,16508 <__adddf3+0x61c>
   16410:	00c6303a 	nor	r3,zero,r3
   16414:	18003a1e 	bne	r3,zero,16500 <__adddf3+0x614>
   16418:	3463c83a 	sub	r17,r6,r17
   1641c:	4a07c83a 	sub	r3,r9,r8
   16420:	344d803a 	cmpltu	r6,r6,r17
   16424:	1991c83a 	sub	r8,r3,r6
   16428:	1021883a 	mov	r16,r2
   1642c:	3825883a 	mov	r18,r7
   16430:	003f0a06 	br	1605c <_gp+0xffff1ffc>
   16434:	2023883a 	mov	r17,r4
   16438:	003f0d06 	br	16070 <_gp+0xffff2010>
   1643c:	0081ffc4 	movi	r2,2047
   16440:	80bf3f1e 	bne	r16,r2,16140 <_gp+0xffff20e0>
   16444:	003ec806 	br	15f68 <_gp+0xffff1f08>
   16448:	0005883a 	mov	r2,zero
   1644c:	003fb106 	br	16314 <_gp+0xffff22b4>
   16450:	0007883a 	mov	r3,zero
   16454:	003fbc06 	br	16348 <_gp+0xffff22e8>
   16458:	4444b03a 	or	r2,r8,r17
   1645c:	8000871e 	bne	r16,zero,1667c <__adddf3+0x790>
   16460:	1000ba26 	beq	r2,zero,1674c <__adddf3+0x860>
   16464:	4984b03a 	or	r2,r9,r6
   16468:	103ebf26 	beq	r2,zero,15f68 <_gp+0xffff1f08>
   1646c:	8985883a 	add	r2,r17,r6
   16470:	4247883a 	add	r3,r8,r9
   16474:	1451803a 	cmpltu	r8,r2,r17
   16478:	40d1883a 	add	r8,r8,r3
   1647c:	40c0202c 	andhi	r3,r8,128
   16480:	1023883a 	mov	r17,r2
   16484:	183f1a26 	beq	r3,zero,160f0 <_gp+0xffff2090>
   16488:	00bfe034 	movhi	r2,65408
   1648c:	10bfffc4 	addi	r2,r2,-1
   16490:	2021883a 	mov	r16,r4
   16494:	4090703a 	and	r8,r8,r2
   16498:	003eb306 	br	15f68 <_gp+0xffff1f08>
   1649c:	4444b03a 	or	r2,r8,r17
   164a0:	8000291e 	bne	r16,zero,16548 <__adddf3+0x65c>
   164a4:	10004b1e 	bne	r2,zero,165d4 <__adddf3+0x6e8>
   164a8:	4990b03a 	or	r8,r9,r6
   164ac:	40008b26 	beq	r8,zero,166dc <__adddf3+0x7f0>
   164b0:	4811883a 	mov	r8,r9
   164b4:	3023883a 	mov	r17,r6
   164b8:	3825883a 	mov	r18,r7
   164bc:	003eaa06 	br	15f68 <_gp+0xffff1f08>
   164c0:	1021883a 	mov	r16,r2
   164c4:	0011883a 	mov	r8,zero
   164c8:	0005883a 	mov	r2,zero
   164cc:	003f0f06 	br	1610c <_gp+0xffff20ac>
   164d0:	217ff804 	addi	r5,r4,-32
   164d4:	00800804 	movi	r2,32
   164d8:	494ad83a 	srl	r5,r9,r5
   164dc:	20807d26 	beq	r4,r2,166d4 <__adddf3+0x7e8>
   164e0:	00801004 	movi	r2,64
   164e4:	1109c83a 	sub	r4,r2,r4
   164e8:	4912983a 	sll	r9,r9,r4
   164ec:	498cb03a 	or	r6,r9,r6
   164f0:	300cc03a 	cmpne	r6,r6,zero
   164f4:	298ab03a 	or	r5,r5,r6
   164f8:	0013883a 	mov	r9,zero
   164fc:	003f1506 	br	16154 <_gp+0xffff20f4>
   16500:	0101ffc4 	movi	r4,2047
   16504:	113f9a1e 	bne	r2,r4,16370 <_gp+0xffff2310>
   16508:	4811883a 	mov	r8,r9
   1650c:	3023883a 	mov	r17,r6
   16510:	1021883a 	mov	r16,r2
   16514:	3825883a 	mov	r18,r7
   16518:	003e9306 	br	15f68 <_gp+0xffff1f08>
   1651c:	8000161e 	bne	r16,zero,16578 <__adddf3+0x68c>
   16520:	444ab03a 	or	r5,r8,r17
   16524:	28005126 	beq	r5,zero,1666c <__adddf3+0x780>
   16528:	0108303a 	nor	r4,zero,r4
   1652c:	20004d1e 	bne	r4,zero,16664 <__adddf3+0x778>
   16530:	89a3883a 	add	r17,r17,r6
   16534:	4253883a 	add	r9,r8,r9
   16538:	898d803a 	cmpltu	r6,r17,r6
   1653c:	3251883a 	add	r8,r6,r9
   16540:	1021883a 	mov	r16,r2
   16544:	003f0806 	br	16168 <_gp+0xffff2108>
   16548:	1000301e 	bne	r2,zero,1660c <__adddf3+0x720>
   1654c:	4984b03a 	or	r2,r9,r6
   16550:	10007126 	beq	r2,zero,16718 <__adddf3+0x82c>
   16554:	4811883a 	mov	r8,r9
   16558:	3023883a 	mov	r17,r6
   1655c:	3825883a 	mov	r18,r7
   16560:	0401ffc4 	movi	r16,2047
   16564:	003e8006 	br	15f68 <_gp+0xffff1f08>
   16568:	4462b03a 	or	r17,r8,r17
   1656c:	8822c03a 	cmpne	r17,r17,zero
   16570:	0007883a 	mov	r3,zero
   16574:	003f8b06 	br	163a4 <_gp+0xffff2344>
   16578:	0141ffc4 	movi	r5,2047
   1657c:	11403b26 	beq	r2,r5,1666c <__adddf3+0x780>
   16580:	0109c83a 	sub	r4,zero,r4
   16584:	42002034 	orhi	r8,r8,128
   16588:	01400e04 	movi	r5,56
   1658c:	29006716 	blt	r5,r4,1672c <__adddf3+0x840>
   16590:	014007c4 	movi	r5,31
   16594:	29007016 	blt	r5,r4,16758 <__adddf3+0x86c>
   16598:	01400804 	movi	r5,32
   1659c:	290bc83a 	sub	r5,r5,r4
   165a0:	4154983a 	sll	r10,r8,r5
   165a4:	890ed83a 	srl	r7,r17,r4
   165a8:	894a983a 	sll	r5,r17,r5
   165ac:	4108d83a 	srl	r4,r8,r4
   165b0:	51e2b03a 	or	r17,r10,r7
   165b4:	280ac03a 	cmpne	r5,r5,zero
   165b8:	8962b03a 	or	r17,r17,r5
   165bc:	89a3883a 	add	r17,r17,r6
   165c0:	2253883a 	add	r9,r4,r9
   165c4:	898d803a 	cmpltu	r6,r17,r6
   165c8:	3251883a 	add	r8,r6,r9
   165cc:	1021883a 	mov	r16,r2
   165d0:	003ee506 	br	16168 <_gp+0xffff2108>
   165d4:	4984b03a 	or	r2,r9,r6
   165d8:	103e6326 	beq	r2,zero,15f68 <_gp+0xffff1f08>
   165dc:	8987c83a 	sub	r3,r17,r6
   165e0:	88c9803a 	cmpltu	r4,r17,r3
   165e4:	4245c83a 	sub	r2,r8,r9
   165e8:	1105c83a 	sub	r2,r2,r4
   165ec:	1100202c 	andhi	r4,r2,128
   165f0:	203ebb26 	beq	r4,zero,160e0 <_gp+0xffff2080>
   165f4:	3463c83a 	sub	r17,r6,r17
   165f8:	4a07c83a 	sub	r3,r9,r8
   165fc:	344d803a 	cmpltu	r6,r6,r17
   16600:	1991c83a 	sub	r8,r3,r6
   16604:	3825883a 	mov	r18,r7
   16608:	003e5706 	br	15f68 <_gp+0xffff1f08>
   1660c:	4984b03a 	or	r2,r9,r6
   16610:	10002e26 	beq	r2,zero,166cc <__adddf3+0x7e0>
   16614:	4004d0fa 	srli	r2,r8,3
   16618:	8822d0fa 	srli	r17,r17,3
   1661c:	4010977a 	slli	r8,r8,29
   16620:	10c0022c 	andhi	r3,r2,8
   16624:	4462b03a 	or	r17,r8,r17
   16628:	18000826 	beq	r3,zero,1664c <__adddf3+0x760>
   1662c:	4808d0fa 	srli	r4,r9,3
   16630:	20c0022c 	andhi	r3,r4,8
   16634:	1800051e 	bne	r3,zero,1664c <__adddf3+0x760>
   16638:	300cd0fa 	srli	r6,r6,3
   1663c:	4806977a 	slli	r3,r9,29
   16640:	2005883a 	mov	r2,r4
   16644:	3825883a 	mov	r18,r7
   16648:	19a2b03a 	or	r17,r3,r6
   1664c:	8810d77a 	srli	r8,r17,29
   16650:	100490fa 	slli	r2,r2,3
   16654:	882290fa 	slli	r17,r17,3
   16658:	0401ffc4 	movi	r16,2047
   1665c:	4090b03a 	or	r8,r8,r2
   16660:	003e4106 	br	15f68 <_gp+0xffff1f08>
   16664:	0141ffc4 	movi	r5,2047
   16668:	117fc71e 	bne	r2,r5,16588 <_gp+0xffff2528>
   1666c:	4811883a 	mov	r8,r9
   16670:	3023883a 	mov	r17,r6
   16674:	1021883a 	mov	r16,r2
   16678:	003e3b06 	br	15f68 <_gp+0xffff1f08>
   1667c:	10002f26 	beq	r2,zero,1673c <__adddf3+0x850>
   16680:	4984b03a 	or	r2,r9,r6
   16684:	10001126 	beq	r2,zero,166cc <__adddf3+0x7e0>
   16688:	4004d0fa 	srli	r2,r8,3
   1668c:	8822d0fa 	srli	r17,r17,3
   16690:	4010977a 	slli	r8,r8,29
   16694:	10c0022c 	andhi	r3,r2,8
   16698:	4462b03a 	or	r17,r8,r17
   1669c:	183feb26 	beq	r3,zero,1664c <_gp+0xffff25ec>
   166a0:	4808d0fa 	srli	r4,r9,3
   166a4:	20c0022c 	andhi	r3,r4,8
   166a8:	183fe81e 	bne	r3,zero,1664c <_gp+0xffff25ec>
   166ac:	300cd0fa 	srli	r6,r6,3
   166b0:	4806977a 	slli	r3,r9,29
   166b4:	2005883a 	mov	r2,r4
   166b8:	19a2b03a 	or	r17,r3,r6
   166bc:	003fe306 	br	1664c <_gp+0xffff25ec>
   166c0:	0011883a 	mov	r8,zero
   166c4:	0005883a 	mov	r2,zero
   166c8:	003e3f06 	br	15fc8 <_gp+0xffff1f68>
   166cc:	0401ffc4 	movi	r16,2047
   166d0:	003e2506 	br	15f68 <_gp+0xffff1f08>
   166d4:	0013883a 	mov	r9,zero
   166d8:	003f8406 	br	164ec <_gp+0xffff248c>
   166dc:	0005883a 	mov	r2,zero
   166e0:	0007883a 	mov	r3,zero
   166e4:	003e8906 	br	1610c <_gp+0xffff20ac>
   166e8:	197ff804 	addi	r5,r3,-32
   166ec:	01000804 	movi	r4,32
   166f0:	414ad83a 	srl	r5,r8,r5
   166f4:	19002426 	beq	r3,r4,16788 <__adddf3+0x89c>
   166f8:	01001004 	movi	r4,64
   166fc:	20c7c83a 	sub	r3,r4,r3
   16700:	40c6983a 	sll	r3,r8,r3
   16704:	1c46b03a 	or	r3,r3,r17
   16708:	1806c03a 	cmpne	r3,r3,zero
   1670c:	28e2b03a 	or	r17,r5,r3
   16710:	0007883a 	mov	r3,zero
   16714:	003f2306 	br	163a4 <_gp+0xffff2344>
   16718:	0007883a 	mov	r3,zero
   1671c:	5811883a 	mov	r8,r11
   16720:	00bfffc4 	movi	r2,-1
   16724:	0401ffc4 	movi	r16,2047
   16728:	003e7806 	br	1610c <_gp+0xffff20ac>
   1672c:	4462b03a 	or	r17,r8,r17
   16730:	8822c03a 	cmpne	r17,r17,zero
   16734:	0009883a 	mov	r4,zero
   16738:	003fa006 	br	165bc <_gp+0xffff255c>
   1673c:	4811883a 	mov	r8,r9
   16740:	3023883a 	mov	r17,r6
   16744:	0401ffc4 	movi	r16,2047
   16748:	003e0706 	br	15f68 <_gp+0xffff1f08>
   1674c:	4811883a 	mov	r8,r9
   16750:	3023883a 	mov	r17,r6
   16754:	003e0406 	br	15f68 <_gp+0xffff1f08>
   16758:	21fff804 	addi	r7,r4,-32
   1675c:	01400804 	movi	r5,32
   16760:	41ced83a 	srl	r7,r8,r7
   16764:	21400a26 	beq	r4,r5,16790 <__adddf3+0x8a4>
   16768:	01401004 	movi	r5,64
   1676c:	2909c83a 	sub	r4,r5,r4
   16770:	4108983a 	sll	r4,r8,r4
   16774:	2448b03a 	or	r4,r4,r17
   16778:	2008c03a 	cmpne	r4,r4,zero
   1677c:	3922b03a 	or	r17,r7,r4
   16780:	0009883a 	mov	r4,zero
   16784:	003f8d06 	br	165bc <_gp+0xffff255c>
   16788:	0007883a 	mov	r3,zero
   1678c:	003fdd06 	br	16704 <_gp+0xffff26a4>
   16790:	0009883a 	mov	r4,zero
   16794:	003ff706 	br	16774 <_gp+0xffff2714>

00016798 <__divdf3>:
   16798:	defff204 	addi	sp,sp,-56
   1679c:	dd400915 	stw	r21,36(sp)
   167a0:	282ad53a 	srli	r21,r5,20
   167a4:	dd000815 	stw	r20,32(sp)
   167a8:	2828d7fa 	srli	r20,r5,31
   167ac:	dc000415 	stw	r16,16(sp)
   167b0:	04000434 	movhi	r16,16
   167b4:	df000c15 	stw	fp,48(sp)
   167b8:	843fffc4 	addi	r16,r16,-1
   167bc:	dfc00d15 	stw	ra,52(sp)
   167c0:	ddc00b15 	stw	r23,44(sp)
   167c4:	dd800a15 	stw	r22,40(sp)
   167c8:	dcc00715 	stw	r19,28(sp)
   167cc:	dc800615 	stw	r18,24(sp)
   167d0:	dc400515 	stw	r17,20(sp)
   167d4:	ad41ffcc 	andi	r21,r21,2047
   167d8:	2c20703a 	and	r16,r5,r16
   167dc:	a7003fcc 	andi	fp,r20,255
   167e0:	a8006126 	beq	r21,zero,16968 <__divdf3+0x1d0>
   167e4:	0081ffc4 	movi	r2,2047
   167e8:	2025883a 	mov	r18,r4
   167ec:	a8803726 	beq	r21,r2,168cc <__divdf3+0x134>
   167f0:	80800434 	orhi	r2,r16,16
   167f4:	100490fa 	slli	r2,r2,3
   167f8:	2020d77a 	srli	r16,r4,29
   167fc:	202490fa 	slli	r18,r4,3
   16800:	ad7f0044 	addi	r21,r21,-1023
   16804:	80a0b03a 	or	r16,r16,r2
   16808:	0027883a 	mov	r19,zero
   1680c:	0013883a 	mov	r9,zero
   16810:	3804d53a 	srli	r2,r7,20
   16814:	382cd7fa 	srli	r22,r7,31
   16818:	04400434 	movhi	r17,16
   1681c:	8c7fffc4 	addi	r17,r17,-1
   16820:	1081ffcc 	andi	r2,r2,2047
   16824:	3011883a 	mov	r8,r6
   16828:	3c62703a 	and	r17,r7,r17
   1682c:	b5c03fcc 	andi	r23,r22,255
   16830:	10006c26 	beq	r2,zero,169e4 <__divdf3+0x24c>
   16834:	00c1ffc4 	movi	r3,2047
   16838:	10c06426 	beq	r2,r3,169cc <__divdf3+0x234>
   1683c:	88c00434 	orhi	r3,r17,16
   16840:	180690fa 	slli	r3,r3,3
   16844:	3022d77a 	srli	r17,r6,29
   16848:	301090fa 	slli	r8,r6,3
   1684c:	10bf0044 	addi	r2,r2,-1023
   16850:	88e2b03a 	or	r17,r17,r3
   16854:	000f883a 	mov	r7,zero
   16858:	a58cf03a 	xor	r6,r20,r22
   1685c:	3cc8b03a 	or	r4,r7,r19
   16860:	a8abc83a 	sub	r21,r21,r2
   16864:	008003c4 	movi	r2,15
   16868:	3007883a 	mov	r3,r6
   1686c:	34c03fcc 	andi	r19,r6,255
   16870:	11009036 	bltu	r2,r4,16ab4 <__divdf3+0x31c>
   16874:	200890ba 	slli	r4,r4,2
   16878:	00800074 	movhi	r2,1
   1687c:	109a2304 	addi	r2,r2,26764
   16880:	2089883a 	add	r4,r4,r2
   16884:	20800017 	ldw	r2,0(r4)
   16888:	1000683a 	jmp	r2
   1688c:	00016ab4 	movhi	zero,1450
   16890:	00016904 	movi	zero,1444
   16894:	00016aa4 	muli	zero,zero,1450
   16898:	000168f8 	rdprs	zero,zero,1443
   1689c:	00016aa4 	muli	zero,zero,1450
   168a0:	00016a78 	rdprs	zero,zero,1449
   168a4:	00016aa4 	muli	zero,zero,1450
   168a8:	000168f8 	rdprs	zero,zero,1443
   168ac:	00016904 	movi	zero,1444
   168b0:	00016904 	movi	zero,1444
   168b4:	00016a78 	rdprs	zero,zero,1449
   168b8:	000168f8 	rdprs	zero,zero,1443
   168bc:	000168e8 	cmpgeui	zero,zero,1443
   168c0:	000168e8 	cmpgeui	zero,zero,1443
   168c4:	000168e8 	cmpgeui	zero,zero,1443
   168c8:	00016d98 	cmpnei	zero,zero,1462
   168cc:	2404b03a 	or	r2,r4,r16
   168d0:	1000661e 	bne	r2,zero,16a6c <__divdf3+0x2d4>
   168d4:	04c00204 	movi	r19,8
   168d8:	0021883a 	mov	r16,zero
   168dc:	0025883a 	mov	r18,zero
   168e0:	02400084 	movi	r9,2
   168e4:	003fca06 	br	16810 <_gp+0xffff27b0>
   168e8:	8023883a 	mov	r17,r16
   168ec:	9011883a 	mov	r8,r18
   168f0:	e02f883a 	mov	r23,fp
   168f4:	480f883a 	mov	r7,r9
   168f8:	00800084 	movi	r2,2
   168fc:	3881311e 	bne	r7,r2,16dc4 <__divdf3+0x62c>
   16900:	b827883a 	mov	r19,r23
   16904:	98c0004c 	andi	r3,r19,1
   16908:	0081ffc4 	movi	r2,2047
   1690c:	000b883a 	mov	r5,zero
   16910:	0025883a 	mov	r18,zero
   16914:	1004953a 	slli	r2,r2,20
   16918:	18c03fcc 	andi	r3,r3,255
   1691c:	04400434 	movhi	r17,16
   16920:	8c7fffc4 	addi	r17,r17,-1
   16924:	180697fa 	slli	r3,r3,31
   16928:	2c4a703a 	and	r5,r5,r17
   1692c:	288ab03a 	or	r5,r5,r2
   16930:	28c6b03a 	or	r3,r5,r3
   16934:	9005883a 	mov	r2,r18
   16938:	dfc00d17 	ldw	ra,52(sp)
   1693c:	df000c17 	ldw	fp,48(sp)
   16940:	ddc00b17 	ldw	r23,44(sp)
   16944:	dd800a17 	ldw	r22,40(sp)
   16948:	dd400917 	ldw	r21,36(sp)
   1694c:	dd000817 	ldw	r20,32(sp)
   16950:	dcc00717 	ldw	r19,28(sp)
   16954:	dc800617 	ldw	r18,24(sp)
   16958:	dc400517 	ldw	r17,20(sp)
   1695c:	dc000417 	ldw	r16,16(sp)
   16960:	dec00e04 	addi	sp,sp,56
   16964:	f800283a 	ret
   16968:	2404b03a 	or	r2,r4,r16
   1696c:	2027883a 	mov	r19,r4
   16970:	10003926 	beq	r2,zero,16a58 <__divdf3+0x2c0>
   16974:	80012e26 	beq	r16,zero,16e30 <__divdf3+0x698>
   16978:	8009883a 	mov	r4,r16
   1697c:	d9800315 	stw	r6,12(sp)
   16980:	d9c00215 	stw	r7,8(sp)
   16984:	00186b40 	call	186b4 <__clzsi2>
   16988:	d9800317 	ldw	r6,12(sp)
   1698c:	d9c00217 	ldw	r7,8(sp)
   16990:	113ffd44 	addi	r4,r2,-11
   16994:	00c00704 	movi	r3,28
   16998:	19012116 	blt	r3,r4,16e20 <__divdf3+0x688>
   1699c:	00c00744 	movi	r3,29
   169a0:	147ffe04 	addi	r17,r2,-8
   169a4:	1907c83a 	sub	r3,r3,r4
   169a8:	8460983a 	sll	r16,r16,r17
   169ac:	98c6d83a 	srl	r3,r19,r3
   169b0:	9c64983a 	sll	r18,r19,r17
   169b4:	1c20b03a 	or	r16,r3,r16
   169b8:	1080fcc4 	addi	r2,r2,1011
   169bc:	00abc83a 	sub	r21,zero,r2
   169c0:	0027883a 	mov	r19,zero
   169c4:	0013883a 	mov	r9,zero
   169c8:	003f9106 	br	16810 <_gp+0xffff27b0>
   169cc:	3446b03a 	or	r3,r6,r17
   169d0:	18001f1e 	bne	r3,zero,16a50 <__divdf3+0x2b8>
   169d4:	0023883a 	mov	r17,zero
   169d8:	0011883a 	mov	r8,zero
   169dc:	01c00084 	movi	r7,2
   169e0:	003f9d06 	br	16858 <_gp+0xffff27f8>
   169e4:	3446b03a 	or	r3,r6,r17
   169e8:	18001526 	beq	r3,zero,16a40 <__divdf3+0x2a8>
   169ec:	88011b26 	beq	r17,zero,16e5c <__divdf3+0x6c4>
   169f0:	8809883a 	mov	r4,r17
   169f4:	d9800315 	stw	r6,12(sp)
   169f8:	da400115 	stw	r9,4(sp)
   169fc:	00186b40 	call	186b4 <__clzsi2>
   16a00:	d9800317 	ldw	r6,12(sp)
   16a04:	da400117 	ldw	r9,4(sp)
   16a08:	113ffd44 	addi	r4,r2,-11
   16a0c:	00c00704 	movi	r3,28
   16a10:	19010e16 	blt	r3,r4,16e4c <__divdf3+0x6b4>
   16a14:	00c00744 	movi	r3,29
   16a18:	123ffe04 	addi	r8,r2,-8
   16a1c:	1907c83a 	sub	r3,r3,r4
   16a20:	8a22983a 	sll	r17,r17,r8
   16a24:	30c6d83a 	srl	r3,r6,r3
   16a28:	3210983a 	sll	r8,r6,r8
   16a2c:	1c62b03a 	or	r17,r3,r17
   16a30:	1080fcc4 	addi	r2,r2,1011
   16a34:	0085c83a 	sub	r2,zero,r2
   16a38:	000f883a 	mov	r7,zero
   16a3c:	003f8606 	br	16858 <_gp+0xffff27f8>
   16a40:	0023883a 	mov	r17,zero
   16a44:	0011883a 	mov	r8,zero
   16a48:	01c00044 	movi	r7,1
   16a4c:	003f8206 	br	16858 <_gp+0xffff27f8>
   16a50:	01c000c4 	movi	r7,3
   16a54:	003f8006 	br	16858 <_gp+0xffff27f8>
   16a58:	04c00104 	movi	r19,4
   16a5c:	0021883a 	mov	r16,zero
   16a60:	0025883a 	mov	r18,zero
   16a64:	02400044 	movi	r9,1
   16a68:	003f6906 	br	16810 <_gp+0xffff27b0>
   16a6c:	04c00304 	movi	r19,12
   16a70:	024000c4 	movi	r9,3
   16a74:	003f6606 	br	16810 <_gp+0xffff27b0>
   16a78:	01400434 	movhi	r5,16
   16a7c:	0007883a 	mov	r3,zero
   16a80:	297fffc4 	addi	r5,r5,-1
   16a84:	04bfffc4 	movi	r18,-1
   16a88:	0081ffc4 	movi	r2,2047
   16a8c:	003fa106 	br	16914 <_gp+0xffff28b4>
   16a90:	00c00044 	movi	r3,1
   16a94:	1887c83a 	sub	r3,r3,r2
   16a98:	01000e04 	movi	r4,56
   16a9c:	20c1210e 	bge	r4,r3,16f24 <__divdf3+0x78c>
   16aa0:	98c0004c 	andi	r3,r19,1
   16aa4:	0005883a 	mov	r2,zero
   16aa8:	000b883a 	mov	r5,zero
   16aac:	0025883a 	mov	r18,zero
   16ab0:	003f9806 	br	16914 <_gp+0xffff28b4>
   16ab4:	8c00fd36 	bltu	r17,r16,16eac <__divdf3+0x714>
   16ab8:	8440fb26 	beq	r16,r17,16ea8 <__divdf3+0x710>
   16abc:	8007883a 	mov	r3,r16
   16ac0:	ad7fffc4 	addi	r21,r21,-1
   16ac4:	0021883a 	mov	r16,zero
   16ac8:	4004d63a 	srli	r2,r8,24
   16acc:	8822923a 	slli	r17,r17,8
   16ad0:	1809883a 	mov	r4,r3
   16ad4:	402c923a 	slli	r22,r8,8
   16ad8:	88b8b03a 	or	fp,r17,r2
   16adc:	e028d43a 	srli	r20,fp,16
   16ae0:	d8c00015 	stw	r3,0(sp)
   16ae4:	e5ffffcc 	andi	r23,fp,65535
   16ae8:	a00b883a 	mov	r5,r20
   16aec:	0014ab40 	call	14ab4 <__udivsi3>
   16af0:	d8c00017 	ldw	r3,0(sp)
   16af4:	a00b883a 	mov	r5,r20
   16af8:	d8800315 	stw	r2,12(sp)
   16afc:	1809883a 	mov	r4,r3
   16b00:	0014b180 	call	14b18 <__umodsi3>
   16b04:	d9800317 	ldw	r6,12(sp)
   16b08:	1006943a 	slli	r3,r2,16
   16b0c:	9004d43a 	srli	r2,r18,16
   16b10:	b9a3383a 	mul	r17,r23,r6
   16b14:	10c4b03a 	or	r2,r2,r3
   16b18:	1440062e 	bgeu	r2,r17,16b34 <__divdf3+0x39c>
   16b1c:	1705883a 	add	r2,r2,fp
   16b20:	30ffffc4 	addi	r3,r6,-1
   16b24:	1700ee36 	bltu	r2,fp,16ee0 <__divdf3+0x748>
   16b28:	1440ed2e 	bgeu	r2,r17,16ee0 <__divdf3+0x748>
   16b2c:	31bfff84 	addi	r6,r6,-2
   16b30:	1705883a 	add	r2,r2,fp
   16b34:	1463c83a 	sub	r17,r2,r17
   16b38:	a00b883a 	mov	r5,r20
   16b3c:	8809883a 	mov	r4,r17
   16b40:	d9800315 	stw	r6,12(sp)
   16b44:	0014ab40 	call	14ab4 <__udivsi3>
   16b48:	a00b883a 	mov	r5,r20
   16b4c:	8809883a 	mov	r4,r17
   16b50:	d8800215 	stw	r2,8(sp)
   16b54:	0014b180 	call	14b18 <__umodsi3>
   16b58:	d9c00217 	ldw	r7,8(sp)
   16b5c:	1004943a 	slli	r2,r2,16
   16b60:	94bfffcc 	andi	r18,r18,65535
   16b64:	b9d1383a 	mul	r8,r23,r7
   16b68:	90a4b03a 	or	r18,r18,r2
   16b6c:	d9800317 	ldw	r6,12(sp)
   16b70:	9200062e 	bgeu	r18,r8,16b8c <__divdf3+0x3f4>
   16b74:	9725883a 	add	r18,r18,fp
   16b78:	38bfffc4 	addi	r2,r7,-1
   16b7c:	9700d636 	bltu	r18,fp,16ed8 <__divdf3+0x740>
   16b80:	9200d52e 	bgeu	r18,r8,16ed8 <__divdf3+0x740>
   16b84:	39ffff84 	addi	r7,r7,-2
   16b88:	9725883a 	add	r18,r18,fp
   16b8c:	3004943a 	slli	r2,r6,16
   16b90:	b012d43a 	srli	r9,r22,16
   16b94:	b1bfffcc 	andi	r6,r22,65535
   16b98:	11e2b03a 	or	r17,r2,r7
   16b9c:	8806d43a 	srli	r3,r17,16
   16ba0:	893fffcc 	andi	r4,r17,65535
   16ba4:	218b383a 	mul	r5,r4,r6
   16ba8:	30c5383a 	mul	r2,r6,r3
   16bac:	2249383a 	mul	r4,r4,r9
   16bb0:	280ed43a 	srli	r7,r5,16
   16bb4:	9225c83a 	sub	r18,r18,r8
   16bb8:	2089883a 	add	r4,r4,r2
   16bbc:	3909883a 	add	r4,r7,r4
   16bc0:	1a47383a 	mul	r3,r3,r9
   16bc4:	2080022e 	bgeu	r4,r2,16bd0 <__divdf3+0x438>
   16bc8:	00800074 	movhi	r2,1
   16bcc:	1887883a 	add	r3,r3,r2
   16bd0:	2004d43a 	srli	r2,r4,16
   16bd4:	2008943a 	slli	r4,r4,16
   16bd8:	297fffcc 	andi	r5,r5,65535
   16bdc:	10c7883a 	add	r3,r2,r3
   16be0:	2149883a 	add	r4,r4,r5
   16be4:	90c0a536 	bltu	r18,r3,16e7c <__divdf3+0x6e4>
   16be8:	90c0bf26 	beq	r18,r3,16ee8 <__divdf3+0x750>
   16bec:	90c7c83a 	sub	r3,r18,r3
   16bf0:	810fc83a 	sub	r7,r16,r4
   16bf4:	81e5803a 	cmpltu	r18,r16,r7
   16bf8:	1ca5c83a 	sub	r18,r3,r18
   16bfc:	e480c126 	beq	fp,r18,16f04 <__divdf3+0x76c>
   16c00:	a00b883a 	mov	r5,r20
   16c04:	9009883a 	mov	r4,r18
   16c08:	d9800315 	stw	r6,12(sp)
   16c0c:	d9c00215 	stw	r7,8(sp)
   16c10:	da400115 	stw	r9,4(sp)
   16c14:	0014ab40 	call	14ab4 <__udivsi3>
   16c18:	a00b883a 	mov	r5,r20
   16c1c:	9009883a 	mov	r4,r18
   16c20:	d8800015 	stw	r2,0(sp)
   16c24:	0014b180 	call	14b18 <__umodsi3>
   16c28:	d9c00217 	ldw	r7,8(sp)
   16c2c:	da000017 	ldw	r8,0(sp)
   16c30:	1006943a 	slli	r3,r2,16
   16c34:	3804d43a 	srli	r2,r7,16
   16c38:	ba21383a 	mul	r16,r23,r8
   16c3c:	d9800317 	ldw	r6,12(sp)
   16c40:	10c4b03a 	or	r2,r2,r3
   16c44:	da400117 	ldw	r9,4(sp)
   16c48:	1400062e 	bgeu	r2,r16,16c64 <__divdf3+0x4cc>
   16c4c:	1705883a 	add	r2,r2,fp
   16c50:	40ffffc4 	addi	r3,r8,-1
   16c54:	1700ad36 	bltu	r2,fp,16f0c <__divdf3+0x774>
   16c58:	1400ac2e 	bgeu	r2,r16,16f0c <__divdf3+0x774>
   16c5c:	423fff84 	addi	r8,r8,-2
   16c60:	1705883a 	add	r2,r2,fp
   16c64:	1421c83a 	sub	r16,r2,r16
   16c68:	a00b883a 	mov	r5,r20
   16c6c:	8009883a 	mov	r4,r16
   16c70:	d9800315 	stw	r6,12(sp)
   16c74:	d9c00215 	stw	r7,8(sp)
   16c78:	da000015 	stw	r8,0(sp)
   16c7c:	da400115 	stw	r9,4(sp)
   16c80:	0014ab40 	call	14ab4 <__udivsi3>
   16c84:	8009883a 	mov	r4,r16
   16c88:	a00b883a 	mov	r5,r20
   16c8c:	1025883a 	mov	r18,r2
   16c90:	0014b180 	call	14b18 <__umodsi3>
   16c94:	d9c00217 	ldw	r7,8(sp)
   16c98:	1004943a 	slli	r2,r2,16
   16c9c:	bcaf383a 	mul	r23,r23,r18
   16ca0:	393fffcc 	andi	r4,r7,65535
   16ca4:	2088b03a 	or	r4,r4,r2
   16ca8:	d9800317 	ldw	r6,12(sp)
   16cac:	da000017 	ldw	r8,0(sp)
   16cb0:	da400117 	ldw	r9,4(sp)
   16cb4:	25c0062e 	bgeu	r4,r23,16cd0 <__divdf3+0x538>
   16cb8:	2709883a 	add	r4,r4,fp
   16cbc:	90bfffc4 	addi	r2,r18,-1
   16cc0:	27009436 	bltu	r4,fp,16f14 <__divdf3+0x77c>
   16cc4:	25c0932e 	bgeu	r4,r23,16f14 <__divdf3+0x77c>
   16cc8:	94bfff84 	addi	r18,r18,-2
   16ccc:	2709883a 	add	r4,r4,fp
   16cd0:	4004943a 	slli	r2,r8,16
   16cd4:	25efc83a 	sub	r23,r4,r23
   16cd8:	1490b03a 	or	r8,r2,r18
   16cdc:	4008d43a 	srli	r4,r8,16
   16ce0:	40ffffcc 	andi	r3,r8,65535
   16ce4:	30c5383a 	mul	r2,r6,r3
   16ce8:	1a47383a 	mul	r3,r3,r9
   16cec:	310d383a 	mul	r6,r6,r4
   16cf0:	100ad43a 	srli	r5,r2,16
   16cf4:	4913383a 	mul	r9,r9,r4
   16cf8:	1987883a 	add	r3,r3,r6
   16cfc:	28c7883a 	add	r3,r5,r3
   16d00:	1980022e 	bgeu	r3,r6,16d0c <__divdf3+0x574>
   16d04:	01000074 	movhi	r4,1
   16d08:	4913883a 	add	r9,r9,r4
   16d0c:	1808d43a 	srli	r4,r3,16
   16d10:	1806943a 	slli	r3,r3,16
   16d14:	10bfffcc 	andi	r2,r2,65535
   16d18:	2253883a 	add	r9,r4,r9
   16d1c:	1887883a 	add	r3,r3,r2
   16d20:	ba403836 	bltu	r23,r9,16e04 <__divdf3+0x66c>
   16d24:	ba403626 	beq	r23,r9,16e00 <__divdf3+0x668>
   16d28:	42000054 	ori	r8,r8,1
   16d2c:	a880ffc4 	addi	r2,r21,1023
   16d30:	00bf570e 	bge	zero,r2,16a90 <_gp+0xffff2a30>
   16d34:	40c001cc 	andi	r3,r8,7
   16d38:	18000726 	beq	r3,zero,16d58 <__divdf3+0x5c0>
   16d3c:	40c003cc 	andi	r3,r8,15
   16d40:	01000104 	movi	r4,4
   16d44:	19000426 	beq	r3,r4,16d58 <__divdf3+0x5c0>
   16d48:	4107883a 	add	r3,r8,r4
   16d4c:	1a11803a 	cmpltu	r8,r3,r8
   16d50:	8a23883a 	add	r17,r17,r8
   16d54:	1811883a 	mov	r8,r3
   16d58:	88c0402c 	andhi	r3,r17,256
   16d5c:	18000426 	beq	r3,zero,16d70 <__divdf3+0x5d8>
   16d60:	00ffc034 	movhi	r3,65280
   16d64:	18ffffc4 	addi	r3,r3,-1
   16d68:	a8810004 	addi	r2,r21,1024
   16d6c:	88e2703a 	and	r17,r17,r3
   16d70:	00c1ff84 	movi	r3,2046
   16d74:	18bee316 	blt	r3,r2,16904 <_gp+0xffff28a4>
   16d78:	8824977a 	slli	r18,r17,29
   16d7c:	4010d0fa 	srli	r8,r8,3
   16d80:	8822927a 	slli	r17,r17,9
   16d84:	1081ffcc 	andi	r2,r2,2047
   16d88:	9224b03a 	or	r18,r18,r8
   16d8c:	880ad33a 	srli	r5,r17,12
   16d90:	98c0004c 	andi	r3,r19,1
   16d94:	003edf06 	br	16914 <_gp+0xffff28b4>
   16d98:	8080022c 	andhi	r2,r16,8
   16d9c:	10001226 	beq	r2,zero,16de8 <__divdf3+0x650>
   16da0:	8880022c 	andhi	r2,r17,8
   16da4:	1000101e 	bne	r2,zero,16de8 <__divdf3+0x650>
   16da8:	00800434 	movhi	r2,16
   16dac:	89400234 	orhi	r5,r17,8
   16db0:	10bfffc4 	addi	r2,r2,-1
   16db4:	b007883a 	mov	r3,r22
   16db8:	288a703a 	and	r5,r5,r2
   16dbc:	4025883a 	mov	r18,r8
   16dc0:	003f3106 	br	16a88 <_gp+0xffff2a28>
   16dc4:	008000c4 	movi	r2,3
   16dc8:	3880a626 	beq	r7,r2,17064 <__divdf3+0x8cc>
   16dcc:	00800044 	movi	r2,1
   16dd0:	3880521e 	bne	r7,r2,16f1c <__divdf3+0x784>
   16dd4:	b807883a 	mov	r3,r23
   16dd8:	0005883a 	mov	r2,zero
   16ddc:	000b883a 	mov	r5,zero
   16de0:	0025883a 	mov	r18,zero
   16de4:	003ecb06 	br	16914 <_gp+0xffff28b4>
   16de8:	00800434 	movhi	r2,16
   16dec:	81400234 	orhi	r5,r16,8
   16df0:	10bfffc4 	addi	r2,r2,-1
   16df4:	a007883a 	mov	r3,r20
   16df8:	288a703a 	and	r5,r5,r2
   16dfc:	003f2206 	br	16a88 <_gp+0xffff2a28>
   16e00:	183fca26 	beq	r3,zero,16d2c <_gp+0xffff2ccc>
   16e04:	e5ef883a 	add	r23,fp,r23
   16e08:	40bfffc4 	addi	r2,r8,-1
   16e0c:	bf00392e 	bgeu	r23,fp,16ef4 <__divdf3+0x75c>
   16e10:	1011883a 	mov	r8,r2
   16e14:	ba7fc41e 	bne	r23,r9,16d28 <_gp+0xffff2cc8>
   16e18:	b0ffc31e 	bne	r22,r3,16d28 <_gp+0xffff2cc8>
   16e1c:	003fc306 	br	16d2c <_gp+0xffff2ccc>
   16e20:	143ff604 	addi	r16,r2,-40
   16e24:	9c20983a 	sll	r16,r19,r16
   16e28:	0025883a 	mov	r18,zero
   16e2c:	003ee206 	br	169b8 <_gp+0xffff2958>
   16e30:	d9800315 	stw	r6,12(sp)
   16e34:	d9c00215 	stw	r7,8(sp)
   16e38:	00186b40 	call	186b4 <__clzsi2>
   16e3c:	10800804 	addi	r2,r2,32
   16e40:	d9c00217 	ldw	r7,8(sp)
   16e44:	d9800317 	ldw	r6,12(sp)
   16e48:	003ed106 	br	16990 <_gp+0xffff2930>
   16e4c:	147ff604 	addi	r17,r2,-40
   16e50:	3462983a 	sll	r17,r6,r17
   16e54:	0011883a 	mov	r8,zero
   16e58:	003ef506 	br	16a30 <_gp+0xffff29d0>
   16e5c:	3009883a 	mov	r4,r6
   16e60:	d9800315 	stw	r6,12(sp)
   16e64:	da400115 	stw	r9,4(sp)
   16e68:	00186b40 	call	186b4 <__clzsi2>
   16e6c:	10800804 	addi	r2,r2,32
   16e70:	da400117 	ldw	r9,4(sp)
   16e74:	d9800317 	ldw	r6,12(sp)
   16e78:	003ee306 	br	16a08 <_gp+0xffff29a8>
   16e7c:	85a1883a 	add	r16,r16,r22
   16e80:	8585803a 	cmpltu	r2,r16,r22
   16e84:	1705883a 	add	r2,r2,fp
   16e88:	14a5883a 	add	r18,r2,r18
   16e8c:	88bfffc4 	addi	r2,r17,-1
   16e90:	e4800c2e 	bgeu	fp,r18,16ec4 <__divdf3+0x72c>
   16e94:	90c03e36 	bltu	r18,r3,16f90 <__divdf3+0x7f8>
   16e98:	1c806926 	beq	r3,r18,17040 <__divdf3+0x8a8>
   16e9c:	90c7c83a 	sub	r3,r18,r3
   16ea0:	1023883a 	mov	r17,r2
   16ea4:	003f5206 	br	16bf0 <_gp+0xffff2b90>
   16ea8:	923f0436 	bltu	r18,r8,16abc <_gp+0xffff2a5c>
   16eac:	800897fa 	slli	r4,r16,31
   16eb0:	9004d07a 	srli	r2,r18,1
   16eb4:	8006d07a 	srli	r3,r16,1
   16eb8:	902097fa 	slli	r16,r18,31
   16ebc:	20a4b03a 	or	r18,r4,r2
   16ec0:	003f0106 	br	16ac8 <_gp+0xffff2a68>
   16ec4:	e4bff51e 	bne	fp,r18,16e9c <_gp+0xffff2e3c>
   16ec8:	85bff22e 	bgeu	r16,r22,16e94 <_gp+0xffff2e34>
   16ecc:	e0c7c83a 	sub	r3,fp,r3
   16ed0:	1023883a 	mov	r17,r2
   16ed4:	003f4606 	br	16bf0 <_gp+0xffff2b90>
   16ed8:	100f883a 	mov	r7,r2
   16edc:	003f2b06 	br	16b8c <_gp+0xffff2b2c>
   16ee0:	180d883a 	mov	r6,r3
   16ee4:	003f1306 	br	16b34 <_gp+0xffff2ad4>
   16ee8:	813fe436 	bltu	r16,r4,16e7c <_gp+0xffff2e1c>
   16eec:	0007883a 	mov	r3,zero
   16ef0:	003f3f06 	br	16bf0 <_gp+0xffff2b90>
   16ef4:	ba402c36 	bltu	r23,r9,16fa8 <__divdf3+0x810>
   16ef8:	4dc05426 	beq	r9,r23,1704c <__divdf3+0x8b4>
   16efc:	1011883a 	mov	r8,r2
   16f00:	003f8906 	br	16d28 <_gp+0xffff2cc8>
   16f04:	023fffc4 	movi	r8,-1
   16f08:	003f8806 	br	16d2c <_gp+0xffff2ccc>
   16f0c:	1811883a 	mov	r8,r3
   16f10:	003f5406 	br	16c64 <_gp+0xffff2c04>
   16f14:	1025883a 	mov	r18,r2
   16f18:	003f6d06 	br	16cd0 <_gp+0xffff2c70>
   16f1c:	b827883a 	mov	r19,r23
   16f20:	003f8206 	br	16d2c <_gp+0xffff2ccc>
   16f24:	010007c4 	movi	r4,31
   16f28:	20c02616 	blt	r4,r3,16fc4 <__divdf3+0x82c>
   16f2c:	00800804 	movi	r2,32
   16f30:	10c5c83a 	sub	r2,r2,r3
   16f34:	888a983a 	sll	r5,r17,r2
   16f38:	40c8d83a 	srl	r4,r8,r3
   16f3c:	4084983a 	sll	r2,r8,r2
   16f40:	88e2d83a 	srl	r17,r17,r3
   16f44:	2906b03a 	or	r3,r5,r4
   16f48:	1004c03a 	cmpne	r2,r2,zero
   16f4c:	1886b03a 	or	r3,r3,r2
   16f50:	188001cc 	andi	r2,r3,7
   16f54:	10000726 	beq	r2,zero,16f74 <__divdf3+0x7dc>
   16f58:	188003cc 	andi	r2,r3,15
   16f5c:	01000104 	movi	r4,4
   16f60:	11000426 	beq	r2,r4,16f74 <__divdf3+0x7dc>
   16f64:	1805883a 	mov	r2,r3
   16f68:	10c00104 	addi	r3,r2,4
   16f6c:	1885803a 	cmpltu	r2,r3,r2
   16f70:	88a3883a 	add	r17,r17,r2
   16f74:	8880202c 	andhi	r2,r17,128
   16f78:	10002726 	beq	r2,zero,17018 <__divdf3+0x880>
   16f7c:	98c0004c 	andi	r3,r19,1
   16f80:	00800044 	movi	r2,1
   16f84:	000b883a 	mov	r5,zero
   16f88:	0025883a 	mov	r18,zero
   16f8c:	003e6106 	br	16914 <_gp+0xffff28b4>
   16f90:	85a1883a 	add	r16,r16,r22
   16f94:	8585803a 	cmpltu	r2,r16,r22
   16f98:	1705883a 	add	r2,r2,fp
   16f9c:	14a5883a 	add	r18,r2,r18
   16fa0:	8c7fff84 	addi	r17,r17,-2
   16fa4:	003f1106 	br	16bec <_gp+0xffff2b8c>
   16fa8:	b589883a 	add	r4,r22,r22
   16fac:	25ad803a 	cmpltu	r22,r4,r22
   16fb0:	b739883a 	add	fp,r22,fp
   16fb4:	40bfff84 	addi	r2,r8,-2
   16fb8:	bf2f883a 	add	r23,r23,fp
   16fbc:	202d883a 	mov	r22,r4
   16fc0:	003f9306 	br	16e10 <_gp+0xffff2db0>
   16fc4:	013ff844 	movi	r4,-31
   16fc8:	2085c83a 	sub	r2,r4,r2
   16fcc:	8888d83a 	srl	r4,r17,r2
   16fd0:	00800804 	movi	r2,32
   16fd4:	18802126 	beq	r3,r2,1705c <__divdf3+0x8c4>
   16fd8:	00801004 	movi	r2,64
   16fdc:	10c5c83a 	sub	r2,r2,r3
   16fe0:	8884983a 	sll	r2,r17,r2
   16fe4:	1204b03a 	or	r2,r2,r8
   16fe8:	1004c03a 	cmpne	r2,r2,zero
   16fec:	2084b03a 	or	r2,r4,r2
   16ff0:	144001cc 	andi	r17,r2,7
   16ff4:	88000d1e 	bne	r17,zero,1702c <__divdf3+0x894>
   16ff8:	000b883a 	mov	r5,zero
   16ffc:	1024d0fa 	srli	r18,r2,3
   17000:	98c0004c 	andi	r3,r19,1
   17004:	0005883a 	mov	r2,zero
   17008:	9464b03a 	or	r18,r18,r17
   1700c:	003e4106 	br	16914 <_gp+0xffff28b4>
   17010:	1007883a 	mov	r3,r2
   17014:	0023883a 	mov	r17,zero
   17018:	880a927a 	slli	r5,r17,9
   1701c:	1805883a 	mov	r2,r3
   17020:	8822977a 	slli	r17,r17,29
   17024:	280ad33a 	srli	r5,r5,12
   17028:	003ff406 	br	16ffc <_gp+0xffff2f9c>
   1702c:	10c003cc 	andi	r3,r2,15
   17030:	01000104 	movi	r4,4
   17034:	193ff626 	beq	r3,r4,17010 <_gp+0xffff2fb0>
   17038:	0023883a 	mov	r17,zero
   1703c:	003fca06 	br	16f68 <_gp+0xffff2f08>
   17040:	813fd336 	bltu	r16,r4,16f90 <_gp+0xffff2f30>
   17044:	1023883a 	mov	r17,r2
   17048:	003fa806 	br	16eec <_gp+0xffff2e8c>
   1704c:	b0ffd636 	bltu	r22,r3,16fa8 <_gp+0xffff2f48>
   17050:	1011883a 	mov	r8,r2
   17054:	b0ff341e 	bne	r22,r3,16d28 <_gp+0xffff2cc8>
   17058:	003f3406 	br	16d2c <_gp+0xffff2ccc>
   1705c:	0005883a 	mov	r2,zero
   17060:	003fe006 	br	16fe4 <_gp+0xffff2f84>
   17064:	00800434 	movhi	r2,16
   17068:	89400234 	orhi	r5,r17,8
   1706c:	10bfffc4 	addi	r2,r2,-1
   17070:	b807883a 	mov	r3,r23
   17074:	288a703a 	and	r5,r5,r2
   17078:	4025883a 	mov	r18,r8
   1707c:	003e8206 	br	16a88 <_gp+0xffff2a28>

00017080 <__eqdf2>:
   17080:	2804d53a 	srli	r2,r5,20
   17084:	3806d53a 	srli	r3,r7,20
   17088:	02000434 	movhi	r8,16
   1708c:	423fffc4 	addi	r8,r8,-1
   17090:	1081ffcc 	andi	r2,r2,2047
   17094:	0281ffc4 	movi	r10,2047
   17098:	2a12703a 	and	r9,r5,r8
   1709c:	18c1ffcc 	andi	r3,r3,2047
   170a0:	3a10703a 	and	r8,r7,r8
   170a4:	280ad7fa 	srli	r5,r5,31
   170a8:	380ed7fa 	srli	r7,r7,31
   170ac:	12801026 	beq	r2,r10,170f0 <__eqdf2+0x70>
   170b0:	0281ffc4 	movi	r10,2047
   170b4:	1a800a26 	beq	r3,r10,170e0 <__eqdf2+0x60>
   170b8:	10c00226 	beq	r2,r3,170c4 <__eqdf2+0x44>
   170bc:	00800044 	movi	r2,1
   170c0:	f800283a 	ret
   170c4:	4a3ffd1e 	bne	r9,r8,170bc <_gp+0xffff305c>
   170c8:	21bffc1e 	bne	r4,r6,170bc <_gp+0xffff305c>
   170cc:	29c00c26 	beq	r5,r7,17100 <__eqdf2+0x80>
   170d0:	103ffa1e 	bne	r2,zero,170bc <_gp+0xffff305c>
   170d4:	2244b03a 	or	r2,r4,r9
   170d8:	1004c03a 	cmpne	r2,r2,zero
   170dc:	f800283a 	ret
   170e0:	3214b03a 	or	r10,r6,r8
   170e4:	503ff426 	beq	r10,zero,170b8 <_gp+0xffff3058>
   170e8:	00800044 	movi	r2,1
   170ec:	f800283a 	ret
   170f0:	2254b03a 	or	r10,r4,r9
   170f4:	503fee26 	beq	r10,zero,170b0 <_gp+0xffff3050>
   170f8:	00800044 	movi	r2,1
   170fc:	f800283a 	ret
   17100:	0005883a 	mov	r2,zero
   17104:	f800283a 	ret

00017108 <__gedf2>:
   17108:	2804d53a 	srli	r2,r5,20
   1710c:	3806d53a 	srli	r3,r7,20
   17110:	02000434 	movhi	r8,16
   17114:	423fffc4 	addi	r8,r8,-1
   17118:	1081ffcc 	andi	r2,r2,2047
   1711c:	0241ffc4 	movi	r9,2047
   17120:	2a14703a 	and	r10,r5,r8
   17124:	18c1ffcc 	andi	r3,r3,2047
   17128:	3a10703a 	and	r8,r7,r8
   1712c:	280ad7fa 	srli	r5,r5,31
   17130:	380ed7fa 	srli	r7,r7,31
   17134:	12401d26 	beq	r2,r9,171ac <__gedf2+0xa4>
   17138:	0241ffc4 	movi	r9,2047
   1713c:	1a401226 	beq	r3,r9,17188 <__gedf2+0x80>
   17140:	1000081e 	bne	r2,zero,17164 <__gedf2+0x5c>
   17144:	2296b03a 	or	r11,r4,r10
   17148:	5813003a 	cmpeq	r9,r11,zero
   1714c:	1800091e 	bne	r3,zero,17174 <__gedf2+0x6c>
   17150:	3218b03a 	or	r12,r6,r8
   17154:	6000071e 	bne	r12,zero,17174 <__gedf2+0x6c>
   17158:	0005883a 	mov	r2,zero
   1715c:	5800101e 	bne	r11,zero,171a0 <__gedf2+0x98>
   17160:	f800283a 	ret
   17164:	18000c1e 	bne	r3,zero,17198 <__gedf2+0x90>
   17168:	3212b03a 	or	r9,r6,r8
   1716c:	48000c26 	beq	r9,zero,171a0 <__gedf2+0x98>
   17170:	0013883a 	mov	r9,zero
   17174:	39c03fcc 	andi	r7,r7,255
   17178:	48000826 	beq	r9,zero,1719c <__gedf2+0x94>
   1717c:	38000926 	beq	r7,zero,171a4 <__gedf2+0x9c>
   17180:	00800044 	movi	r2,1
   17184:	f800283a 	ret
   17188:	3212b03a 	or	r9,r6,r8
   1718c:	483fec26 	beq	r9,zero,17140 <_gp+0xffff30e0>
   17190:	00bfff84 	movi	r2,-2
   17194:	f800283a 	ret
   17198:	39c03fcc 	andi	r7,r7,255
   1719c:	29c00626 	beq	r5,r7,171b8 <__gedf2+0xb0>
   171a0:	283ff726 	beq	r5,zero,17180 <_gp+0xffff3120>
   171a4:	00bfffc4 	movi	r2,-1
   171a8:	f800283a 	ret
   171ac:	2292b03a 	or	r9,r4,r10
   171b0:	483fe126 	beq	r9,zero,17138 <_gp+0xffff30d8>
   171b4:	003ff606 	br	17190 <_gp+0xffff3130>
   171b8:	18bff916 	blt	r3,r2,171a0 <_gp+0xffff3140>
   171bc:	10c00316 	blt	r2,r3,171cc <__gedf2+0xc4>
   171c0:	42bff736 	bltu	r8,r10,171a0 <_gp+0xffff3140>
   171c4:	52000326 	beq	r10,r8,171d4 <__gedf2+0xcc>
   171c8:	5200042e 	bgeu	r10,r8,171dc <__gedf2+0xd4>
   171cc:	283fec1e 	bne	r5,zero,17180 <_gp+0xffff3120>
   171d0:	003ff406 	br	171a4 <_gp+0xffff3144>
   171d4:	313ff236 	bltu	r6,r4,171a0 <_gp+0xffff3140>
   171d8:	21bffc36 	bltu	r4,r6,171cc <_gp+0xffff316c>
   171dc:	0005883a 	mov	r2,zero
   171e0:	f800283a 	ret

000171e4 <__muldf3>:
   171e4:	defff304 	addi	sp,sp,-52
   171e8:	2804d53a 	srli	r2,r5,20
   171ec:	dd800915 	stw	r22,36(sp)
   171f0:	282cd7fa 	srli	r22,r5,31
   171f4:	dc000315 	stw	r16,12(sp)
   171f8:	04000434 	movhi	r16,16
   171fc:	dd400815 	stw	r21,32(sp)
   17200:	dc800515 	stw	r18,20(sp)
   17204:	843fffc4 	addi	r16,r16,-1
   17208:	dfc00c15 	stw	ra,48(sp)
   1720c:	df000b15 	stw	fp,44(sp)
   17210:	ddc00a15 	stw	r23,40(sp)
   17214:	dd000715 	stw	r20,28(sp)
   17218:	dcc00615 	stw	r19,24(sp)
   1721c:	dc400415 	stw	r17,16(sp)
   17220:	1481ffcc 	andi	r18,r2,2047
   17224:	2c20703a 	and	r16,r5,r16
   17228:	b02b883a 	mov	r21,r22
   1722c:	b2403fcc 	andi	r9,r22,255
   17230:	90006026 	beq	r18,zero,173b4 <__muldf3+0x1d0>
   17234:	0081ffc4 	movi	r2,2047
   17238:	2029883a 	mov	r20,r4
   1723c:	90803626 	beq	r18,r2,17318 <__muldf3+0x134>
   17240:	80800434 	orhi	r2,r16,16
   17244:	100490fa 	slli	r2,r2,3
   17248:	2020d77a 	srli	r16,r4,29
   1724c:	202890fa 	slli	r20,r4,3
   17250:	94bf0044 	addi	r18,r18,-1023
   17254:	80a0b03a 	or	r16,r16,r2
   17258:	0027883a 	mov	r19,zero
   1725c:	0039883a 	mov	fp,zero
   17260:	3804d53a 	srli	r2,r7,20
   17264:	382ed7fa 	srli	r23,r7,31
   17268:	04400434 	movhi	r17,16
   1726c:	8c7fffc4 	addi	r17,r17,-1
   17270:	1081ffcc 	andi	r2,r2,2047
   17274:	3011883a 	mov	r8,r6
   17278:	3c62703a 	and	r17,r7,r17
   1727c:	ba803fcc 	andi	r10,r23,255
   17280:	10006d26 	beq	r2,zero,17438 <__muldf3+0x254>
   17284:	00c1ffc4 	movi	r3,2047
   17288:	10c06526 	beq	r2,r3,17420 <__muldf3+0x23c>
   1728c:	88c00434 	orhi	r3,r17,16
   17290:	180690fa 	slli	r3,r3,3
   17294:	3022d77a 	srli	r17,r6,29
   17298:	301090fa 	slli	r8,r6,3
   1729c:	10bf0044 	addi	r2,r2,-1023
   172a0:	88e2b03a 	or	r17,r17,r3
   172a4:	000b883a 	mov	r5,zero
   172a8:	9085883a 	add	r2,r18,r2
   172ac:	2cc8b03a 	or	r4,r5,r19
   172b0:	00c003c4 	movi	r3,15
   172b4:	bdacf03a 	xor	r22,r23,r22
   172b8:	12c00044 	addi	r11,r2,1
   172bc:	19009936 	bltu	r3,r4,17524 <__muldf3+0x340>
   172c0:	200890ba 	slli	r4,r4,2
   172c4:	00c00074 	movhi	r3,1
   172c8:	18dcb604 	addi	r3,r3,29400
   172cc:	20c9883a 	add	r4,r4,r3
   172d0:	20c00017 	ldw	r3,0(r4)
   172d4:	1800683a 	jmp	r3
   172d8:	00017524 	muli	zero,zero,1492
   172dc:	00017338 	rdprs	zero,zero,1484
   172e0:	00017338 	rdprs	zero,zero,1484
   172e4:	00017334 	movhi	zero,1484
   172e8:	00017500 	call	1750 <__alt_mem_RAM-0xe8b0>
   172ec:	00017500 	call	1750 <__alt_mem_RAM-0xe8b0>
   172f0:	000174e8 	cmpgeui	zero,zero,1491
   172f4:	00017334 	movhi	zero,1484
   172f8:	00017500 	call	1750 <__alt_mem_RAM-0xe8b0>
   172fc:	000174e8 	cmpgeui	zero,zero,1491
   17300:	00017500 	call	1750 <__alt_mem_RAM-0xe8b0>
   17304:	00017334 	movhi	zero,1484
   17308:	00017510 	cmplti	zero,zero,1492
   1730c:	00017510 	cmplti	zero,zero,1492
   17310:	00017510 	cmplti	zero,zero,1492
   17314:	0001772c 	andhi	zero,zero,1500
   17318:	2404b03a 	or	r2,r4,r16
   1731c:	10006f1e 	bne	r2,zero,174dc <__muldf3+0x2f8>
   17320:	04c00204 	movi	r19,8
   17324:	0021883a 	mov	r16,zero
   17328:	0029883a 	mov	r20,zero
   1732c:	07000084 	movi	fp,2
   17330:	003fcb06 	br	17260 <_gp+0xffff3200>
   17334:	502d883a 	mov	r22,r10
   17338:	00800084 	movi	r2,2
   1733c:	28805726 	beq	r5,r2,1749c <__muldf3+0x2b8>
   17340:	008000c4 	movi	r2,3
   17344:	28816626 	beq	r5,r2,178e0 <__muldf3+0x6fc>
   17348:	00800044 	movi	r2,1
   1734c:	2881411e 	bne	r5,r2,17854 <__muldf3+0x670>
   17350:	b02b883a 	mov	r21,r22
   17354:	0005883a 	mov	r2,zero
   17358:	000b883a 	mov	r5,zero
   1735c:	0029883a 	mov	r20,zero
   17360:	1004953a 	slli	r2,r2,20
   17364:	a8c03fcc 	andi	r3,r21,255
   17368:	04400434 	movhi	r17,16
   1736c:	8c7fffc4 	addi	r17,r17,-1
   17370:	180697fa 	slli	r3,r3,31
   17374:	2c4a703a 	and	r5,r5,r17
   17378:	288ab03a 	or	r5,r5,r2
   1737c:	28c6b03a 	or	r3,r5,r3
   17380:	a005883a 	mov	r2,r20
   17384:	dfc00c17 	ldw	ra,48(sp)
   17388:	df000b17 	ldw	fp,44(sp)
   1738c:	ddc00a17 	ldw	r23,40(sp)
   17390:	dd800917 	ldw	r22,36(sp)
   17394:	dd400817 	ldw	r21,32(sp)
   17398:	dd000717 	ldw	r20,28(sp)
   1739c:	dcc00617 	ldw	r19,24(sp)
   173a0:	dc800517 	ldw	r18,20(sp)
   173a4:	dc400417 	ldw	r17,16(sp)
   173a8:	dc000317 	ldw	r16,12(sp)
   173ac:	dec00d04 	addi	sp,sp,52
   173b0:	f800283a 	ret
   173b4:	2404b03a 	or	r2,r4,r16
   173b8:	2027883a 	mov	r19,r4
   173bc:	10004226 	beq	r2,zero,174c8 <__muldf3+0x2e4>
   173c0:	8000fc26 	beq	r16,zero,177b4 <__muldf3+0x5d0>
   173c4:	8009883a 	mov	r4,r16
   173c8:	d9800215 	stw	r6,8(sp)
   173cc:	d9c00015 	stw	r7,0(sp)
   173d0:	da400115 	stw	r9,4(sp)
   173d4:	00186b40 	call	186b4 <__clzsi2>
   173d8:	d9800217 	ldw	r6,8(sp)
   173dc:	d9c00017 	ldw	r7,0(sp)
   173e0:	da400117 	ldw	r9,4(sp)
   173e4:	113ffd44 	addi	r4,r2,-11
   173e8:	00c00704 	movi	r3,28
   173ec:	1900ed16 	blt	r3,r4,177a4 <__muldf3+0x5c0>
   173f0:	00c00744 	movi	r3,29
   173f4:	147ffe04 	addi	r17,r2,-8
   173f8:	1907c83a 	sub	r3,r3,r4
   173fc:	8460983a 	sll	r16,r16,r17
   17400:	98c6d83a 	srl	r3,r19,r3
   17404:	9c68983a 	sll	r20,r19,r17
   17408:	1c20b03a 	or	r16,r3,r16
   1740c:	1080fcc4 	addi	r2,r2,1011
   17410:	00a5c83a 	sub	r18,zero,r2
   17414:	0027883a 	mov	r19,zero
   17418:	0039883a 	mov	fp,zero
   1741c:	003f9006 	br	17260 <_gp+0xffff3200>
   17420:	3446b03a 	or	r3,r6,r17
   17424:	1800261e 	bne	r3,zero,174c0 <__muldf3+0x2dc>
   17428:	0023883a 	mov	r17,zero
   1742c:	0011883a 	mov	r8,zero
   17430:	01400084 	movi	r5,2
   17434:	003f9c06 	br	172a8 <_gp+0xffff3248>
   17438:	3446b03a 	or	r3,r6,r17
   1743c:	18001c26 	beq	r3,zero,174b0 <__muldf3+0x2cc>
   17440:	8800ce26 	beq	r17,zero,1777c <__muldf3+0x598>
   17444:	8809883a 	mov	r4,r17
   17448:	d9800215 	stw	r6,8(sp)
   1744c:	da400115 	stw	r9,4(sp)
   17450:	da800015 	stw	r10,0(sp)
   17454:	00186b40 	call	186b4 <__clzsi2>
   17458:	d9800217 	ldw	r6,8(sp)
   1745c:	da400117 	ldw	r9,4(sp)
   17460:	da800017 	ldw	r10,0(sp)
   17464:	113ffd44 	addi	r4,r2,-11
   17468:	00c00704 	movi	r3,28
   1746c:	1900bf16 	blt	r3,r4,1776c <__muldf3+0x588>
   17470:	00c00744 	movi	r3,29
   17474:	123ffe04 	addi	r8,r2,-8
   17478:	1907c83a 	sub	r3,r3,r4
   1747c:	8a22983a 	sll	r17,r17,r8
   17480:	30c6d83a 	srl	r3,r6,r3
   17484:	3210983a 	sll	r8,r6,r8
   17488:	1c62b03a 	or	r17,r3,r17
   1748c:	1080fcc4 	addi	r2,r2,1011
   17490:	0085c83a 	sub	r2,zero,r2
   17494:	000b883a 	mov	r5,zero
   17498:	003f8306 	br	172a8 <_gp+0xffff3248>
   1749c:	b02b883a 	mov	r21,r22
   174a0:	0081ffc4 	movi	r2,2047
   174a4:	000b883a 	mov	r5,zero
   174a8:	0029883a 	mov	r20,zero
   174ac:	003fac06 	br	17360 <_gp+0xffff3300>
   174b0:	0023883a 	mov	r17,zero
   174b4:	0011883a 	mov	r8,zero
   174b8:	01400044 	movi	r5,1
   174bc:	003f7a06 	br	172a8 <_gp+0xffff3248>
   174c0:	014000c4 	movi	r5,3
   174c4:	003f7806 	br	172a8 <_gp+0xffff3248>
   174c8:	04c00104 	movi	r19,4
   174cc:	0021883a 	mov	r16,zero
   174d0:	0029883a 	mov	r20,zero
   174d4:	07000044 	movi	fp,1
   174d8:	003f6106 	br	17260 <_gp+0xffff3200>
   174dc:	04c00304 	movi	r19,12
   174e0:	070000c4 	movi	fp,3
   174e4:	003f5e06 	br	17260 <_gp+0xffff3200>
   174e8:	01400434 	movhi	r5,16
   174ec:	002b883a 	mov	r21,zero
   174f0:	297fffc4 	addi	r5,r5,-1
   174f4:	053fffc4 	movi	r20,-1
   174f8:	0081ffc4 	movi	r2,2047
   174fc:	003f9806 	br	17360 <_gp+0xffff3300>
   17500:	8023883a 	mov	r17,r16
   17504:	a011883a 	mov	r8,r20
   17508:	e00b883a 	mov	r5,fp
   1750c:	003f8a06 	br	17338 <_gp+0xffff32d8>
   17510:	8023883a 	mov	r17,r16
   17514:	a011883a 	mov	r8,r20
   17518:	482d883a 	mov	r22,r9
   1751c:	e00b883a 	mov	r5,fp
   17520:	003f8506 	br	17338 <_gp+0xffff32d8>
   17524:	a00ad43a 	srli	r5,r20,16
   17528:	401ad43a 	srli	r13,r8,16
   1752c:	a53fffcc 	andi	r20,r20,65535
   17530:	423fffcc 	andi	r8,r8,65535
   17534:	4519383a 	mul	r12,r8,r20
   17538:	4147383a 	mul	r3,r8,r5
   1753c:	6d09383a 	mul	r4,r13,r20
   17540:	600cd43a 	srli	r6,r12,16
   17544:	2b5d383a 	mul	r14,r5,r13
   17548:	20c9883a 	add	r4,r4,r3
   1754c:	310d883a 	add	r6,r6,r4
   17550:	30c0022e 	bgeu	r6,r3,1755c <__muldf3+0x378>
   17554:	00c00074 	movhi	r3,1
   17558:	70dd883a 	add	r14,r14,r3
   1755c:	8826d43a 	srli	r19,r17,16
   17560:	8bffffcc 	andi	r15,r17,65535
   17564:	7d23383a 	mul	r17,r15,r20
   17568:	7949383a 	mul	r4,r15,r5
   1756c:	9d29383a 	mul	r20,r19,r20
   17570:	8814d43a 	srli	r10,r17,16
   17574:	3012943a 	slli	r9,r6,16
   17578:	a129883a 	add	r20,r20,r4
   1757c:	633fffcc 	andi	r12,r12,65535
   17580:	5515883a 	add	r10,r10,r20
   17584:	3006d43a 	srli	r3,r6,16
   17588:	4b13883a 	add	r9,r9,r12
   1758c:	2ccb383a 	mul	r5,r5,r19
   17590:	5100022e 	bgeu	r10,r4,1759c <__muldf3+0x3b8>
   17594:	01000074 	movhi	r4,1
   17598:	290b883a 	add	r5,r5,r4
   1759c:	802ad43a 	srli	r21,r16,16
   175a0:	843fffcc 	andi	r16,r16,65535
   175a4:	440d383a 	mul	r6,r8,r16
   175a8:	4565383a 	mul	r18,r8,r21
   175ac:	8349383a 	mul	r4,r16,r13
   175b0:	500e943a 	slli	r7,r10,16
   175b4:	3010d43a 	srli	r8,r6,16
   175b8:	5028d43a 	srli	r20,r10,16
   175bc:	2489883a 	add	r4,r4,r18
   175c0:	8abfffcc 	andi	r10,r17,65535
   175c4:	3a95883a 	add	r10,r7,r10
   175c8:	4119883a 	add	r12,r8,r4
   175cc:	a169883a 	add	r20,r20,r5
   175d0:	1a87883a 	add	r3,r3,r10
   175d4:	6d5b383a 	mul	r13,r13,r21
   175d8:	6480022e 	bgeu	r12,r18,175e4 <__muldf3+0x400>
   175dc:	01000074 	movhi	r4,1
   175e0:	691b883a 	add	r13,r13,r4
   175e4:	7c25383a 	mul	r18,r15,r16
   175e8:	7d4b383a 	mul	r5,r15,r21
   175ec:	84cf383a 	mul	r7,r16,r19
   175f0:	901ed43a 	srli	r15,r18,16
   175f4:	6008d43a 	srli	r4,r12,16
   175f8:	6010943a 	slli	r8,r12,16
   175fc:	394f883a 	add	r7,r7,r5
   17600:	333fffcc 	andi	r12,r6,65535
   17604:	79df883a 	add	r15,r15,r7
   17608:	235b883a 	add	r13,r4,r13
   1760c:	9d63383a 	mul	r17,r19,r21
   17610:	4309883a 	add	r4,r8,r12
   17614:	7940022e 	bgeu	r15,r5,17620 <__muldf3+0x43c>
   17618:	01400074 	movhi	r5,1
   1761c:	8963883a 	add	r17,r17,r5
   17620:	780a943a 	slli	r5,r15,16
   17624:	91bfffcc 	andi	r6,r18,65535
   17628:	70c7883a 	add	r3,r14,r3
   1762c:	298d883a 	add	r6,r5,r6
   17630:	1a8f803a 	cmpltu	r7,r3,r10
   17634:	350b883a 	add	r5,r6,r20
   17638:	20c7883a 	add	r3,r4,r3
   1763c:	3955883a 	add	r10,r7,r5
   17640:	1909803a 	cmpltu	r4,r3,r4
   17644:	6a91883a 	add	r8,r13,r10
   17648:	780cd43a 	srli	r6,r15,16
   1764c:	2219883a 	add	r12,r4,r8
   17650:	2d0b803a 	cmpltu	r5,r5,r20
   17654:	51cf803a 	cmpltu	r7,r10,r7
   17658:	29ceb03a 	or	r7,r5,r7
   1765c:	4351803a 	cmpltu	r8,r8,r13
   17660:	610b803a 	cmpltu	r5,r12,r4
   17664:	4148b03a 	or	r4,r8,r5
   17668:	398f883a 	add	r7,r7,r6
   1766c:	3909883a 	add	r4,r7,r4
   17670:	1810927a 	slli	r8,r3,9
   17674:	2449883a 	add	r4,r4,r17
   17678:	2008927a 	slli	r4,r4,9
   1767c:	6022d5fa 	srli	r17,r12,23
   17680:	1806d5fa 	srli	r3,r3,23
   17684:	4252b03a 	or	r9,r8,r9
   17688:	600a927a 	slli	r5,r12,9
   1768c:	4810c03a 	cmpne	r8,r9,zero
   17690:	2462b03a 	or	r17,r4,r17
   17694:	40c6b03a 	or	r3,r8,r3
   17698:	8900402c 	andhi	r4,r17,256
   1769c:	1950b03a 	or	r8,r3,r5
   176a0:	20000726 	beq	r4,zero,176c0 <__muldf3+0x4dc>
   176a4:	4006d07a 	srli	r3,r8,1
   176a8:	880497fa 	slli	r2,r17,31
   176ac:	4200004c 	andi	r8,r8,1
   176b0:	8822d07a 	srli	r17,r17,1
   176b4:	1a10b03a 	or	r8,r3,r8
   176b8:	1210b03a 	or	r8,r2,r8
   176bc:	5805883a 	mov	r2,r11
   176c0:	1140ffc4 	addi	r5,r2,1023
   176c4:	0140440e 	bge	zero,r5,177d8 <__muldf3+0x5f4>
   176c8:	40c001cc 	andi	r3,r8,7
   176cc:	18000726 	beq	r3,zero,176ec <__muldf3+0x508>
   176d0:	40c003cc 	andi	r3,r8,15
   176d4:	01000104 	movi	r4,4
   176d8:	19000426 	beq	r3,r4,176ec <__muldf3+0x508>
   176dc:	4107883a 	add	r3,r8,r4
   176e0:	1a11803a 	cmpltu	r8,r3,r8
   176e4:	8a23883a 	add	r17,r17,r8
   176e8:	1811883a 	mov	r8,r3
   176ec:	88c0402c 	andhi	r3,r17,256
   176f0:	18000426 	beq	r3,zero,17704 <__muldf3+0x520>
   176f4:	11410004 	addi	r5,r2,1024
   176f8:	00bfc034 	movhi	r2,65280
   176fc:	10bfffc4 	addi	r2,r2,-1
   17700:	88a2703a 	and	r17,r17,r2
   17704:	0081ff84 	movi	r2,2046
   17708:	117f6416 	blt	r2,r5,1749c <_gp+0xffff343c>
   1770c:	8828977a 	slli	r20,r17,29
   17710:	4010d0fa 	srli	r8,r8,3
   17714:	8822927a 	slli	r17,r17,9
   17718:	2881ffcc 	andi	r2,r5,2047
   1771c:	a228b03a 	or	r20,r20,r8
   17720:	880ad33a 	srli	r5,r17,12
   17724:	b02b883a 	mov	r21,r22
   17728:	003f0d06 	br	17360 <_gp+0xffff3300>
   1772c:	8080022c 	andhi	r2,r16,8
   17730:	10000926 	beq	r2,zero,17758 <__muldf3+0x574>
   17734:	8880022c 	andhi	r2,r17,8
   17738:	1000071e 	bne	r2,zero,17758 <__muldf3+0x574>
   1773c:	00800434 	movhi	r2,16
   17740:	89400234 	orhi	r5,r17,8
   17744:	10bfffc4 	addi	r2,r2,-1
   17748:	b82b883a 	mov	r21,r23
   1774c:	288a703a 	and	r5,r5,r2
   17750:	4029883a 	mov	r20,r8
   17754:	003f6806 	br	174f8 <_gp+0xffff3498>
   17758:	00800434 	movhi	r2,16
   1775c:	81400234 	orhi	r5,r16,8
   17760:	10bfffc4 	addi	r2,r2,-1
   17764:	288a703a 	and	r5,r5,r2
   17768:	003f6306 	br	174f8 <_gp+0xffff3498>
   1776c:	147ff604 	addi	r17,r2,-40
   17770:	3462983a 	sll	r17,r6,r17
   17774:	0011883a 	mov	r8,zero
   17778:	003f4406 	br	1748c <_gp+0xffff342c>
   1777c:	3009883a 	mov	r4,r6
   17780:	d9800215 	stw	r6,8(sp)
   17784:	da400115 	stw	r9,4(sp)
   17788:	da800015 	stw	r10,0(sp)
   1778c:	00186b40 	call	186b4 <__clzsi2>
   17790:	10800804 	addi	r2,r2,32
   17794:	da800017 	ldw	r10,0(sp)
   17798:	da400117 	ldw	r9,4(sp)
   1779c:	d9800217 	ldw	r6,8(sp)
   177a0:	003f3006 	br	17464 <_gp+0xffff3404>
   177a4:	143ff604 	addi	r16,r2,-40
   177a8:	9c20983a 	sll	r16,r19,r16
   177ac:	0029883a 	mov	r20,zero
   177b0:	003f1606 	br	1740c <_gp+0xffff33ac>
   177b4:	d9800215 	stw	r6,8(sp)
   177b8:	d9c00015 	stw	r7,0(sp)
   177bc:	da400115 	stw	r9,4(sp)
   177c0:	00186b40 	call	186b4 <__clzsi2>
   177c4:	10800804 	addi	r2,r2,32
   177c8:	da400117 	ldw	r9,4(sp)
   177cc:	d9c00017 	ldw	r7,0(sp)
   177d0:	d9800217 	ldw	r6,8(sp)
   177d4:	003f0306 	br	173e4 <_gp+0xffff3384>
   177d8:	00c00044 	movi	r3,1
   177dc:	1947c83a 	sub	r3,r3,r5
   177e0:	00800e04 	movi	r2,56
   177e4:	10feda16 	blt	r2,r3,17350 <_gp+0xffff32f0>
   177e8:	008007c4 	movi	r2,31
   177ec:	10c01b16 	blt	r2,r3,1785c <__muldf3+0x678>
   177f0:	00800804 	movi	r2,32
   177f4:	10c5c83a 	sub	r2,r2,r3
   177f8:	888a983a 	sll	r5,r17,r2
   177fc:	40c8d83a 	srl	r4,r8,r3
   17800:	4084983a 	sll	r2,r8,r2
   17804:	88e2d83a 	srl	r17,r17,r3
   17808:	2906b03a 	or	r3,r5,r4
   1780c:	1004c03a 	cmpne	r2,r2,zero
   17810:	1886b03a 	or	r3,r3,r2
   17814:	188001cc 	andi	r2,r3,7
   17818:	10000726 	beq	r2,zero,17838 <__muldf3+0x654>
   1781c:	188003cc 	andi	r2,r3,15
   17820:	01000104 	movi	r4,4
   17824:	11000426 	beq	r2,r4,17838 <__muldf3+0x654>
   17828:	1805883a 	mov	r2,r3
   1782c:	10c00104 	addi	r3,r2,4
   17830:	1885803a 	cmpltu	r2,r3,r2
   17834:	88a3883a 	add	r17,r17,r2
   17838:	8880202c 	andhi	r2,r17,128
   1783c:	10001c26 	beq	r2,zero,178b0 <__muldf3+0x6cc>
   17840:	b02b883a 	mov	r21,r22
   17844:	00800044 	movi	r2,1
   17848:	000b883a 	mov	r5,zero
   1784c:	0029883a 	mov	r20,zero
   17850:	003ec306 	br	17360 <_gp+0xffff3300>
   17854:	5805883a 	mov	r2,r11
   17858:	003f9906 	br	176c0 <_gp+0xffff3660>
   1785c:	00bff844 	movi	r2,-31
   17860:	1145c83a 	sub	r2,r2,r5
   17864:	8888d83a 	srl	r4,r17,r2
   17868:	00800804 	movi	r2,32
   1786c:	18801a26 	beq	r3,r2,178d8 <__muldf3+0x6f4>
   17870:	00801004 	movi	r2,64
   17874:	10c5c83a 	sub	r2,r2,r3
   17878:	8884983a 	sll	r2,r17,r2
   1787c:	1204b03a 	or	r2,r2,r8
   17880:	1004c03a 	cmpne	r2,r2,zero
   17884:	2084b03a 	or	r2,r4,r2
   17888:	144001cc 	andi	r17,r2,7
   1788c:	88000d1e 	bne	r17,zero,178c4 <__muldf3+0x6e0>
   17890:	000b883a 	mov	r5,zero
   17894:	1028d0fa 	srli	r20,r2,3
   17898:	b02b883a 	mov	r21,r22
   1789c:	0005883a 	mov	r2,zero
   178a0:	a468b03a 	or	r20,r20,r17
   178a4:	003eae06 	br	17360 <_gp+0xffff3300>
   178a8:	1007883a 	mov	r3,r2
   178ac:	0023883a 	mov	r17,zero
   178b0:	880a927a 	slli	r5,r17,9
   178b4:	1805883a 	mov	r2,r3
   178b8:	8822977a 	slli	r17,r17,29
   178bc:	280ad33a 	srli	r5,r5,12
   178c0:	003ff406 	br	17894 <_gp+0xffff3834>
   178c4:	10c003cc 	andi	r3,r2,15
   178c8:	01000104 	movi	r4,4
   178cc:	193ff626 	beq	r3,r4,178a8 <_gp+0xffff3848>
   178d0:	0023883a 	mov	r17,zero
   178d4:	003fd506 	br	1782c <_gp+0xffff37cc>
   178d8:	0005883a 	mov	r2,zero
   178dc:	003fe706 	br	1787c <_gp+0xffff381c>
   178e0:	00800434 	movhi	r2,16
   178e4:	89400234 	orhi	r5,r17,8
   178e8:	10bfffc4 	addi	r2,r2,-1
   178ec:	b02b883a 	mov	r21,r22
   178f0:	288a703a 	and	r5,r5,r2
   178f4:	4029883a 	mov	r20,r8
   178f8:	003eff06 	br	174f8 <_gp+0xffff3498>

000178fc <__subdf3>:
   178fc:	02000434 	movhi	r8,16
   17900:	423fffc4 	addi	r8,r8,-1
   17904:	defffb04 	addi	sp,sp,-20
   17908:	2a14703a 	and	r10,r5,r8
   1790c:	3812d53a 	srli	r9,r7,20
   17910:	3a10703a 	and	r8,r7,r8
   17914:	2006d77a 	srli	r3,r4,29
   17918:	3004d77a 	srli	r2,r6,29
   1791c:	dc000015 	stw	r16,0(sp)
   17920:	501490fa 	slli	r10,r10,3
   17924:	2820d53a 	srli	r16,r5,20
   17928:	401090fa 	slli	r8,r8,3
   1792c:	dc800215 	stw	r18,8(sp)
   17930:	dc400115 	stw	r17,4(sp)
   17934:	dfc00415 	stw	ra,16(sp)
   17938:	202290fa 	slli	r17,r4,3
   1793c:	dcc00315 	stw	r19,12(sp)
   17940:	4a41ffcc 	andi	r9,r9,2047
   17944:	0101ffc4 	movi	r4,2047
   17948:	2824d7fa 	srli	r18,r5,31
   1794c:	8401ffcc 	andi	r16,r16,2047
   17950:	50c6b03a 	or	r3,r10,r3
   17954:	380ed7fa 	srli	r7,r7,31
   17958:	408ab03a 	or	r5,r8,r2
   1795c:	300c90fa 	slli	r6,r6,3
   17960:	49009626 	beq	r9,r4,17bbc <__subdf3+0x2c0>
   17964:	39c0005c 	xori	r7,r7,1
   17968:	8245c83a 	sub	r2,r16,r9
   1796c:	3c807426 	beq	r7,r18,17b40 <__subdf3+0x244>
   17970:	0080af0e 	bge	zero,r2,17c30 <__subdf3+0x334>
   17974:	48002a1e 	bne	r9,zero,17a20 <__subdf3+0x124>
   17978:	2988b03a 	or	r4,r5,r6
   1797c:	20009a1e 	bne	r4,zero,17be8 <__subdf3+0x2ec>
   17980:	888001cc 	andi	r2,r17,7
   17984:	10000726 	beq	r2,zero,179a4 <__subdf3+0xa8>
   17988:	888003cc 	andi	r2,r17,15
   1798c:	01000104 	movi	r4,4
   17990:	11000426 	beq	r2,r4,179a4 <__subdf3+0xa8>
   17994:	890b883a 	add	r5,r17,r4
   17998:	2c63803a 	cmpltu	r17,r5,r17
   1799c:	1c47883a 	add	r3,r3,r17
   179a0:	2823883a 	mov	r17,r5
   179a4:	1880202c 	andhi	r2,r3,128
   179a8:	10005926 	beq	r2,zero,17b10 <__subdf3+0x214>
   179ac:	84000044 	addi	r16,r16,1
   179b0:	0081ffc4 	movi	r2,2047
   179b4:	8080be26 	beq	r16,r2,17cb0 <__subdf3+0x3b4>
   179b8:	017fe034 	movhi	r5,65408
   179bc:	297fffc4 	addi	r5,r5,-1
   179c0:	1946703a 	and	r3,r3,r5
   179c4:	1804977a 	slli	r2,r3,29
   179c8:	1806927a 	slli	r3,r3,9
   179cc:	8822d0fa 	srli	r17,r17,3
   179d0:	8401ffcc 	andi	r16,r16,2047
   179d4:	180ad33a 	srli	r5,r3,12
   179d8:	9100004c 	andi	r4,r18,1
   179dc:	1444b03a 	or	r2,r2,r17
   179e0:	80c1ffcc 	andi	r3,r16,2047
   179e4:	1820953a 	slli	r16,r3,20
   179e8:	20c03fcc 	andi	r3,r4,255
   179ec:	180897fa 	slli	r4,r3,31
   179f0:	00c00434 	movhi	r3,16
   179f4:	18ffffc4 	addi	r3,r3,-1
   179f8:	28c6703a 	and	r3,r5,r3
   179fc:	1c06b03a 	or	r3,r3,r16
   17a00:	1906b03a 	or	r3,r3,r4
   17a04:	dfc00417 	ldw	ra,16(sp)
   17a08:	dcc00317 	ldw	r19,12(sp)
   17a0c:	dc800217 	ldw	r18,8(sp)
   17a10:	dc400117 	ldw	r17,4(sp)
   17a14:	dc000017 	ldw	r16,0(sp)
   17a18:	dec00504 	addi	sp,sp,20
   17a1c:	f800283a 	ret
   17a20:	0101ffc4 	movi	r4,2047
   17a24:	813fd626 	beq	r16,r4,17980 <_gp+0xffff3920>
   17a28:	29402034 	orhi	r5,r5,128
   17a2c:	01000e04 	movi	r4,56
   17a30:	2080a316 	blt	r4,r2,17cc0 <__subdf3+0x3c4>
   17a34:	010007c4 	movi	r4,31
   17a38:	2080c616 	blt	r4,r2,17d54 <__subdf3+0x458>
   17a3c:	01000804 	movi	r4,32
   17a40:	2089c83a 	sub	r4,r4,r2
   17a44:	2910983a 	sll	r8,r5,r4
   17a48:	308ed83a 	srl	r7,r6,r2
   17a4c:	3108983a 	sll	r4,r6,r4
   17a50:	2884d83a 	srl	r2,r5,r2
   17a54:	41ccb03a 	or	r6,r8,r7
   17a58:	2008c03a 	cmpne	r4,r4,zero
   17a5c:	310cb03a 	or	r6,r6,r4
   17a60:	898dc83a 	sub	r6,r17,r6
   17a64:	89a3803a 	cmpltu	r17,r17,r6
   17a68:	1887c83a 	sub	r3,r3,r2
   17a6c:	1c47c83a 	sub	r3,r3,r17
   17a70:	3023883a 	mov	r17,r6
   17a74:	1880202c 	andhi	r2,r3,128
   17a78:	10002326 	beq	r2,zero,17b08 <__subdf3+0x20c>
   17a7c:	04c02034 	movhi	r19,128
   17a80:	9cffffc4 	addi	r19,r19,-1
   17a84:	1ce6703a 	and	r19,r3,r19
   17a88:	98007a26 	beq	r19,zero,17c74 <__subdf3+0x378>
   17a8c:	9809883a 	mov	r4,r19
   17a90:	00186b40 	call	186b4 <__clzsi2>
   17a94:	113ffe04 	addi	r4,r2,-8
   17a98:	00c007c4 	movi	r3,31
   17a9c:	19007b16 	blt	r3,r4,17c8c <__subdf3+0x390>
   17aa0:	00800804 	movi	r2,32
   17aa4:	1105c83a 	sub	r2,r2,r4
   17aa8:	8884d83a 	srl	r2,r17,r2
   17aac:	9906983a 	sll	r3,r19,r4
   17ab0:	8922983a 	sll	r17,r17,r4
   17ab4:	10c4b03a 	or	r2,r2,r3
   17ab8:	24007816 	blt	r4,r16,17c9c <__subdf3+0x3a0>
   17abc:	2421c83a 	sub	r16,r4,r16
   17ac0:	80c00044 	addi	r3,r16,1
   17ac4:	010007c4 	movi	r4,31
   17ac8:	20c09516 	blt	r4,r3,17d20 <__subdf3+0x424>
   17acc:	01400804 	movi	r5,32
   17ad0:	28cbc83a 	sub	r5,r5,r3
   17ad4:	88c8d83a 	srl	r4,r17,r3
   17ad8:	8962983a 	sll	r17,r17,r5
   17adc:	114a983a 	sll	r5,r2,r5
   17ae0:	10c6d83a 	srl	r3,r2,r3
   17ae4:	8804c03a 	cmpne	r2,r17,zero
   17ae8:	290ab03a 	or	r5,r5,r4
   17aec:	28a2b03a 	or	r17,r5,r2
   17af0:	0021883a 	mov	r16,zero
   17af4:	003fa206 	br	17980 <_gp+0xffff3920>
   17af8:	2090b03a 	or	r8,r4,r2
   17afc:	40018e26 	beq	r8,zero,18138 <__subdf3+0x83c>
   17b00:	1007883a 	mov	r3,r2
   17b04:	2023883a 	mov	r17,r4
   17b08:	888001cc 	andi	r2,r17,7
   17b0c:	103f9e1e 	bne	r2,zero,17988 <_gp+0xffff3928>
   17b10:	1804977a 	slli	r2,r3,29
   17b14:	8822d0fa 	srli	r17,r17,3
   17b18:	1810d0fa 	srli	r8,r3,3
   17b1c:	9100004c 	andi	r4,r18,1
   17b20:	1444b03a 	or	r2,r2,r17
   17b24:	00c1ffc4 	movi	r3,2047
   17b28:	80c02826 	beq	r16,r3,17bcc <__subdf3+0x2d0>
   17b2c:	01400434 	movhi	r5,16
   17b30:	297fffc4 	addi	r5,r5,-1
   17b34:	80e0703a 	and	r16,r16,r3
   17b38:	414a703a 	and	r5,r8,r5
   17b3c:	003fa806 	br	179e0 <_gp+0xffff3980>
   17b40:	0080630e 	bge	zero,r2,17cd0 <__subdf3+0x3d4>
   17b44:	48003026 	beq	r9,zero,17c08 <__subdf3+0x30c>
   17b48:	0101ffc4 	movi	r4,2047
   17b4c:	813f8c26 	beq	r16,r4,17980 <_gp+0xffff3920>
   17b50:	29402034 	orhi	r5,r5,128
   17b54:	01000e04 	movi	r4,56
   17b58:	2080a90e 	bge	r4,r2,17e00 <__subdf3+0x504>
   17b5c:	298cb03a 	or	r6,r5,r6
   17b60:	3012c03a 	cmpne	r9,r6,zero
   17b64:	0005883a 	mov	r2,zero
   17b68:	4c53883a 	add	r9,r9,r17
   17b6c:	4c63803a 	cmpltu	r17,r9,r17
   17b70:	10c7883a 	add	r3,r2,r3
   17b74:	88c7883a 	add	r3,r17,r3
   17b78:	4823883a 	mov	r17,r9
   17b7c:	1880202c 	andhi	r2,r3,128
   17b80:	1000d026 	beq	r2,zero,17ec4 <__subdf3+0x5c8>
   17b84:	84000044 	addi	r16,r16,1
   17b88:	0081ffc4 	movi	r2,2047
   17b8c:	8080fe26 	beq	r16,r2,17f88 <__subdf3+0x68c>
   17b90:	00bfe034 	movhi	r2,65408
   17b94:	10bfffc4 	addi	r2,r2,-1
   17b98:	1886703a 	and	r3,r3,r2
   17b9c:	880ad07a 	srli	r5,r17,1
   17ba0:	180497fa 	slli	r2,r3,31
   17ba4:	8900004c 	andi	r4,r17,1
   17ba8:	2922b03a 	or	r17,r5,r4
   17bac:	1806d07a 	srli	r3,r3,1
   17bb0:	1462b03a 	or	r17,r2,r17
   17bb4:	3825883a 	mov	r18,r7
   17bb8:	003f7106 	br	17980 <_gp+0xffff3920>
   17bbc:	2984b03a 	or	r2,r5,r6
   17bc0:	103f6826 	beq	r2,zero,17964 <_gp+0xffff3904>
   17bc4:	39c03fcc 	andi	r7,r7,255
   17bc8:	003f6706 	br	17968 <_gp+0xffff3908>
   17bcc:	4086b03a 	or	r3,r8,r2
   17bd0:	18015226 	beq	r3,zero,1811c <__subdf3+0x820>
   17bd4:	00c00434 	movhi	r3,16
   17bd8:	41400234 	orhi	r5,r8,8
   17bdc:	18ffffc4 	addi	r3,r3,-1
   17be0:	28ca703a 	and	r5,r5,r3
   17be4:	003f7e06 	br	179e0 <_gp+0xffff3980>
   17be8:	10bfffc4 	addi	r2,r2,-1
   17bec:	1000491e 	bne	r2,zero,17d14 <__subdf3+0x418>
   17bf0:	898fc83a 	sub	r7,r17,r6
   17bf4:	89e3803a 	cmpltu	r17,r17,r7
   17bf8:	1947c83a 	sub	r3,r3,r5
   17bfc:	1c47c83a 	sub	r3,r3,r17
   17c00:	3823883a 	mov	r17,r7
   17c04:	003f9b06 	br	17a74 <_gp+0xffff3a14>
   17c08:	2988b03a 	or	r4,r5,r6
   17c0c:	203f5c26 	beq	r4,zero,17980 <_gp+0xffff3920>
   17c10:	10bfffc4 	addi	r2,r2,-1
   17c14:	1000931e 	bne	r2,zero,17e64 <__subdf3+0x568>
   17c18:	898d883a 	add	r6,r17,r6
   17c1c:	3463803a 	cmpltu	r17,r6,r17
   17c20:	1947883a 	add	r3,r3,r5
   17c24:	88c7883a 	add	r3,r17,r3
   17c28:	3023883a 	mov	r17,r6
   17c2c:	003fd306 	br	17b7c <_gp+0xffff3b1c>
   17c30:	1000541e 	bne	r2,zero,17d84 <__subdf3+0x488>
   17c34:	80800044 	addi	r2,r16,1
   17c38:	1081ffcc 	andi	r2,r2,2047
   17c3c:	01000044 	movi	r4,1
   17c40:	2080a20e 	bge	r4,r2,17ecc <__subdf3+0x5d0>
   17c44:	8989c83a 	sub	r4,r17,r6
   17c48:	8905803a 	cmpltu	r2,r17,r4
   17c4c:	1967c83a 	sub	r19,r3,r5
   17c50:	98a7c83a 	sub	r19,r19,r2
   17c54:	9880202c 	andhi	r2,r19,128
   17c58:	10006326 	beq	r2,zero,17de8 <__subdf3+0x4ec>
   17c5c:	3463c83a 	sub	r17,r6,r17
   17c60:	28c7c83a 	sub	r3,r5,r3
   17c64:	344d803a 	cmpltu	r6,r6,r17
   17c68:	19a7c83a 	sub	r19,r3,r6
   17c6c:	3825883a 	mov	r18,r7
   17c70:	983f861e 	bne	r19,zero,17a8c <_gp+0xffff3a2c>
   17c74:	8809883a 	mov	r4,r17
   17c78:	00186b40 	call	186b4 <__clzsi2>
   17c7c:	10800804 	addi	r2,r2,32
   17c80:	113ffe04 	addi	r4,r2,-8
   17c84:	00c007c4 	movi	r3,31
   17c88:	193f850e 	bge	r3,r4,17aa0 <_gp+0xffff3a40>
   17c8c:	10bff604 	addi	r2,r2,-40
   17c90:	8884983a 	sll	r2,r17,r2
   17c94:	0023883a 	mov	r17,zero
   17c98:	243f880e 	bge	r4,r16,17abc <_gp+0xffff3a5c>
   17c9c:	00ffe034 	movhi	r3,65408
   17ca0:	18ffffc4 	addi	r3,r3,-1
   17ca4:	8121c83a 	sub	r16,r16,r4
   17ca8:	10c6703a 	and	r3,r2,r3
   17cac:	003f3406 	br	17980 <_gp+0xffff3920>
   17cb0:	9100004c 	andi	r4,r18,1
   17cb4:	000b883a 	mov	r5,zero
   17cb8:	0005883a 	mov	r2,zero
   17cbc:	003f4806 	br	179e0 <_gp+0xffff3980>
   17cc0:	298cb03a 	or	r6,r5,r6
   17cc4:	300cc03a 	cmpne	r6,r6,zero
   17cc8:	0005883a 	mov	r2,zero
   17ccc:	003f6406 	br	17a60 <_gp+0xffff3a00>
   17cd0:	10009a1e 	bne	r2,zero,17f3c <__subdf3+0x640>
   17cd4:	82400044 	addi	r9,r16,1
   17cd8:	4881ffcc 	andi	r2,r9,2047
   17cdc:	02800044 	movi	r10,1
   17ce0:	5080670e 	bge	r10,r2,17e80 <__subdf3+0x584>
   17ce4:	0081ffc4 	movi	r2,2047
   17ce8:	4880af26 	beq	r9,r2,17fa8 <__subdf3+0x6ac>
   17cec:	898d883a 	add	r6,r17,r6
   17cf0:	1945883a 	add	r2,r3,r5
   17cf4:	3447803a 	cmpltu	r3,r6,r17
   17cf8:	1887883a 	add	r3,r3,r2
   17cfc:	182297fa 	slli	r17,r3,31
   17d00:	300cd07a 	srli	r6,r6,1
   17d04:	1806d07a 	srli	r3,r3,1
   17d08:	4821883a 	mov	r16,r9
   17d0c:	89a2b03a 	or	r17,r17,r6
   17d10:	003f1b06 	br	17980 <_gp+0xffff3920>
   17d14:	0101ffc4 	movi	r4,2047
   17d18:	813f441e 	bne	r16,r4,17a2c <_gp+0xffff39cc>
   17d1c:	003f1806 	br	17980 <_gp+0xffff3920>
   17d20:	843ff844 	addi	r16,r16,-31
   17d24:	01400804 	movi	r5,32
   17d28:	1408d83a 	srl	r4,r2,r16
   17d2c:	19405026 	beq	r3,r5,17e70 <__subdf3+0x574>
   17d30:	01401004 	movi	r5,64
   17d34:	28c7c83a 	sub	r3,r5,r3
   17d38:	10c4983a 	sll	r2,r2,r3
   17d3c:	88a2b03a 	or	r17,r17,r2
   17d40:	8822c03a 	cmpne	r17,r17,zero
   17d44:	2462b03a 	or	r17,r4,r17
   17d48:	0007883a 	mov	r3,zero
   17d4c:	0021883a 	mov	r16,zero
   17d50:	003f6d06 	br	17b08 <_gp+0xffff3aa8>
   17d54:	11fff804 	addi	r7,r2,-32
   17d58:	01000804 	movi	r4,32
   17d5c:	29ced83a 	srl	r7,r5,r7
   17d60:	11004526 	beq	r2,r4,17e78 <__subdf3+0x57c>
   17d64:	01001004 	movi	r4,64
   17d68:	2089c83a 	sub	r4,r4,r2
   17d6c:	2904983a 	sll	r2,r5,r4
   17d70:	118cb03a 	or	r6,r2,r6
   17d74:	300cc03a 	cmpne	r6,r6,zero
   17d78:	398cb03a 	or	r6,r7,r6
   17d7c:	0005883a 	mov	r2,zero
   17d80:	003f3706 	br	17a60 <_gp+0xffff3a00>
   17d84:	80002a26 	beq	r16,zero,17e30 <__subdf3+0x534>
   17d88:	0101ffc4 	movi	r4,2047
   17d8c:	49006626 	beq	r9,r4,17f28 <__subdf3+0x62c>
   17d90:	0085c83a 	sub	r2,zero,r2
   17d94:	18c02034 	orhi	r3,r3,128
   17d98:	01000e04 	movi	r4,56
   17d9c:	20807e16 	blt	r4,r2,17f98 <__subdf3+0x69c>
   17da0:	010007c4 	movi	r4,31
   17da4:	2080e716 	blt	r4,r2,18144 <__subdf3+0x848>
   17da8:	01000804 	movi	r4,32
   17dac:	2089c83a 	sub	r4,r4,r2
   17db0:	1914983a 	sll	r10,r3,r4
   17db4:	8890d83a 	srl	r8,r17,r2
   17db8:	8908983a 	sll	r4,r17,r4
   17dbc:	1884d83a 	srl	r2,r3,r2
   17dc0:	5222b03a 	or	r17,r10,r8
   17dc4:	2006c03a 	cmpne	r3,r4,zero
   17dc8:	88e2b03a 	or	r17,r17,r3
   17dcc:	3463c83a 	sub	r17,r6,r17
   17dd0:	2885c83a 	sub	r2,r5,r2
   17dd4:	344d803a 	cmpltu	r6,r6,r17
   17dd8:	1187c83a 	sub	r3,r2,r6
   17ddc:	4821883a 	mov	r16,r9
   17de0:	3825883a 	mov	r18,r7
   17de4:	003f2306 	br	17a74 <_gp+0xffff3a14>
   17de8:	24d0b03a 	or	r8,r4,r19
   17dec:	40001b1e 	bne	r8,zero,17e5c <__subdf3+0x560>
   17df0:	0005883a 	mov	r2,zero
   17df4:	0009883a 	mov	r4,zero
   17df8:	0021883a 	mov	r16,zero
   17dfc:	003f4906 	br	17b24 <_gp+0xffff3ac4>
   17e00:	010007c4 	movi	r4,31
   17e04:	20803a16 	blt	r4,r2,17ef0 <__subdf3+0x5f4>
   17e08:	01000804 	movi	r4,32
   17e0c:	2089c83a 	sub	r4,r4,r2
   17e10:	2912983a 	sll	r9,r5,r4
   17e14:	3090d83a 	srl	r8,r6,r2
   17e18:	3108983a 	sll	r4,r6,r4
   17e1c:	2884d83a 	srl	r2,r5,r2
   17e20:	4a12b03a 	or	r9,r9,r8
   17e24:	2008c03a 	cmpne	r4,r4,zero
   17e28:	4912b03a 	or	r9,r9,r4
   17e2c:	003f4e06 	br	17b68 <_gp+0xffff3b08>
   17e30:	1c48b03a 	or	r4,r3,r17
   17e34:	20003c26 	beq	r4,zero,17f28 <__subdf3+0x62c>
   17e38:	0084303a 	nor	r2,zero,r2
   17e3c:	1000381e 	bne	r2,zero,17f20 <__subdf3+0x624>
   17e40:	3463c83a 	sub	r17,r6,r17
   17e44:	28c5c83a 	sub	r2,r5,r3
   17e48:	344d803a 	cmpltu	r6,r6,r17
   17e4c:	1187c83a 	sub	r3,r2,r6
   17e50:	4821883a 	mov	r16,r9
   17e54:	3825883a 	mov	r18,r7
   17e58:	003f0606 	br	17a74 <_gp+0xffff3a14>
   17e5c:	2023883a 	mov	r17,r4
   17e60:	003f0906 	br	17a88 <_gp+0xffff3a28>
   17e64:	0101ffc4 	movi	r4,2047
   17e68:	813f3a1e 	bne	r16,r4,17b54 <_gp+0xffff3af4>
   17e6c:	003ec406 	br	17980 <_gp+0xffff3920>
   17e70:	0005883a 	mov	r2,zero
   17e74:	003fb106 	br	17d3c <_gp+0xffff3cdc>
   17e78:	0005883a 	mov	r2,zero
   17e7c:	003fbc06 	br	17d70 <_gp+0xffff3d10>
   17e80:	1c44b03a 	or	r2,r3,r17
   17e84:	80008e1e 	bne	r16,zero,180c0 <__subdf3+0x7c4>
   17e88:	1000c826 	beq	r2,zero,181ac <__subdf3+0x8b0>
   17e8c:	2984b03a 	or	r2,r5,r6
   17e90:	103ebb26 	beq	r2,zero,17980 <_gp+0xffff3920>
   17e94:	8989883a 	add	r4,r17,r6
   17e98:	1945883a 	add	r2,r3,r5
   17e9c:	2447803a 	cmpltu	r3,r4,r17
   17ea0:	1887883a 	add	r3,r3,r2
   17ea4:	1880202c 	andhi	r2,r3,128
   17ea8:	2023883a 	mov	r17,r4
   17eac:	103f1626 	beq	r2,zero,17b08 <_gp+0xffff3aa8>
   17eb0:	00bfe034 	movhi	r2,65408
   17eb4:	10bfffc4 	addi	r2,r2,-1
   17eb8:	5021883a 	mov	r16,r10
   17ebc:	1886703a 	and	r3,r3,r2
   17ec0:	003eaf06 	br	17980 <_gp+0xffff3920>
   17ec4:	3825883a 	mov	r18,r7
   17ec8:	003f0f06 	br	17b08 <_gp+0xffff3aa8>
   17ecc:	1c44b03a 	or	r2,r3,r17
   17ed0:	8000251e 	bne	r16,zero,17f68 <__subdf3+0x66c>
   17ed4:	1000661e 	bne	r2,zero,18070 <__subdf3+0x774>
   17ed8:	2990b03a 	or	r8,r5,r6
   17edc:	40009626 	beq	r8,zero,18138 <__subdf3+0x83c>
   17ee0:	2807883a 	mov	r3,r5
   17ee4:	3023883a 	mov	r17,r6
   17ee8:	3825883a 	mov	r18,r7
   17eec:	003ea406 	br	17980 <_gp+0xffff3920>
   17ef0:	127ff804 	addi	r9,r2,-32
   17ef4:	01000804 	movi	r4,32
   17ef8:	2a52d83a 	srl	r9,r5,r9
   17efc:	11008c26 	beq	r2,r4,18130 <__subdf3+0x834>
   17f00:	01001004 	movi	r4,64
   17f04:	2085c83a 	sub	r2,r4,r2
   17f08:	2884983a 	sll	r2,r5,r2
   17f0c:	118cb03a 	or	r6,r2,r6
   17f10:	300cc03a 	cmpne	r6,r6,zero
   17f14:	4992b03a 	or	r9,r9,r6
   17f18:	0005883a 	mov	r2,zero
   17f1c:	003f1206 	br	17b68 <_gp+0xffff3b08>
   17f20:	0101ffc4 	movi	r4,2047
   17f24:	493f9c1e 	bne	r9,r4,17d98 <_gp+0xffff3d38>
   17f28:	2807883a 	mov	r3,r5
   17f2c:	3023883a 	mov	r17,r6
   17f30:	4821883a 	mov	r16,r9
   17f34:	3825883a 	mov	r18,r7
   17f38:	003e9106 	br	17980 <_gp+0xffff3920>
   17f3c:	80001f1e 	bne	r16,zero,17fbc <__subdf3+0x6c0>
   17f40:	1c48b03a 	or	r4,r3,r17
   17f44:	20005a26 	beq	r4,zero,180b0 <__subdf3+0x7b4>
   17f48:	0084303a 	nor	r2,zero,r2
   17f4c:	1000561e 	bne	r2,zero,180a8 <__subdf3+0x7ac>
   17f50:	89a3883a 	add	r17,r17,r6
   17f54:	1945883a 	add	r2,r3,r5
   17f58:	898d803a 	cmpltu	r6,r17,r6
   17f5c:	3087883a 	add	r3,r6,r2
   17f60:	4821883a 	mov	r16,r9
   17f64:	003f0506 	br	17b7c <_gp+0xffff3b1c>
   17f68:	10002b1e 	bne	r2,zero,18018 <__subdf3+0x71c>
   17f6c:	2984b03a 	or	r2,r5,r6
   17f70:	10008026 	beq	r2,zero,18174 <__subdf3+0x878>
   17f74:	2807883a 	mov	r3,r5
   17f78:	3023883a 	mov	r17,r6
   17f7c:	3825883a 	mov	r18,r7
   17f80:	0401ffc4 	movi	r16,2047
   17f84:	003e7e06 	br	17980 <_gp+0xffff3920>
   17f88:	3809883a 	mov	r4,r7
   17f8c:	0011883a 	mov	r8,zero
   17f90:	0005883a 	mov	r2,zero
   17f94:	003ee306 	br	17b24 <_gp+0xffff3ac4>
   17f98:	1c62b03a 	or	r17,r3,r17
   17f9c:	8822c03a 	cmpne	r17,r17,zero
   17fa0:	0005883a 	mov	r2,zero
   17fa4:	003f8906 	br	17dcc <_gp+0xffff3d6c>
   17fa8:	3809883a 	mov	r4,r7
   17fac:	4821883a 	mov	r16,r9
   17fb0:	0011883a 	mov	r8,zero
   17fb4:	0005883a 	mov	r2,zero
   17fb8:	003eda06 	br	17b24 <_gp+0xffff3ac4>
   17fbc:	0101ffc4 	movi	r4,2047
   17fc0:	49003b26 	beq	r9,r4,180b0 <__subdf3+0x7b4>
   17fc4:	0085c83a 	sub	r2,zero,r2
   17fc8:	18c02034 	orhi	r3,r3,128
   17fcc:	01000e04 	movi	r4,56
   17fd0:	20806e16 	blt	r4,r2,1818c <__subdf3+0x890>
   17fd4:	010007c4 	movi	r4,31
   17fd8:	20807716 	blt	r4,r2,181b8 <__subdf3+0x8bc>
   17fdc:	01000804 	movi	r4,32
   17fe0:	2089c83a 	sub	r4,r4,r2
   17fe4:	1914983a 	sll	r10,r3,r4
   17fe8:	8890d83a 	srl	r8,r17,r2
   17fec:	8908983a 	sll	r4,r17,r4
   17ff0:	1884d83a 	srl	r2,r3,r2
   17ff4:	5222b03a 	or	r17,r10,r8
   17ff8:	2006c03a 	cmpne	r3,r4,zero
   17ffc:	88e2b03a 	or	r17,r17,r3
   18000:	89a3883a 	add	r17,r17,r6
   18004:	1145883a 	add	r2,r2,r5
   18008:	898d803a 	cmpltu	r6,r17,r6
   1800c:	3087883a 	add	r3,r6,r2
   18010:	4821883a 	mov	r16,r9
   18014:	003ed906 	br	17b7c <_gp+0xffff3b1c>
   18018:	2984b03a 	or	r2,r5,r6
   1801c:	10004226 	beq	r2,zero,18128 <__subdf3+0x82c>
   18020:	1808d0fa 	srli	r4,r3,3
   18024:	8822d0fa 	srli	r17,r17,3
   18028:	1806977a 	slli	r3,r3,29
   1802c:	2080022c 	andhi	r2,r4,8
   18030:	1c62b03a 	or	r17,r3,r17
   18034:	10000826 	beq	r2,zero,18058 <__subdf3+0x75c>
   18038:	2812d0fa 	srli	r9,r5,3
   1803c:	4880022c 	andhi	r2,r9,8
   18040:	1000051e 	bne	r2,zero,18058 <__subdf3+0x75c>
   18044:	300cd0fa 	srli	r6,r6,3
   18048:	2804977a 	slli	r2,r5,29
   1804c:	4809883a 	mov	r4,r9
   18050:	3825883a 	mov	r18,r7
   18054:	11a2b03a 	or	r17,r2,r6
   18058:	8806d77a 	srli	r3,r17,29
   1805c:	200890fa 	slli	r4,r4,3
   18060:	882290fa 	slli	r17,r17,3
   18064:	0401ffc4 	movi	r16,2047
   18068:	1906b03a 	or	r3,r3,r4
   1806c:	003e4406 	br	17980 <_gp+0xffff3920>
   18070:	2984b03a 	or	r2,r5,r6
   18074:	103e4226 	beq	r2,zero,17980 <_gp+0xffff3920>
   18078:	8989c83a 	sub	r4,r17,r6
   1807c:	8911803a 	cmpltu	r8,r17,r4
   18080:	1945c83a 	sub	r2,r3,r5
   18084:	1205c83a 	sub	r2,r2,r8
   18088:	1200202c 	andhi	r8,r2,128
   1808c:	403e9a26 	beq	r8,zero,17af8 <_gp+0xffff3a98>
   18090:	3463c83a 	sub	r17,r6,r17
   18094:	28c5c83a 	sub	r2,r5,r3
   18098:	344d803a 	cmpltu	r6,r6,r17
   1809c:	1187c83a 	sub	r3,r2,r6
   180a0:	3825883a 	mov	r18,r7
   180a4:	003e3606 	br	17980 <_gp+0xffff3920>
   180a8:	0101ffc4 	movi	r4,2047
   180ac:	493fc71e 	bne	r9,r4,17fcc <_gp+0xffff3f6c>
   180b0:	2807883a 	mov	r3,r5
   180b4:	3023883a 	mov	r17,r6
   180b8:	4821883a 	mov	r16,r9
   180bc:	003e3006 	br	17980 <_gp+0xffff3920>
   180c0:	10003626 	beq	r2,zero,1819c <__subdf3+0x8a0>
   180c4:	2984b03a 	or	r2,r5,r6
   180c8:	10001726 	beq	r2,zero,18128 <__subdf3+0x82c>
   180cc:	1808d0fa 	srli	r4,r3,3
   180d0:	8822d0fa 	srli	r17,r17,3
   180d4:	1806977a 	slli	r3,r3,29
   180d8:	2080022c 	andhi	r2,r4,8
   180dc:	1c62b03a 	or	r17,r3,r17
   180e0:	10000726 	beq	r2,zero,18100 <__subdf3+0x804>
   180e4:	2812d0fa 	srli	r9,r5,3
   180e8:	4880022c 	andhi	r2,r9,8
   180ec:	1000041e 	bne	r2,zero,18100 <__subdf3+0x804>
   180f0:	300cd0fa 	srli	r6,r6,3
   180f4:	2804977a 	slli	r2,r5,29
   180f8:	4809883a 	mov	r4,r9
   180fc:	11a2b03a 	or	r17,r2,r6
   18100:	8806d77a 	srli	r3,r17,29
   18104:	200890fa 	slli	r4,r4,3
   18108:	882290fa 	slli	r17,r17,3
   1810c:	3825883a 	mov	r18,r7
   18110:	1906b03a 	or	r3,r3,r4
   18114:	0401ffc4 	movi	r16,2047
   18118:	003e1906 	br	17980 <_gp+0xffff3920>
   1811c:	000b883a 	mov	r5,zero
   18120:	0005883a 	mov	r2,zero
   18124:	003e2e06 	br	179e0 <_gp+0xffff3980>
   18128:	0401ffc4 	movi	r16,2047
   1812c:	003e1406 	br	17980 <_gp+0xffff3920>
   18130:	0005883a 	mov	r2,zero
   18134:	003f7506 	br	17f0c <_gp+0xffff3eac>
   18138:	0005883a 	mov	r2,zero
   1813c:	0009883a 	mov	r4,zero
   18140:	003e7806 	br	17b24 <_gp+0xffff3ac4>
   18144:	123ff804 	addi	r8,r2,-32
   18148:	01000804 	movi	r4,32
   1814c:	1a10d83a 	srl	r8,r3,r8
   18150:	11002526 	beq	r2,r4,181e8 <__subdf3+0x8ec>
   18154:	01001004 	movi	r4,64
   18158:	2085c83a 	sub	r2,r4,r2
   1815c:	1884983a 	sll	r2,r3,r2
   18160:	1444b03a 	or	r2,r2,r17
   18164:	1004c03a 	cmpne	r2,r2,zero
   18168:	40a2b03a 	or	r17,r8,r2
   1816c:	0005883a 	mov	r2,zero
   18170:	003f1606 	br	17dcc <_gp+0xffff3d6c>
   18174:	02000434 	movhi	r8,16
   18178:	0009883a 	mov	r4,zero
   1817c:	423fffc4 	addi	r8,r8,-1
   18180:	00bfffc4 	movi	r2,-1
   18184:	0401ffc4 	movi	r16,2047
   18188:	003e6606 	br	17b24 <_gp+0xffff3ac4>
   1818c:	1c62b03a 	or	r17,r3,r17
   18190:	8822c03a 	cmpne	r17,r17,zero
   18194:	0005883a 	mov	r2,zero
   18198:	003f9906 	br	18000 <_gp+0xffff3fa0>
   1819c:	2807883a 	mov	r3,r5
   181a0:	3023883a 	mov	r17,r6
   181a4:	0401ffc4 	movi	r16,2047
   181a8:	003df506 	br	17980 <_gp+0xffff3920>
   181ac:	2807883a 	mov	r3,r5
   181b0:	3023883a 	mov	r17,r6
   181b4:	003df206 	br	17980 <_gp+0xffff3920>
   181b8:	123ff804 	addi	r8,r2,-32
   181bc:	01000804 	movi	r4,32
   181c0:	1a10d83a 	srl	r8,r3,r8
   181c4:	11000a26 	beq	r2,r4,181f0 <__subdf3+0x8f4>
   181c8:	01001004 	movi	r4,64
   181cc:	2085c83a 	sub	r2,r4,r2
   181d0:	1884983a 	sll	r2,r3,r2
   181d4:	1444b03a 	or	r2,r2,r17
   181d8:	1004c03a 	cmpne	r2,r2,zero
   181dc:	40a2b03a 	or	r17,r8,r2
   181e0:	0005883a 	mov	r2,zero
   181e4:	003f8606 	br	18000 <_gp+0xffff3fa0>
   181e8:	0005883a 	mov	r2,zero
   181ec:	003fdc06 	br	18160 <_gp+0xffff4100>
   181f0:	0005883a 	mov	r2,zero
   181f4:	003ff706 	br	181d4 <_gp+0xffff4174>

000181f8 <__fixdfsi>:
   181f8:	280cd53a 	srli	r6,r5,20
   181fc:	00c00434 	movhi	r3,16
   18200:	18ffffc4 	addi	r3,r3,-1
   18204:	3181ffcc 	andi	r6,r6,2047
   18208:	01c0ff84 	movi	r7,1022
   1820c:	28c6703a 	and	r3,r5,r3
   18210:	280ad7fa 	srli	r5,r5,31
   18214:	3980120e 	bge	r7,r6,18260 <__fixdfsi+0x68>
   18218:	00810744 	movi	r2,1053
   1821c:	11800c16 	blt	r2,r6,18250 <__fixdfsi+0x58>
   18220:	00810cc4 	movi	r2,1075
   18224:	1185c83a 	sub	r2,r2,r6
   18228:	01c007c4 	movi	r7,31
   1822c:	18c00434 	orhi	r3,r3,16
   18230:	38800d16 	blt	r7,r2,18268 <__fixdfsi+0x70>
   18234:	31befb44 	addi	r6,r6,-1043
   18238:	2084d83a 	srl	r2,r4,r2
   1823c:	1986983a 	sll	r3,r3,r6
   18240:	1884b03a 	or	r2,r3,r2
   18244:	28000726 	beq	r5,zero,18264 <__fixdfsi+0x6c>
   18248:	0085c83a 	sub	r2,zero,r2
   1824c:	f800283a 	ret
   18250:	00a00034 	movhi	r2,32768
   18254:	10bfffc4 	addi	r2,r2,-1
   18258:	2885883a 	add	r2,r5,r2
   1825c:	f800283a 	ret
   18260:	0005883a 	mov	r2,zero
   18264:	f800283a 	ret
   18268:	008104c4 	movi	r2,1043
   1826c:	1185c83a 	sub	r2,r2,r6
   18270:	1884d83a 	srl	r2,r3,r2
   18274:	003ff306 	br	18244 <_gp+0xffff41e4>

00018278 <__floatsidf>:
   18278:	defffd04 	addi	sp,sp,-12
   1827c:	dfc00215 	stw	ra,8(sp)
   18280:	dc400115 	stw	r17,4(sp)
   18284:	dc000015 	stw	r16,0(sp)
   18288:	20002b26 	beq	r4,zero,18338 <__floatsidf+0xc0>
   1828c:	2023883a 	mov	r17,r4
   18290:	2020d7fa 	srli	r16,r4,31
   18294:	20002d16 	blt	r4,zero,1834c <__floatsidf+0xd4>
   18298:	8809883a 	mov	r4,r17
   1829c:	00186b40 	call	186b4 <__clzsi2>
   182a0:	01410784 	movi	r5,1054
   182a4:	288bc83a 	sub	r5,r5,r2
   182a8:	01010cc4 	movi	r4,1075
   182ac:	2149c83a 	sub	r4,r4,r5
   182b0:	00c007c4 	movi	r3,31
   182b4:	1900160e 	bge	r3,r4,18310 <__floatsidf+0x98>
   182b8:	00c104c4 	movi	r3,1043
   182bc:	1947c83a 	sub	r3,r3,r5
   182c0:	88c6983a 	sll	r3,r17,r3
   182c4:	00800434 	movhi	r2,16
   182c8:	10bfffc4 	addi	r2,r2,-1
   182cc:	1886703a 	and	r3,r3,r2
   182d0:	2941ffcc 	andi	r5,r5,2047
   182d4:	800d883a 	mov	r6,r16
   182d8:	0005883a 	mov	r2,zero
   182dc:	280a953a 	slli	r5,r5,20
   182e0:	31803fcc 	andi	r6,r6,255
   182e4:	01000434 	movhi	r4,16
   182e8:	300c97fa 	slli	r6,r6,31
   182ec:	213fffc4 	addi	r4,r4,-1
   182f0:	1906703a 	and	r3,r3,r4
   182f4:	1946b03a 	or	r3,r3,r5
   182f8:	1986b03a 	or	r3,r3,r6
   182fc:	dfc00217 	ldw	ra,8(sp)
   18300:	dc400117 	ldw	r17,4(sp)
   18304:	dc000017 	ldw	r16,0(sp)
   18308:	dec00304 	addi	sp,sp,12
   1830c:	f800283a 	ret
   18310:	00c002c4 	movi	r3,11
   18314:	1887c83a 	sub	r3,r3,r2
   18318:	88c6d83a 	srl	r3,r17,r3
   1831c:	8904983a 	sll	r2,r17,r4
   18320:	01000434 	movhi	r4,16
   18324:	213fffc4 	addi	r4,r4,-1
   18328:	2941ffcc 	andi	r5,r5,2047
   1832c:	1906703a 	and	r3,r3,r4
   18330:	800d883a 	mov	r6,r16
   18334:	003fe906 	br	182dc <_gp+0xffff427c>
   18338:	000d883a 	mov	r6,zero
   1833c:	000b883a 	mov	r5,zero
   18340:	0007883a 	mov	r3,zero
   18344:	0005883a 	mov	r2,zero
   18348:	003fe406 	br	182dc <_gp+0xffff427c>
   1834c:	0123c83a 	sub	r17,zero,r4
   18350:	003fd106 	br	18298 <_gp+0xffff4238>

00018354 <__floatunsidf>:
   18354:	defffe04 	addi	sp,sp,-8
   18358:	dc000015 	stw	r16,0(sp)
   1835c:	dfc00115 	stw	ra,4(sp)
   18360:	2021883a 	mov	r16,r4
   18364:	20002226 	beq	r4,zero,183f0 <__floatunsidf+0x9c>
   18368:	00186b40 	call	186b4 <__clzsi2>
   1836c:	01010784 	movi	r4,1054
   18370:	2089c83a 	sub	r4,r4,r2
   18374:	01810cc4 	movi	r6,1075
   18378:	310dc83a 	sub	r6,r6,r4
   1837c:	00c007c4 	movi	r3,31
   18380:	1980120e 	bge	r3,r6,183cc <__floatunsidf+0x78>
   18384:	00c104c4 	movi	r3,1043
   18388:	1907c83a 	sub	r3,r3,r4
   1838c:	80ca983a 	sll	r5,r16,r3
   18390:	00800434 	movhi	r2,16
   18394:	10bfffc4 	addi	r2,r2,-1
   18398:	2101ffcc 	andi	r4,r4,2047
   1839c:	0021883a 	mov	r16,zero
   183a0:	288a703a 	and	r5,r5,r2
   183a4:	2008953a 	slli	r4,r4,20
   183a8:	00c00434 	movhi	r3,16
   183ac:	18ffffc4 	addi	r3,r3,-1
   183b0:	28c6703a 	and	r3,r5,r3
   183b4:	8005883a 	mov	r2,r16
   183b8:	1906b03a 	or	r3,r3,r4
   183bc:	dfc00117 	ldw	ra,4(sp)
   183c0:	dc000017 	ldw	r16,0(sp)
   183c4:	dec00204 	addi	sp,sp,8
   183c8:	f800283a 	ret
   183cc:	00c002c4 	movi	r3,11
   183d0:	188bc83a 	sub	r5,r3,r2
   183d4:	814ad83a 	srl	r5,r16,r5
   183d8:	00c00434 	movhi	r3,16
   183dc:	18ffffc4 	addi	r3,r3,-1
   183e0:	81a0983a 	sll	r16,r16,r6
   183e4:	2101ffcc 	andi	r4,r4,2047
   183e8:	28ca703a 	and	r5,r5,r3
   183ec:	003fed06 	br	183a4 <_gp+0xffff4344>
   183f0:	0009883a 	mov	r4,zero
   183f4:	000b883a 	mov	r5,zero
   183f8:	003fea06 	br	183a4 <_gp+0xffff4344>

000183fc <__extendsfdf2>:
   183fc:	200ad5fa 	srli	r5,r4,23
   18400:	defffd04 	addi	sp,sp,-12
   18404:	dc400115 	stw	r17,4(sp)
   18408:	29403fcc 	andi	r5,r5,255
   1840c:	29800044 	addi	r6,r5,1
   18410:	04402034 	movhi	r17,128
   18414:	dc000015 	stw	r16,0(sp)
   18418:	8c7fffc4 	addi	r17,r17,-1
   1841c:	dfc00215 	stw	ra,8(sp)
   18420:	31803fcc 	andi	r6,r6,255
   18424:	00800044 	movi	r2,1
   18428:	8922703a 	and	r17,r17,r4
   1842c:	2020d7fa 	srli	r16,r4,31
   18430:	1180110e 	bge	r2,r6,18478 <__extendsfdf2+0x7c>
   18434:	880cd0fa 	srli	r6,r17,3
   18438:	8822977a 	slli	r17,r17,29
   1843c:	2940e004 	addi	r5,r5,896
   18440:	2941ffcc 	andi	r5,r5,2047
   18444:	2804953a 	slli	r2,r5,20
   18448:	01400434 	movhi	r5,16
   1844c:	800697fa 	slli	r3,r16,31
   18450:	297fffc4 	addi	r5,r5,-1
   18454:	314a703a 	and	r5,r6,r5
   18458:	288ab03a 	or	r5,r5,r2
   1845c:	28c6b03a 	or	r3,r5,r3
   18460:	8805883a 	mov	r2,r17
   18464:	dfc00217 	ldw	ra,8(sp)
   18468:	dc400117 	ldw	r17,4(sp)
   1846c:	dc000017 	ldw	r16,0(sp)
   18470:	dec00304 	addi	sp,sp,12
   18474:	f800283a 	ret
   18478:	2800111e 	bne	r5,zero,184c0 <__extendsfdf2+0xc4>
   1847c:	88001c26 	beq	r17,zero,184f0 <__extendsfdf2+0xf4>
   18480:	8809883a 	mov	r4,r17
   18484:	00186b40 	call	186b4 <__clzsi2>
   18488:	00c00284 	movi	r3,10
   1848c:	18801b16 	blt	r3,r2,184fc <__extendsfdf2+0x100>
   18490:	018002c4 	movi	r6,11
   18494:	308dc83a 	sub	r6,r6,r2
   18498:	11000544 	addi	r4,r2,21
   1849c:	8986d83a 	srl	r3,r17,r6
   184a0:	8922983a 	sll	r17,r17,r4
   184a4:	0180e244 	movi	r6,905
   184a8:	01400434 	movhi	r5,16
   184ac:	3085c83a 	sub	r2,r6,r2
   184b0:	297fffc4 	addi	r5,r5,-1
   184b4:	194c703a 	and	r6,r3,r5
   184b8:	1141ffcc 	andi	r5,r2,2047
   184bc:	003fe006 	br	18440 <_gp+0xffff43e0>
   184c0:	88000826 	beq	r17,zero,184e4 <__extendsfdf2+0xe8>
   184c4:	880cd0fa 	srli	r6,r17,3
   184c8:	00800434 	movhi	r2,16
   184cc:	10bfffc4 	addi	r2,r2,-1
   184d0:	31800234 	orhi	r6,r6,8
   184d4:	8822977a 	slli	r17,r17,29
   184d8:	308c703a 	and	r6,r6,r2
   184dc:	0141ffc4 	movi	r5,2047
   184e0:	003fd706 	br	18440 <_gp+0xffff43e0>
   184e4:	0141ffc4 	movi	r5,2047
   184e8:	000d883a 	mov	r6,zero
   184ec:	003fd406 	br	18440 <_gp+0xffff43e0>
   184f0:	000b883a 	mov	r5,zero
   184f4:	000d883a 	mov	r6,zero
   184f8:	003fd106 	br	18440 <_gp+0xffff43e0>
   184fc:	11bffd44 	addi	r6,r2,-11
   18500:	8986983a 	sll	r3,r17,r6
   18504:	0023883a 	mov	r17,zero
   18508:	003fe606 	br	184a4 <_gp+0xffff4444>

0001850c <__truncdfsf2>:
   1850c:	2810d53a 	srli	r8,r5,20
   18510:	01c00434 	movhi	r7,16
   18514:	39ffffc4 	addi	r7,r7,-1
   18518:	29ce703a 	and	r7,r5,r7
   1851c:	4201ffcc 	andi	r8,r8,2047
   18520:	380e90fa 	slli	r7,r7,3
   18524:	200cd77a 	srli	r6,r4,29
   18528:	42400044 	addi	r9,r8,1
   1852c:	4a41ffcc 	andi	r9,r9,2047
   18530:	00c00044 	movi	r3,1
   18534:	280ad7fa 	srli	r5,r5,31
   18538:	31ceb03a 	or	r7,r6,r7
   1853c:	200490fa 	slli	r2,r4,3
   18540:	1a40230e 	bge	r3,r9,185d0 <__truncdfsf2+0xc4>
   18544:	40ff2004 	addi	r3,r8,-896
   18548:	01803f84 	movi	r6,254
   1854c:	30c01516 	blt	r6,r3,185a4 <__truncdfsf2+0x98>
   18550:	00c0380e 	bge	zero,r3,18634 <__truncdfsf2+0x128>
   18554:	200c91ba 	slli	r6,r4,6
   18558:	380e90fa 	slli	r7,r7,3
   1855c:	1004d77a 	srli	r2,r2,29
   18560:	300cc03a 	cmpne	r6,r6,zero
   18564:	31ccb03a 	or	r6,r6,r7
   18568:	308cb03a 	or	r6,r6,r2
   1856c:	308001cc 	andi	r2,r6,7
   18570:	10000426 	beq	r2,zero,18584 <__truncdfsf2+0x78>
   18574:	308003cc 	andi	r2,r6,15
   18578:	01000104 	movi	r4,4
   1857c:	11000126 	beq	r2,r4,18584 <__truncdfsf2+0x78>
   18580:	31800104 	addi	r6,r6,4
   18584:	3081002c 	andhi	r2,r6,1024
   18588:	10001626 	beq	r2,zero,185e4 <__truncdfsf2+0xd8>
   1858c:	18c00044 	addi	r3,r3,1
   18590:	00803fc4 	movi	r2,255
   18594:	18800326 	beq	r3,r2,185a4 <__truncdfsf2+0x98>
   18598:	300c91ba 	slli	r6,r6,6
   1859c:	300cd27a 	srli	r6,r6,9
   185a0:	00000206 	br	185ac <__truncdfsf2+0xa0>
   185a4:	00ffffc4 	movi	r3,-1
   185a8:	000d883a 	mov	r6,zero
   185ac:	18c03fcc 	andi	r3,r3,255
   185b0:	180895fa 	slli	r4,r3,23
   185b4:	00c02034 	movhi	r3,128
   185b8:	280a97fa 	slli	r5,r5,31
   185bc:	18ffffc4 	addi	r3,r3,-1
   185c0:	30c6703a 	and	r3,r6,r3
   185c4:	1906b03a 	or	r3,r3,r4
   185c8:	1944b03a 	or	r2,r3,r5
   185cc:	f800283a 	ret
   185d0:	40000b1e 	bne	r8,zero,18600 <__truncdfsf2+0xf4>
   185d4:	388cb03a 	or	r6,r7,r2
   185d8:	0007883a 	mov	r3,zero
   185dc:	30000426 	beq	r6,zero,185f0 <__truncdfsf2+0xe4>
   185e0:	01800144 	movi	r6,5
   185e4:	00803fc4 	movi	r2,255
   185e8:	300cd0fa 	srli	r6,r6,3
   185ec:	18800a26 	beq	r3,r2,18618 <__truncdfsf2+0x10c>
   185f0:	00802034 	movhi	r2,128
   185f4:	10bfffc4 	addi	r2,r2,-1
   185f8:	308c703a 	and	r6,r6,r2
   185fc:	003feb06 	br	185ac <_gp+0xffff454c>
   18600:	3888b03a 	or	r4,r7,r2
   18604:	203fe726 	beq	r4,zero,185a4 <_gp+0xffff4544>
   18608:	380c90fa 	slli	r6,r7,3
   1860c:	00c03fc4 	movi	r3,255
   18610:	31808034 	orhi	r6,r6,512
   18614:	003fd506 	br	1856c <_gp+0xffff450c>
   18618:	303fe226 	beq	r6,zero,185a4 <_gp+0xffff4544>
   1861c:	00802034 	movhi	r2,128
   18620:	31801034 	orhi	r6,r6,64
   18624:	10bfffc4 	addi	r2,r2,-1
   18628:	00ffffc4 	movi	r3,-1
   1862c:	308c703a 	and	r6,r6,r2
   18630:	003fde06 	br	185ac <_gp+0xffff454c>
   18634:	013ffa44 	movi	r4,-23
   18638:	19000e16 	blt	r3,r4,18674 <__truncdfsf2+0x168>
   1863c:	01000784 	movi	r4,30
   18640:	20c9c83a 	sub	r4,r4,r3
   18644:	018007c4 	movi	r6,31
   18648:	39c02034 	orhi	r7,r7,128
   1864c:	31000b16 	blt	r6,r4,1867c <__truncdfsf2+0x170>
   18650:	423f2084 	addi	r8,r8,-894
   18654:	120c983a 	sll	r6,r2,r8
   18658:	3a0e983a 	sll	r7,r7,r8
   1865c:	1104d83a 	srl	r2,r2,r4
   18660:	300cc03a 	cmpne	r6,r6,zero
   18664:	31ceb03a 	or	r7,r6,r7
   18668:	388cb03a 	or	r6,r7,r2
   1866c:	0007883a 	mov	r3,zero
   18670:	003fbe06 	br	1856c <_gp+0xffff450c>
   18674:	0007883a 	mov	r3,zero
   18678:	003fd906 	br	185e0 <_gp+0xffff4580>
   1867c:	01bfff84 	movi	r6,-2
   18680:	30cdc83a 	sub	r6,r6,r3
   18684:	00c00804 	movi	r3,32
   18688:	398cd83a 	srl	r6,r7,r6
   1868c:	20c00726 	beq	r4,r3,186ac <__truncdfsf2+0x1a0>
   18690:	423f2884 	addi	r8,r8,-862
   18694:	3a0e983a 	sll	r7,r7,r8
   18698:	3884b03a 	or	r2,r7,r2
   1869c:	1004c03a 	cmpne	r2,r2,zero
   186a0:	118cb03a 	or	r6,r2,r6
   186a4:	0007883a 	mov	r3,zero
   186a8:	003fb006 	br	1856c <_gp+0xffff450c>
   186ac:	000f883a 	mov	r7,zero
   186b0:	003ff906 	br	18698 <_gp+0xffff4638>

000186b4 <__clzsi2>:
   186b4:	00bfffd4 	movui	r2,65535
   186b8:	11000536 	bltu	r2,r4,186d0 <__clzsi2+0x1c>
   186bc:	00803fc4 	movi	r2,255
   186c0:	11000f36 	bltu	r2,r4,18700 <__clzsi2+0x4c>
   186c4:	00800804 	movi	r2,32
   186c8:	0007883a 	mov	r3,zero
   186cc:	00000506 	br	186e4 <__clzsi2+0x30>
   186d0:	00804034 	movhi	r2,256
   186d4:	10bfffc4 	addi	r2,r2,-1
   186d8:	11000c2e 	bgeu	r2,r4,1870c <__clzsi2+0x58>
   186dc:	00800204 	movi	r2,8
   186e0:	00c00604 	movi	r3,24
   186e4:	20c8d83a 	srl	r4,r4,r3
   186e8:	00c000b4 	movhi	r3,2
   186ec:	18eda904 	addi	r3,r3,-18780
   186f0:	1909883a 	add	r4,r3,r4
   186f4:	20c00003 	ldbu	r3,0(r4)
   186f8:	10c5c83a 	sub	r2,r2,r3
   186fc:	f800283a 	ret
   18700:	00800604 	movi	r2,24
   18704:	00c00204 	movi	r3,8
   18708:	003ff606 	br	186e4 <_gp+0xffff4684>
   1870c:	00800404 	movi	r2,16
   18710:	1007883a 	mov	r3,r2
   18714:	003ff306 	br	186e4 <_gp+0xffff4684>

00018718 <atoi>:
   18718:	01800284 	movi	r6,10
   1871c:	000b883a 	mov	r5,zero
   18720:	0018c701 	jmpi	18c70 <strtol>

00018724 <_atoi_r>:
   18724:	01c00284 	movi	r7,10
   18728:	000d883a 	mov	r6,zero
   1872c:	0018a601 	jmpi	18a60 <_strtol_r>

00018730 <exit>:
   18730:	defffe04 	addi	sp,sp,-8
   18734:	000b883a 	mov	r5,zero
   18738:	dc000015 	stw	r16,0(sp)
   1873c:	dfc00115 	stw	ra,4(sp)
   18740:	2021883a 	mov	r16,r4
   18744:	00197e40 	call	197e4 <__call_exitprocs>
   18748:	8009883a 	mov	r4,r16
   1874c:	0019c380 	call	19c38 <_exit>

00018750 <memcpy>:
   18750:	2005883a 	mov	r2,r4
   18754:	2007883a 	mov	r3,r4
   18758:	218d883a 	add	r6,r4,r6
   1875c:	19800526 	beq	r3,r6,18774 <memcpy+0x24>
   18760:	29000003 	ldbu	r4,0(r5)
   18764:	18c00044 	addi	r3,r3,1
   18768:	29400044 	addi	r5,r5,1
   1876c:	193fffc5 	stb	r4,-1(r3)
   18770:	003ffa06 	br	1875c <_gp+0xffff46fc>
   18774:	f800283a 	ret

00018778 <memset>:
   18778:	2005883a 	mov	r2,r4
   1877c:	2007883a 	mov	r3,r4
   18780:	218d883a 	add	r6,r4,r6
   18784:	19800326 	beq	r3,r6,18794 <memset+0x1c>
   18788:	19400005 	stb	r5,0(r3)
   1878c:	18c00044 	addi	r3,r3,1
   18790:	003ffc06 	br	18784 <_gp+0xffff4724>
   18794:	f800283a 	ret

00018798 <_printf_r>:
   18798:	defffd04 	addi	sp,sp,-12
   1879c:	dfc00015 	stw	ra,0(sp)
   187a0:	d9800115 	stw	r6,4(sp)
   187a4:	d9c00215 	stw	r7,8(sp)
   187a8:	20c00217 	ldw	r3,8(r4)
   187ac:	018000b4 	movhi	r6,2
   187b0:	31a65d04 	addi	r6,r6,-26252
   187b4:	19800115 	stw	r6,4(r3)
   187b8:	280d883a 	mov	r6,r5
   187bc:	21400217 	ldw	r5,8(r4)
   187c0:	d9c00104 	addi	r7,sp,4
   187c4:	00192a40 	call	192a4 <___vfprintf_internal_r>
   187c8:	dfc00017 	ldw	ra,0(sp)
   187cc:	dec00304 	addi	sp,sp,12
   187d0:	f800283a 	ret

000187d4 <printf>:
   187d4:	defffc04 	addi	sp,sp,-16
   187d8:	dfc00015 	stw	ra,0(sp)
   187dc:	d9400115 	stw	r5,4(sp)
   187e0:	d9800215 	stw	r6,8(sp)
   187e4:	d9c00315 	stw	r7,12(sp)
   187e8:	008000b4 	movhi	r2,2
   187ec:	10b01c04 	addi	r2,r2,-16272
   187f0:	10800017 	ldw	r2,0(r2)
   187f4:	014000b4 	movhi	r5,2
   187f8:	29665d04 	addi	r5,r5,-26252
   187fc:	10c00217 	ldw	r3,8(r2)
   18800:	d9800104 	addi	r6,sp,4
   18804:	19400115 	stw	r5,4(r3)
   18808:	200b883a 	mov	r5,r4
   1880c:	11000217 	ldw	r4,8(r2)
   18810:	00197c80 	call	197c8 <__vfprintf_internal>
   18814:	dfc00017 	ldw	ra,0(sp)
   18818:	dec00404 	addi	sp,sp,16
   1881c:	f800283a 	ret

00018820 <_putchar_r>:
   18820:	21800217 	ldw	r6,8(r4)
   18824:	0019b881 	jmpi	19b88 <_putc_r>

00018828 <putchar>:
   18828:	008000b4 	movhi	r2,2
   1882c:	10b01c04 	addi	r2,r2,-16272
   18830:	10800017 	ldw	r2,0(r2)
   18834:	200b883a 	mov	r5,r4
   18838:	11800217 	ldw	r6,8(r2)
   1883c:	1009883a 	mov	r4,r2
   18840:	0019b881 	jmpi	19b88 <_putc_r>

00018844 <_puts_r>:
   18844:	defffd04 	addi	sp,sp,-12
   18848:	dc000015 	stw	r16,0(sp)
   1884c:	2021883a 	mov	r16,r4
   18850:	2809883a 	mov	r4,r5
   18854:	dfc00215 	stw	ra,8(sp)
   18858:	dc400115 	stw	r17,4(sp)
   1885c:	2823883a 	mov	r17,r5
   18860:	00189e40 	call	189e4 <strlen>
   18864:	81400217 	ldw	r5,8(r16)
   18868:	010000b4 	movhi	r4,2
   1886c:	21265d04 	addi	r4,r4,-26252
   18870:	29000115 	stw	r4,4(r5)
   18874:	100f883a 	mov	r7,r2
   18878:	880d883a 	mov	r6,r17
   1887c:	8009883a 	mov	r4,r16
   18880:	00199740 	call	19974 <__sfvwrite_small_dev>
   18884:	00ffffc4 	movi	r3,-1
   18888:	10c00926 	beq	r2,r3,188b0 <_puts_r+0x6c>
   1888c:	81400217 	ldw	r5,8(r16)
   18890:	018000b4 	movhi	r6,2
   18894:	01c00044 	movi	r7,1
   18898:	28800117 	ldw	r2,4(r5)
   1889c:	31ade904 	addi	r6,r6,-18524
   188a0:	8009883a 	mov	r4,r16
   188a4:	103ee83a 	callr	r2
   188a8:	10bfffe0 	cmpeqi	r2,r2,-1
   188ac:	0085c83a 	sub	r2,zero,r2
   188b0:	dfc00217 	ldw	ra,8(sp)
   188b4:	dc400117 	ldw	r17,4(sp)
   188b8:	dc000017 	ldw	r16,0(sp)
   188bc:	dec00304 	addi	sp,sp,12
   188c0:	f800283a 	ret

000188c4 <puts>:
   188c4:	008000b4 	movhi	r2,2
   188c8:	10b01c04 	addi	r2,r2,-16272
   188cc:	200b883a 	mov	r5,r4
   188d0:	11000017 	ldw	r4,0(r2)
   188d4:	00188441 	jmpi	18844 <_puts_r>

000188d8 <_sprintf_r>:
   188d8:	defff704 	addi	sp,sp,-36
   188dc:	dfc00715 	stw	ra,28(sp)
   188e0:	d9c00815 	stw	r7,32(sp)
   188e4:	00808204 	movi	r2,520
   188e8:	d880000d 	sth	r2,0(sp)
   188ec:	00a00034 	movhi	r2,32768
   188f0:	10bfffc4 	addi	r2,r2,-1
   188f4:	d8800515 	stw	r2,20(sp)
   188f8:	d8800315 	stw	r2,12(sp)
   188fc:	00bfffc4 	movi	r2,-1
   18900:	d880008d 	sth	r2,2(sp)
   18904:	008000b4 	movhi	r2,2
   18908:	d9400415 	stw	r5,16(sp)
   1890c:	d9400215 	stw	r5,8(sp)
   18910:	10a68b04 	addi	r2,r2,-26068
   18914:	d9c00804 	addi	r7,sp,32
   18918:	d80b883a 	mov	r5,sp
   1891c:	d8800115 	stw	r2,4(sp)
   18920:	d8000615 	stw	zero,24(sp)
   18924:	0018cf80 	call	18cf8 <___svfprintf_internal_r>
   18928:	d8c00417 	ldw	r3,16(sp)
   1892c:	18000005 	stb	zero,0(r3)
   18930:	dfc00717 	ldw	ra,28(sp)
   18934:	dec00904 	addi	sp,sp,36
   18938:	f800283a 	ret

0001893c <sprintf>:
   1893c:	defff604 	addi	sp,sp,-40
   18940:	dfc00715 	stw	ra,28(sp)
   18944:	d9800815 	stw	r6,32(sp)
   18948:	d9c00915 	stw	r7,36(sp)
   1894c:	00808204 	movi	r2,520
   18950:	d880000d 	sth	r2,0(sp)
   18954:	00a00034 	movhi	r2,32768
   18958:	10bfffc4 	addi	r2,r2,-1
   1895c:	d8800515 	stw	r2,20(sp)
   18960:	d8800315 	stw	r2,12(sp)
   18964:	00bfffc4 	movi	r2,-1
   18968:	d880008d 	sth	r2,2(sp)
   1896c:	008000b4 	movhi	r2,2
   18970:	10a68b04 	addi	r2,r2,-26068
   18974:	d8800115 	stw	r2,4(sp)
   18978:	008000b4 	movhi	r2,2
   1897c:	10b01c04 	addi	r2,r2,-16272
   18980:	d9000415 	stw	r4,16(sp)
   18984:	d9000215 	stw	r4,8(sp)
   18988:	11000017 	ldw	r4,0(r2)
   1898c:	280d883a 	mov	r6,r5
   18990:	d9c00804 	addi	r7,sp,32
   18994:	d80b883a 	mov	r5,sp
   18998:	d8000615 	stw	zero,24(sp)
   1899c:	0018cf80 	call	18cf8 <___svfprintf_internal_r>
   189a0:	d8c00417 	ldw	r3,16(sp)
   189a4:	18000005 	stb	zero,0(r3)
   189a8:	dfc00717 	ldw	ra,28(sp)
   189ac:	dec00a04 	addi	sp,sp,40
   189b0:	f800283a 	ret

000189b4 <strchr>:
   189b4:	28c03fcc 	andi	r3,r5,255
   189b8:	20800003 	ldbu	r2,0(r4)
   189bc:	10000326 	beq	r2,zero,189cc <strchr+0x18>
   189c0:	18800426 	beq	r3,r2,189d4 <strchr+0x20>
   189c4:	21000044 	addi	r4,r4,1
   189c8:	003ffb06 	br	189b8 <_gp+0xffff4958>
   189cc:	29403fcc 	andi	r5,r5,255
   189d0:	2800021e 	bne	r5,zero,189dc <strchr+0x28>
   189d4:	2005883a 	mov	r2,r4
   189d8:	f800283a 	ret
   189dc:	0005883a 	mov	r2,zero
   189e0:	f800283a 	ret

000189e4 <strlen>:
   189e4:	2005883a 	mov	r2,r4
   189e8:	10c00007 	ldb	r3,0(r2)
   189ec:	18000226 	beq	r3,zero,189f8 <strlen+0x14>
   189f0:	10800044 	addi	r2,r2,1
   189f4:	003ffc06 	br	189e8 <_gp+0xffff4988>
   189f8:	1105c83a 	sub	r2,r2,r4
   189fc:	f800283a 	ret

00018a00 <strstr>:
   18a00:	20800007 	ldb	r2,0(r4)
   18a04:	10000e1e 	bne	r2,zero,18a40 <strstr+0x40>
   18a08:	28800007 	ldb	r2,0(r5)
   18a0c:	10001226 	beq	r2,zero,18a58 <strstr+0x58>
   18a10:	0005883a 	mov	r2,zero
   18a14:	f800283a 	ret
   18a18:	31c00007 	ldb	r7,0(r6)
   18a1c:	38000e26 	beq	r7,zero,18a58 <strstr+0x58>
   18a20:	18800003 	ldbu	r2,0(r3)
   18a24:	31800044 	addi	r6,r6,1
   18a28:	18c00044 	addi	r3,r3,1
   18a2c:	10803fcc 	andi	r2,r2,255
   18a30:	1080201c 	xori	r2,r2,128
   18a34:	10bfe004 	addi	r2,r2,-128
   18a38:	38bff726 	beq	r7,r2,18a18 <_gp+0xffff49b8>
   18a3c:	21000044 	addi	r4,r4,1
   18a40:	20800007 	ldb	r2,0(r4)
   18a44:	10000326 	beq	r2,zero,18a54 <strstr+0x54>
   18a48:	280d883a 	mov	r6,r5
   18a4c:	2007883a 	mov	r3,r4
   18a50:	003ff106 	br	18a18 <_gp+0xffff49b8>
   18a54:	f800283a 	ret
   18a58:	2005883a 	mov	r2,r4
   18a5c:	f800283a 	ret

00018a60 <_strtol_r>:
   18a60:	008000b4 	movhi	r2,2
   18a64:	defff504 	addi	sp,sp,-44
   18a68:	10b01a04 	addi	r2,r2,-16280
   18a6c:	df000915 	stw	fp,36(sp)
   18a70:	17000017 	ldw	fp,0(r2)
   18a74:	ddc00815 	stw	r23,32(sp)
   18a78:	dd800715 	stw	r22,28(sp)
   18a7c:	dd400615 	stw	r21,24(sp)
   18a80:	dc800315 	stw	r18,12(sp)
   18a84:	202d883a 	mov	r22,r4
   18a88:	dfc00a15 	stw	ra,40(sp)
   18a8c:	dd000515 	stw	r20,20(sp)
   18a90:	dcc00415 	stw	r19,16(sp)
   18a94:	dc400215 	stw	r17,8(sp)
   18a98:	dc000115 	stw	r16,4(sp)
   18a9c:	282f883a 	mov	r23,r5
   18aa0:	302b883a 	mov	r21,r6
   18aa4:	3825883a 	mov	r18,r7
   18aa8:	2809883a 	mov	r4,r5
   18aac:	2005883a 	mov	r2,r4
   18ab0:	14400003 	ldbu	r17,0(r2)
   18ab4:	24000044 	addi	r16,r4,1
   18ab8:	8009883a 	mov	r4,r16
   18abc:	e447883a 	add	r3,fp,r17
   18ac0:	18c00043 	ldbu	r3,1(r3)
   18ac4:	18c0020c 	andi	r3,r3,8
   18ac8:	183ff81e 	bne	r3,zero,18aac <_gp+0xffff4a4c>
   18acc:	00c00b44 	movi	r3,45
   18ad0:	88c0041e 	bne	r17,r3,18ae4 <_strtol_r+0x84>
   18ad4:	14000084 	addi	r16,r2,2
   18ad8:	14400043 	ldbu	r17,1(r2)
   18adc:	04c00044 	movi	r19,1
   18ae0:	00000506 	br	18af8 <_strtol_r+0x98>
   18ae4:	00c00ac4 	movi	r3,43
   18ae8:	88c0021e 	bne	r17,r3,18af4 <_strtol_r+0x94>
   18aec:	14400043 	ldbu	r17,1(r2)
   18af0:	14000084 	addi	r16,r2,2
   18af4:	0027883a 	mov	r19,zero
   18af8:	90000326 	beq	r18,zero,18b08 <_strtol_r+0xa8>
   18afc:	00800404 	movi	r2,16
   18b00:	90800a1e 	bne	r18,r2,18b2c <_strtol_r+0xcc>
   18b04:	00004b06 	br	18c34 <_strtol_r+0x1d4>
   18b08:	00800c04 	movi	r2,48
   18b0c:	8880471e 	bne	r17,r2,18c2c <_strtol_r+0x1cc>
   18b10:	80800003 	ldbu	r2,0(r16)
   18b14:	00c01604 	movi	r3,88
   18b18:	108037cc 	andi	r2,r2,223
   18b1c:	10c03f1e 	bne	r2,r3,18c1c <_strtol_r+0x1bc>
   18b20:	84400043 	ldbu	r17,1(r16)
   18b24:	04800404 	movi	r18,16
   18b28:	84000084 	addi	r16,r16,2
   18b2c:	05200034 	movhi	r20,32768
   18b30:	a53fffc4 	addi	r20,r20,-1
   18b34:	9d29883a 	add	r20,r19,r20
   18b38:	900b883a 	mov	r5,r18
   18b3c:	a009883a 	mov	r4,r20
   18b40:	0014b180 	call	14b18 <__umodsi3>
   18b44:	900b883a 	mov	r5,r18
   18b48:	a009883a 	mov	r4,r20
   18b4c:	d8800015 	stw	r2,0(sp)
   18b50:	0014ab40 	call	14ab4 <__udivsi3>
   18b54:	d9800017 	ldw	r6,0(sp)
   18b58:	100b883a 	mov	r5,r2
   18b5c:	0009883a 	mov	r4,zero
   18b60:	0005883a 	mov	r2,zero
   18b64:	01c00044 	movi	r7,1
   18b68:	023fffc4 	movi	r8,-1
   18b6c:	e447883a 	add	r3,fp,r17
   18b70:	18c00043 	ldbu	r3,1(r3)
   18b74:	1a40010c 	andi	r9,r3,4
   18b78:	48000226 	beq	r9,zero,18b84 <_strtol_r+0x124>
   18b7c:	8c7ff404 	addi	r17,r17,-48
   18b80:	00000706 	br	18ba0 <_strtol_r+0x140>
   18b84:	18c000cc 	andi	r3,r3,3
   18b88:	18001226 	beq	r3,zero,18bd4 <_strtol_r+0x174>
   18b8c:	19c00226 	beq	r3,r7,18b98 <_strtol_r+0x138>
   18b90:	00c015c4 	movi	r3,87
   18b94:	00000106 	br	18b9c <_strtol_r+0x13c>
   18b98:	00c00dc4 	movi	r3,55
   18b9c:	88e3c83a 	sub	r17,r17,r3
   18ba0:	8c800c0e 	bge	r17,r18,18bd4 <_strtol_r+0x174>
   18ba4:	22000826 	beq	r4,r8,18bc8 <_strtol_r+0x168>
   18ba8:	28800636 	bltu	r5,r2,18bc4 <_strtol_r+0x164>
   18bac:	1140011e 	bne	r2,r5,18bb4 <_strtol_r+0x154>
   18bb0:	34400416 	blt	r6,r17,18bc4 <_strtol_r+0x164>
   18bb4:	1487383a 	mul	r3,r2,r18
   18bb8:	01000044 	movi	r4,1
   18bbc:	88c5883a 	add	r2,r17,r3
   18bc0:	00000106 	br	18bc8 <_strtol_r+0x168>
   18bc4:	013fffc4 	movi	r4,-1
   18bc8:	84400003 	ldbu	r17,0(r16)
   18bcc:	84000044 	addi	r16,r16,1
   18bd0:	003fe606 	br	18b6c <_gp+0xffff4b0c>
   18bd4:	00ffffc4 	movi	r3,-1
   18bd8:	20c0071e 	bne	r4,r3,18bf8 <_strtol_r+0x198>
   18bdc:	00a00034 	movhi	r2,32768
   18be0:	10c5883a 	add	r2,r2,r3
   18be4:	00c00884 	movi	r3,34
   18be8:	b0c00015 	stw	r3,0(r22)
   18bec:	9885883a 	add	r2,r19,r2
   18bf0:	a800051e 	bne	r21,zero,18c08 <_strtol_r+0x1a8>
   18bf4:	00001206 	br	18c40 <_strtol_r+0x1e0>
   18bf8:	98000126 	beq	r19,zero,18c00 <_strtol_r+0x1a0>
   18bfc:	0085c83a 	sub	r2,zero,r2
   18c00:	a8000f26 	beq	r21,zero,18c40 <_strtol_r+0x1e0>
   18c04:	20000226 	beq	r4,zero,18c10 <_strtol_r+0x1b0>
   18c08:	843fffc4 	addi	r16,r16,-1
   18c0c:	00000106 	br	18c14 <_strtol_r+0x1b4>
   18c10:	b821883a 	mov	r16,r23
   18c14:	ac000015 	stw	r16,0(r21)
   18c18:	00000906 	br	18c40 <_strtol_r+0x1e0>
   18c1c:	04400c04 	movi	r17,48
   18c20:	903fc21e 	bne	r18,zero,18b2c <_gp+0xffff4acc>
   18c24:	04800204 	movi	r18,8
   18c28:	003fc006 	br	18b2c <_gp+0xffff4acc>
   18c2c:	04800284 	movi	r18,10
   18c30:	003fbe06 	br	18b2c <_gp+0xffff4acc>
   18c34:	00800c04 	movi	r2,48
   18c38:	88bfb526 	beq	r17,r2,18b10 <_gp+0xffff4ab0>
   18c3c:	003fbb06 	br	18b2c <_gp+0xffff4acc>
   18c40:	dfc00a17 	ldw	ra,40(sp)
   18c44:	df000917 	ldw	fp,36(sp)
   18c48:	ddc00817 	ldw	r23,32(sp)
   18c4c:	dd800717 	ldw	r22,28(sp)
   18c50:	dd400617 	ldw	r21,24(sp)
   18c54:	dd000517 	ldw	r20,20(sp)
   18c58:	dcc00417 	ldw	r19,16(sp)
   18c5c:	dc800317 	ldw	r18,12(sp)
   18c60:	dc400217 	ldw	r17,8(sp)
   18c64:	dc000117 	ldw	r16,4(sp)
   18c68:	dec00b04 	addi	sp,sp,44
   18c6c:	f800283a 	ret

00018c70 <strtol>:
   18c70:	008000b4 	movhi	r2,2
   18c74:	10b01c04 	addi	r2,r2,-16272
   18c78:	300f883a 	mov	r7,r6
   18c7c:	280d883a 	mov	r6,r5
   18c80:	200b883a 	mov	r5,r4
   18c84:	11000017 	ldw	r4,0(r2)
   18c88:	0018a601 	jmpi	18a60 <_strtol_r>

00018c8c <print_repeat>:
   18c8c:	defffb04 	addi	sp,sp,-20
   18c90:	dc800315 	stw	r18,12(sp)
   18c94:	dc400215 	stw	r17,8(sp)
   18c98:	dc000115 	stw	r16,4(sp)
   18c9c:	dfc00415 	stw	ra,16(sp)
   18ca0:	2025883a 	mov	r18,r4
   18ca4:	2823883a 	mov	r17,r5
   18ca8:	d9800005 	stb	r6,0(sp)
   18cac:	3821883a 	mov	r16,r7
   18cb0:	04000a0e 	bge	zero,r16,18cdc <print_repeat+0x50>
   18cb4:	88800117 	ldw	r2,4(r17)
   18cb8:	01c00044 	movi	r7,1
   18cbc:	d80d883a 	mov	r6,sp
   18cc0:	880b883a 	mov	r5,r17
   18cc4:	9009883a 	mov	r4,r18
   18cc8:	103ee83a 	callr	r2
   18ccc:	843fffc4 	addi	r16,r16,-1
   18cd0:	103ff726 	beq	r2,zero,18cb0 <_gp+0xffff4c50>
   18cd4:	00bfffc4 	movi	r2,-1
   18cd8:	00000106 	br	18ce0 <print_repeat+0x54>
   18cdc:	0005883a 	mov	r2,zero
   18ce0:	dfc00417 	ldw	ra,16(sp)
   18ce4:	dc800317 	ldw	r18,12(sp)
   18ce8:	dc400217 	ldw	r17,8(sp)
   18cec:	dc000117 	ldw	r16,4(sp)
   18cf0:	dec00504 	addi	sp,sp,20
   18cf4:	f800283a 	ret

00018cf8 <___svfprintf_internal_r>:
   18cf8:	deffe504 	addi	sp,sp,-108
   18cfc:	d8c00804 	addi	r3,sp,32
   18d00:	df001915 	stw	fp,100(sp)
   18d04:	ddc01815 	stw	r23,96(sp)
   18d08:	dd801715 	stw	r22,92(sp)
   18d0c:	dd401615 	stw	r21,88(sp)
   18d10:	dd001515 	stw	r20,84(sp)
   18d14:	dcc01415 	stw	r19,80(sp)
   18d18:	dc801315 	stw	r18,76(sp)
   18d1c:	dc401215 	stw	r17,72(sp)
   18d20:	dc001115 	stw	r16,68(sp)
   18d24:	dfc01a15 	stw	ra,104(sp)
   18d28:	2027883a 	mov	r19,r4
   18d2c:	2839883a 	mov	fp,r5
   18d30:	382d883a 	mov	r22,r7
   18d34:	d9800f15 	stw	r6,60(sp)
   18d38:	0021883a 	mov	r16,zero
   18d3c:	d8000e15 	stw	zero,56(sp)
   18d40:	002f883a 	mov	r23,zero
   18d44:	002b883a 	mov	r21,zero
   18d48:	0025883a 	mov	r18,zero
   18d4c:	0023883a 	mov	r17,zero
   18d50:	d8000c15 	stw	zero,48(sp)
   18d54:	d8000b15 	stw	zero,44(sp)
   18d58:	0029883a 	mov	r20,zero
   18d5c:	d8c00915 	stw	r3,36(sp)
   18d60:	d8c00f17 	ldw	r3,60(sp)
   18d64:	19000003 	ldbu	r4,0(r3)
   18d68:	20803fcc 	andi	r2,r4,255
   18d6c:	1080201c 	xori	r2,r2,128
   18d70:	10bfe004 	addi	r2,r2,-128
   18d74:	10011c26 	beq	r2,zero,191e8 <___svfprintf_internal_r+0x4f0>
   18d78:	00c00044 	movi	r3,1
   18d7c:	a0c01426 	beq	r20,r3,18dd0 <___svfprintf_internal_r+0xd8>
   18d80:	1d000216 	blt	r3,r20,18d8c <___svfprintf_internal_r+0x94>
   18d84:	a0000626 	beq	r20,zero,18da0 <___svfprintf_internal_r+0xa8>
   18d88:	00011306 	br	191d8 <___svfprintf_internal_r+0x4e0>
   18d8c:	01400084 	movi	r5,2
   18d90:	a1401d26 	beq	r20,r5,18e08 <___svfprintf_internal_r+0x110>
   18d94:	014000c4 	movi	r5,3
   18d98:	a1402926 	beq	r20,r5,18e40 <___svfprintf_internal_r+0x148>
   18d9c:	00010e06 	br	191d8 <___svfprintf_internal_r+0x4e0>
   18da0:	01400944 	movi	r5,37
   18da4:	1140fb26 	beq	r2,r5,19194 <___svfprintf_internal_r+0x49c>
   18da8:	e0800117 	ldw	r2,4(fp)
   18dac:	d9000005 	stb	r4,0(sp)
   18db0:	01c00044 	movi	r7,1
   18db4:	d80d883a 	mov	r6,sp
   18db8:	e00b883a 	mov	r5,fp
   18dbc:	9809883a 	mov	r4,r19
   18dc0:	103ee83a 	callr	r2
   18dc4:	1000d61e 	bne	r2,zero,19120 <___svfprintf_internal_r+0x428>
   18dc8:	84000044 	addi	r16,r16,1
   18dcc:	00010206 	br	191d8 <___svfprintf_internal_r+0x4e0>
   18dd0:	01400c04 	movi	r5,48
   18dd4:	1140f826 	beq	r2,r5,191b8 <___svfprintf_internal_r+0x4c0>
   18dd8:	01400944 	movi	r5,37
   18ddc:	11400a1e 	bne	r2,r5,18e08 <___svfprintf_internal_r+0x110>
   18de0:	d8800005 	stb	r2,0(sp)
   18de4:	e0800117 	ldw	r2,4(fp)
   18de8:	a00f883a 	mov	r7,r20
   18dec:	d80d883a 	mov	r6,sp
   18df0:	e00b883a 	mov	r5,fp
   18df4:	9809883a 	mov	r4,r19
   18df8:	103ee83a 	callr	r2
   18dfc:	1000c81e 	bne	r2,zero,19120 <___svfprintf_internal_r+0x428>
   18e00:	84000044 	addi	r16,r16,1
   18e04:	0000f306 	br	191d4 <___svfprintf_internal_r+0x4dc>
   18e08:	217ff404 	addi	r5,r4,-48
   18e0c:	29403fcc 	andi	r5,r5,255
   18e10:	00c00244 	movi	r3,9
   18e14:	19400736 	bltu	r3,r5,18e34 <___svfprintf_internal_r+0x13c>
   18e18:	00bfffc4 	movi	r2,-1
   18e1c:	88800226 	beq	r17,r2,18e28 <___svfprintf_internal_r+0x130>
   18e20:	8c4002a4 	muli	r17,r17,10
   18e24:	00000106 	br	18e2c <___svfprintf_internal_r+0x134>
   18e28:	0023883a 	mov	r17,zero
   18e2c:	2c63883a 	add	r17,r5,r17
   18e30:	0000e206 	br	191bc <___svfprintf_internal_r+0x4c4>
   18e34:	01400b84 	movi	r5,46
   18e38:	1140e426 	beq	r2,r5,191cc <___svfprintf_internal_r+0x4d4>
   18e3c:	05000084 	movi	r20,2
   18e40:	213ff404 	addi	r4,r4,-48
   18e44:	21003fcc 	andi	r4,r4,255
   18e48:	00c00244 	movi	r3,9
   18e4c:	19000736 	bltu	r3,r4,18e6c <___svfprintf_internal_r+0x174>
   18e50:	00bfffc4 	movi	r2,-1
   18e54:	90800226 	beq	r18,r2,18e60 <___svfprintf_internal_r+0x168>
   18e58:	948002a4 	muli	r18,r18,10
   18e5c:	00000106 	br	18e64 <___svfprintf_internal_r+0x16c>
   18e60:	0025883a 	mov	r18,zero
   18e64:	24a5883a 	add	r18,r4,r18
   18e68:	0000db06 	br	191d8 <___svfprintf_internal_r+0x4e0>
   18e6c:	00c01b04 	movi	r3,108
   18e70:	10c0d426 	beq	r2,r3,191c4 <___svfprintf_internal_r+0x4cc>
   18e74:	013fffc4 	movi	r4,-1
   18e78:	91000226 	beq	r18,r4,18e84 <___svfprintf_internal_r+0x18c>
   18e7c:	d8000b15 	stw	zero,44(sp)
   18e80:	00000106 	br	18e88 <___svfprintf_internal_r+0x190>
   18e84:	04800044 	movi	r18,1
   18e88:	01001a44 	movi	r4,105
   18e8c:	11001626 	beq	r2,r4,18ee8 <___svfprintf_internal_r+0x1f0>
   18e90:	20800916 	blt	r4,r2,18eb8 <___svfprintf_internal_r+0x1c0>
   18e94:	010018c4 	movi	r4,99
   18e98:	11008a26 	beq	r2,r4,190c4 <___svfprintf_internal_r+0x3cc>
   18e9c:	01001904 	movi	r4,100
   18ea0:	11001126 	beq	r2,r4,18ee8 <___svfprintf_internal_r+0x1f0>
   18ea4:	01001604 	movi	r4,88
   18ea8:	1100ca1e 	bne	r2,r4,191d4 <___svfprintf_internal_r+0x4dc>
   18eac:	00c00044 	movi	r3,1
   18eb0:	d8c00e15 	stw	r3,56(sp)
   18eb4:	00001406 	br	18f08 <___svfprintf_internal_r+0x210>
   18eb8:	01001cc4 	movi	r4,115
   18ebc:	11009a26 	beq	r2,r4,19128 <___svfprintf_internal_r+0x430>
   18ec0:	20800416 	blt	r4,r2,18ed4 <___svfprintf_internal_r+0x1dc>
   18ec4:	01001bc4 	movi	r4,111
   18ec8:	1100c21e 	bne	r2,r4,191d4 <___svfprintf_internal_r+0x4dc>
   18ecc:	05400204 	movi	r21,8
   18ed0:	00000e06 	br	18f0c <___svfprintf_internal_r+0x214>
   18ed4:	01001d44 	movi	r4,117
   18ed8:	11000c26 	beq	r2,r4,18f0c <___svfprintf_internal_r+0x214>
   18edc:	01001e04 	movi	r4,120
   18ee0:	11000926 	beq	r2,r4,18f08 <___svfprintf_internal_r+0x210>
   18ee4:	0000bb06 	br	191d4 <___svfprintf_internal_r+0x4dc>
   18ee8:	b5000104 	addi	r20,r22,4
   18eec:	b8000726 	beq	r23,zero,18f0c <___svfprintf_internal_r+0x214>
   18ef0:	dd000d15 	stw	r20,52(sp)
   18ef4:	b5800017 	ldw	r22,0(r22)
   18ef8:	b000080e 	bge	r22,zero,18f1c <___svfprintf_internal_r+0x224>
   18efc:	05adc83a 	sub	r22,zero,r22
   18f00:	02800044 	movi	r10,1
   18f04:	00000606 	br	18f20 <___svfprintf_internal_r+0x228>
   18f08:	05400404 	movi	r21,16
   18f0c:	b0c00104 	addi	r3,r22,4
   18f10:	d8c00d15 	stw	r3,52(sp)
   18f14:	b5800017 	ldw	r22,0(r22)
   18f18:	002f883a 	mov	r23,zero
   18f1c:	0015883a 	mov	r10,zero
   18f20:	d829883a 	mov	r20,sp
   18f24:	b0001426 	beq	r22,zero,18f78 <___svfprintf_internal_r+0x280>
   18f28:	b009883a 	mov	r4,r22
   18f2c:	a80b883a 	mov	r5,r21
   18f30:	da801015 	stw	r10,64(sp)
   18f34:	0014ab40 	call	14ab4 <__udivsi3>
   18f38:	1549383a 	mul	r4,r2,r21
   18f3c:	00c00244 	movi	r3,9
   18f40:	da801017 	ldw	r10,64(sp)
   18f44:	b12dc83a 	sub	r22,r22,r4
   18f48:	1d800216 	blt	r3,r22,18f54 <___svfprintf_internal_r+0x25c>
   18f4c:	b5800c04 	addi	r22,r22,48
   18f50:	00000506 	br	18f68 <___svfprintf_internal_r+0x270>
   18f54:	d8c00e17 	ldw	r3,56(sp)
   18f58:	18000226 	beq	r3,zero,18f64 <___svfprintf_internal_r+0x26c>
   18f5c:	b5800dc4 	addi	r22,r22,55
   18f60:	00000106 	br	18f68 <___svfprintf_internal_r+0x270>
   18f64:	b58015c4 	addi	r22,r22,87
   18f68:	a5800005 	stb	r22,0(r20)
   18f6c:	a5000044 	addi	r20,r20,1
   18f70:	102d883a 	mov	r22,r2
   18f74:	003feb06 	br	18f24 <_gp+0xffff4ec4>
   18f78:	a6c7c83a 	sub	r3,r20,sp
   18f7c:	d8c00a15 	stw	r3,40(sp)
   18f80:	90c5c83a 	sub	r2,r18,r3
   18f84:	00800a0e 	bge	zero,r2,18fb0 <___svfprintf_internal_r+0x2b8>
   18f88:	a085883a 	add	r2,r20,r2
   18f8c:	01400c04 	movi	r5,48
   18f90:	d8c00917 	ldw	r3,36(sp)
   18f94:	a009883a 	mov	r4,r20
   18f98:	a0c0032e 	bgeu	r20,r3,18fa8 <___svfprintf_internal_r+0x2b0>
   18f9c:	a5000044 	addi	r20,r20,1
   18fa0:	21400005 	stb	r5,0(r4)
   18fa4:	a0bffa1e 	bne	r20,r2,18f90 <_gp+0xffff4f30>
   18fa8:	a6c7c83a 	sub	r3,r20,sp
   18fac:	d8c00a15 	stw	r3,40(sp)
   18fb0:	d8c00a17 	ldw	r3,40(sp)
   18fb4:	50d3883a 	add	r9,r10,r3
   18fb8:	d8c00b17 	ldw	r3,44(sp)
   18fbc:	8a6dc83a 	sub	r22,r17,r9
   18fc0:	18001726 	beq	r3,zero,19020 <___svfprintf_internal_r+0x328>
   18fc4:	50000a26 	beq	r10,zero,18ff0 <___svfprintf_internal_r+0x2f8>
   18fc8:	00800b44 	movi	r2,45
   18fcc:	d8800805 	stb	r2,32(sp)
   18fd0:	e0800117 	ldw	r2,4(fp)
   18fd4:	01c00044 	movi	r7,1
   18fd8:	d9800804 	addi	r6,sp,32
   18fdc:	e00b883a 	mov	r5,fp
   18fe0:	9809883a 	mov	r4,r19
   18fe4:	103ee83a 	callr	r2
   18fe8:	10004d1e 	bne	r2,zero,19120 <___svfprintf_internal_r+0x428>
   18fec:	84000044 	addi	r16,r16,1
   18ff0:	0580070e 	bge	zero,r22,19010 <___svfprintf_internal_r+0x318>
   18ff4:	b00f883a 	mov	r7,r22
   18ff8:	01800c04 	movi	r6,48
   18ffc:	e00b883a 	mov	r5,fp
   19000:	9809883a 	mov	r4,r19
   19004:	0018c8c0 	call	18c8c <print_repeat>
   19008:	1000451e 	bne	r2,zero,19120 <___svfprintf_internal_r+0x428>
   1900c:	85a1883a 	add	r16,r16,r22
   19010:	d8c00a17 	ldw	r3,40(sp)
   19014:	a013883a 	mov	r9,r20
   19018:	1d2dc83a 	sub	r22,r3,r20
   1901c:	00002206 	br	190a8 <___svfprintf_internal_r+0x3b0>
   19020:	0580090e 	bge	zero,r22,19048 <___svfprintf_internal_r+0x350>
   19024:	b00f883a 	mov	r7,r22
   19028:	01800804 	movi	r6,32
   1902c:	e00b883a 	mov	r5,fp
   19030:	9809883a 	mov	r4,r19
   19034:	da801015 	stw	r10,64(sp)
   19038:	0018c8c0 	call	18c8c <print_repeat>
   1903c:	da801017 	ldw	r10,64(sp)
   19040:	1000371e 	bne	r2,zero,19120 <___svfprintf_internal_r+0x428>
   19044:	85a1883a 	add	r16,r16,r22
   19048:	503ff126 	beq	r10,zero,19010 <_gp+0xffff4fb0>
   1904c:	00800b44 	movi	r2,45
   19050:	d8800805 	stb	r2,32(sp)
   19054:	e0800117 	ldw	r2,4(fp)
   19058:	01c00044 	movi	r7,1
   1905c:	d9800804 	addi	r6,sp,32
   19060:	e00b883a 	mov	r5,fp
   19064:	9809883a 	mov	r4,r19
   19068:	103ee83a 	callr	r2
   1906c:	10002c1e 	bne	r2,zero,19120 <___svfprintf_internal_r+0x428>
   19070:	84000044 	addi	r16,r16,1
   19074:	003fe606 	br	19010 <_gp+0xffff4fb0>
   19078:	4a7fffc4 	addi	r9,r9,-1
   1907c:	48800003 	ldbu	r2,0(r9)
   19080:	01c00044 	movi	r7,1
   19084:	d9800804 	addi	r6,sp,32
   19088:	d8800805 	stb	r2,32(sp)
   1908c:	e0800117 	ldw	r2,4(fp)
   19090:	e00b883a 	mov	r5,fp
   19094:	da401015 	stw	r9,64(sp)
   19098:	9809883a 	mov	r4,r19
   1909c:	103ee83a 	callr	r2
   190a0:	da401017 	ldw	r9,64(sp)
   190a4:	10001e1e 	bne	r2,zero,19120 <___svfprintf_internal_r+0x428>
   190a8:	8245c83a 	sub	r2,r16,r9
   190ac:	4d89883a 	add	r4,r9,r22
   190b0:	a085883a 	add	r2,r20,r2
   190b4:	013ff016 	blt	zero,r4,19078 <_gp+0xffff5018>
   190b8:	1021883a 	mov	r16,r2
   190bc:	dd800d17 	ldw	r22,52(sp)
   190c0:	00004406 	br	191d4 <___svfprintf_internal_r+0x4dc>
   190c4:	00800044 	movi	r2,1
   190c8:	1440080e 	bge	r2,r17,190ec <___svfprintf_internal_r+0x3f4>
   190cc:	8d3fffc4 	addi	r20,r17,-1
   190d0:	a00f883a 	mov	r7,r20
   190d4:	01800804 	movi	r6,32
   190d8:	e00b883a 	mov	r5,fp
   190dc:	9809883a 	mov	r4,r19
   190e0:	0018c8c0 	call	18c8c <print_repeat>
   190e4:	10000e1e 	bne	r2,zero,19120 <___svfprintf_internal_r+0x428>
   190e8:	8521883a 	add	r16,r16,r20
   190ec:	b0800017 	ldw	r2,0(r22)
   190f0:	01c00044 	movi	r7,1
   190f4:	d80d883a 	mov	r6,sp
   190f8:	d8800005 	stb	r2,0(sp)
   190fc:	e0800117 	ldw	r2,4(fp)
   19100:	e00b883a 	mov	r5,fp
   19104:	9809883a 	mov	r4,r19
   19108:	b5000104 	addi	r20,r22,4
   1910c:	103ee83a 	callr	r2
   19110:	1000031e 	bne	r2,zero,19120 <___svfprintf_internal_r+0x428>
   19114:	84000044 	addi	r16,r16,1
   19118:	a02d883a 	mov	r22,r20
   1911c:	00002d06 	br	191d4 <___svfprintf_internal_r+0x4dc>
   19120:	00bfffc4 	movi	r2,-1
   19124:	00003106 	br	191ec <___svfprintf_internal_r+0x4f4>
   19128:	b5000017 	ldw	r20,0(r22)
   1912c:	b0c00104 	addi	r3,r22,4
   19130:	d8c00a15 	stw	r3,40(sp)
   19134:	a009883a 	mov	r4,r20
   19138:	00189e40 	call	189e4 <strlen>
   1913c:	8893c83a 	sub	r9,r17,r2
   19140:	102d883a 	mov	r22,r2
   19144:	0240090e 	bge	zero,r9,1916c <___svfprintf_internal_r+0x474>
   19148:	480f883a 	mov	r7,r9
   1914c:	01800804 	movi	r6,32
   19150:	e00b883a 	mov	r5,fp
   19154:	9809883a 	mov	r4,r19
   19158:	da401015 	stw	r9,64(sp)
   1915c:	0018c8c0 	call	18c8c <print_repeat>
   19160:	da401017 	ldw	r9,64(sp)
   19164:	103fee1e 	bne	r2,zero,19120 <_gp+0xffff50c0>
   19168:	8261883a 	add	r16,r16,r9
   1916c:	e0800117 	ldw	r2,4(fp)
   19170:	b00f883a 	mov	r7,r22
   19174:	a00d883a 	mov	r6,r20
   19178:	e00b883a 	mov	r5,fp
   1917c:	9809883a 	mov	r4,r19
   19180:	103ee83a 	callr	r2
   19184:	103fe61e 	bne	r2,zero,19120 <_gp+0xffff50c0>
   19188:	85a1883a 	add	r16,r16,r22
   1918c:	dd800a17 	ldw	r22,40(sp)
   19190:	00001006 	br	191d4 <___svfprintf_internal_r+0x4dc>
   19194:	05c00044 	movi	r23,1
   19198:	04bfffc4 	movi	r18,-1
   1919c:	d8000e15 	stw	zero,56(sp)
   191a0:	05400284 	movi	r21,10
   191a4:	9023883a 	mov	r17,r18
   191a8:	d8000c15 	stw	zero,48(sp)
   191ac:	d8000b15 	stw	zero,44(sp)
   191b0:	b829883a 	mov	r20,r23
   191b4:	00000806 	br	191d8 <___svfprintf_internal_r+0x4e0>
   191b8:	dd000b15 	stw	r20,44(sp)
   191bc:	05000084 	movi	r20,2
   191c0:	00000506 	br	191d8 <___svfprintf_internal_r+0x4e0>
   191c4:	00c00044 	movi	r3,1
   191c8:	d8c00c15 	stw	r3,48(sp)
   191cc:	050000c4 	movi	r20,3
   191d0:	00000106 	br	191d8 <___svfprintf_internal_r+0x4e0>
   191d4:	0029883a 	mov	r20,zero
   191d8:	d8c00f17 	ldw	r3,60(sp)
   191dc:	18c00044 	addi	r3,r3,1
   191e0:	d8c00f15 	stw	r3,60(sp)
   191e4:	003ede06 	br	18d60 <_gp+0xffff4d00>
   191e8:	8005883a 	mov	r2,r16
   191ec:	dfc01a17 	ldw	ra,104(sp)
   191f0:	df001917 	ldw	fp,100(sp)
   191f4:	ddc01817 	ldw	r23,96(sp)
   191f8:	dd801717 	ldw	r22,92(sp)
   191fc:	dd401617 	ldw	r21,88(sp)
   19200:	dd001517 	ldw	r20,84(sp)
   19204:	dcc01417 	ldw	r19,80(sp)
   19208:	dc801317 	ldw	r18,76(sp)
   1920c:	dc401217 	ldw	r17,72(sp)
   19210:	dc001117 	ldw	r16,68(sp)
   19214:	dec01b04 	addi	sp,sp,108
   19218:	f800283a 	ret

0001921c <__vfprintf_internal_unused>:
   1921c:	008000b4 	movhi	r2,2
   19220:	10b01c04 	addi	r2,r2,-16272
   19224:	300f883a 	mov	r7,r6
   19228:	280d883a 	mov	r6,r5
   1922c:	200b883a 	mov	r5,r4
   19230:	11000017 	ldw	r4,0(r2)
   19234:	0018cf81 	jmpi	18cf8 <___svfprintf_internal_r>

00019238 <print_repeat>:
   19238:	defffb04 	addi	sp,sp,-20
   1923c:	dc800315 	stw	r18,12(sp)
   19240:	dc400215 	stw	r17,8(sp)
   19244:	dc000115 	stw	r16,4(sp)
   19248:	dfc00415 	stw	ra,16(sp)
   1924c:	2025883a 	mov	r18,r4
   19250:	2823883a 	mov	r17,r5
   19254:	d9800005 	stb	r6,0(sp)
   19258:	3821883a 	mov	r16,r7
   1925c:	04000a0e 	bge	zero,r16,19288 <print_repeat+0x50>
   19260:	88800117 	ldw	r2,4(r17)
   19264:	01c00044 	movi	r7,1
   19268:	d80d883a 	mov	r6,sp
   1926c:	880b883a 	mov	r5,r17
   19270:	9009883a 	mov	r4,r18
   19274:	103ee83a 	callr	r2
   19278:	843fffc4 	addi	r16,r16,-1
   1927c:	103ff726 	beq	r2,zero,1925c <_gp+0xffff51fc>
   19280:	00bfffc4 	movi	r2,-1
   19284:	00000106 	br	1928c <print_repeat+0x54>
   19288:	0005883a 	mov	r2,zero
   1928c:	dfc00417 	ldw	ra,16(sp)
   19290:	dc800317 	ldw	r18,12(sp)
   19294:	dc400217 	ldw	r17,8(sp)
   19298:	dc000117 	ldw	r16,4(sp)
   1929c:	dec00504 	addi	sp,sp,20
   192a0:	f800283a 	ret

000192a4 <___vfprintf_internal_r>:
   192a4:	deffe504 	addi	sp,sp,-108
   192a8:	d8c00804 	addi	r3,sp,32
   192ac:	df001915 	stw	fp,100(sp)
   192b0:	ddc01815 	stw	r23,96(sp)
   192b4:	dd801715 	stw	r22,92(sp)
   192b8:	dd401615 	stw	r21,88(sp)
   192bc:	dd001515 	stw	r20,84(sp)
   192c0:	dcc01415 	stw	r19,80(sp)
   192c4:	dc801315 	stw	r18,76(sp)
   192c8:	dc401215 	stw	r17,72(sp)
   192cc:	dc001115 	stw	r16,68(sp)
   192d0:	dfc01a15 	stw	ra,104(sp)
   192d4:	2027883a 	mov	r19,r4
   192d8:	2839883a 	mov	fp,r5
   192dc:	382d883a 	mov	r22,r7
   192e0:	d9800f15 	stw	r6,60(sp)
   192e4:	0021883a 	mov	r16,zero
   192e8:	d8000e15 	stw	zero,56(sp)
   192ec:	002f883a 	mov	r23,zero
   192f0:	002b883a 	mov	r21,zero
   192f4:	0025883a 	mov	r18,zero
   192f8:	0023883a 	mov	r17,zero
   192fc:	d8000c15 	stw	zero,48(sp)
   19300:	d8000b15 	stw	zero,44(sp)
   19304:	0029883a 	mov	r20,zero
   19308:	d8c00915 	stw	r3,36(sp)
   1930c:	d8c00f17 	ldw	r3,60(sp)
   19310:	19000003 	ldbu	r4,0(r3)
   19314:	20803fcc 	andi	r2,r4,255
   19318:	1080201c 	xori	r2,r2,128
   1931c:	10bfe004 	addi	r2,r2,-128
   19320:	10011c26 	beq	r2,zero,19794 <___vfprintf_internal_r+0x4f0>
   19324:	00c00044 	movi	r3,1
   19328:	a0c01426 	beq	r20,r3,1937c <___vfprintf_internal_r+0xd8>
   1932c:	1d000216 	blt	r3,r20,19338 <___vfprintf_internal_r+0x94>
   19330:	a0000626 	beq	r20,zero,1934c <___vfprintf_internal_r+0xa8>
   19334:	00011306 	br	19784 <___vfprintf_internal_r+0x4e0>
   19338:	01400084 	movi	r5,2
   1933c:	a1401d26 	beq	r20,r5,193b4 <___vfprintf_internal_r+0x110>
   19340:	014000c4 	movi	r5,3
   19344:	a1402926 	beq	r20,r5,193ec <___vfprintf_internal_r+0x148>
   19348:	00010e06 	br	19784 <___vfprintf_internal_r+0x4e0>
   1934c:	01400944 	movi	r5,37
   19350:	1140fb26 	beq	r2,r5,19740 <___vfprintf_internal_r+0x49c>
   19354:	e0800117 	ldw	r2,4(fp)
   19358:	d9000005 	stb	r4,0(sp)
   1935c:	01c00044 	movi	r7,1
   19360:	d80d883a 	mov	r6,sp
   19364:	e00b883a 	mov	r5,fp
   19368:	9809883a 	mov	r4,r19
   1936c:	103ee83a 	callr	r2
   19370:	1000d61e 	bne	r2,zero,196cc <___vfprintf_internal_r+0x428>
   19374:	84000044 	addi	r16,r16,1
   19378:	00010206 	br	19784 <___vfprintf_internal_r+0x4e0>
   1937c:	01400c04 	movi	r5,48
   19380:	1140f826 	beq	r2,r5,19764 <___vfprintf_internal_r+0x4c0>
   19384:	01400944 	movi	r5,37
   19388:	11400a1e 	bne	r2,r5,193b4 <___vfprintf_internal_r+0x110>
   1938c:	d8800005 	stb	r2,0(sp)
   19390:	e0800117 	ldw	r2,4(fp)
   19394:	a00f883a 	mov	r7,r20
   19398:	d80d883a 	mov	r6,sp
   1939c:	e00b883a 	mov	r5,fp
   193a0:	9809883a 	mov	r4,r19
   193a4:	103ee83a 	callr	r2
   193a8:	1000c81e 	bne	r2,zero,196cc <___vfprintf_internal_r+0x428>
   193ac:	84000044 	addi	r16,r16,1
   193b0:	0000f306 	br	19780 <___vfprintf_internal_r+0x4dc>
   193b4:	217ff404 	addi	r5,r4,-48
   193b8:	29403fcc 	andi	r5,r5,255
   193bc:	00c00244 	movi	r3,9
   193c0:	19400736 	bltu	r3,r5,193e0 <___vfprintf_internal_r+0x13c>
   193c4:	00bfffc4 	movi	r2,-1
   193c8:	88800226 	beq	r17,r2,193d4 <___vfprintf_internal_r+0x130>
   193cc:	8c4002a4 	muli	r17,r17,10
   193d0:	00000106 	br	193d8 <___vfprintf_internal_r+0x134>
   193d4:	0023883a 	mov	r17,zero
   193d8:	2c63883a 	add	r17,r5,r17
   193dc:	0000e206 	br	19768 <___vfprintf_internal_r+0x4c4>
   193e0:	01400b84 	movi	r5,46
   193e4:	1140e426 	beq	r2,r5,19778 <___vfprintf_internal_r+0x4d4>
   193e8:	05000084 	movi	r20,2
   193ec:	213ff404 	addi	r4,r4,-48
   193f0:	21003fcc 	andi	r4,r4,255
   193f4:	00c00244 	movi	r3,9
   193f8:	19000736 	bltu	r3,r4,19418 <___vfprintf_internal_r+0x174>
   193fc:	00bfffc4 	movi	r2,-1
   19400:	90800226 	beq	r18,r2,1940c <___vfprintf_internal_r+0x168>
   19404:	948002a4 	muli	r18,r18,10
   19408:	00000106 	br	19410 <___vfprintf_internal_r+0x16c>
   1940c:	0025883a 	mov	r18,zero
   19410:	24a5883a 	add	r18,r4,r18
   19414:	0000db06 	br	19784 <___vfprintf_internal_r+0x4e0>
   19418:	00c01b04 	movi	r3,108
   1941c:	10c0d426 	beq	r2,r3,19770 <___vfprintf_internal_r+0x4cc>
   19420:	013fffc4 	movi	r4,-1
   19424:	91000226 	beq	r18,r4,19430 <___vfprintf_internal_r+0x18c>
   19428:	d8000b15 	stw	zero,44(sp)
   1942c:	00000106 	br	19434 <___vfprintf_internal_r+0x190>
   19430:	04800044 	movi	r18,1
   19434:	01001a44 	movi	r4,105
   19438:	11001626 	beq	r2,r4,19494 <___vfprintf_internal_r+0x1f0>
   1943c:	20800916 	blt	r4,r2,19464 <___vfprintf_internal_r+0x1c0>
   19440:	010018c4 	movi	r4,99
   19444:	11008a26 	beq	r2,r4,19670 <___vfprintf_internal_r+0x3cc>
   19448:	01001904 	movi	r4,100
   1944c:	11001126 	beq	r2,r4,19494 <___vfprintf_internal_r+0x1f0>
   19450:	01001604 	movi	r4,88
   19454:	1100ca1e 	bne	r2,r4,19780 <___vfprintf_internal_r+0x4dc>
   19458:	00c00044 	movi	r3,1
   1945c:	d8c00e15 	stw	r3,56(sp)
   19460:	00001406 	br	194b4 <___vfprintf_internal_r+0x210>
   19464:	01001cc4 	movi	r4,115
   19468:	11009a26 	beq	r2,r4,196d4 <___vfprintf_internal_r+0x430>
   1946c:	20800416 	blt	r4,r2,19480 <___vfprintf_internal_r+0x1dc>
   19470:	01001bc4 	movi	r4,111
   19474:	1100c21e 	bne	r2,r4,19780 <___vfprintf_internal_r+0x4dc>
   19478:	05400204 	movi	r21,8
   1947c:	00000e06 	br	194b8 <___vfprintf_internal_r+0x214>
   19480:	01001d44 	movi	r4,117
   19484:	11000c26 	beq	r2,r4,194b8 <___vfprintf_internal_r+0x214>
   19488:	01001e04 	movi	r4,120
   1948c:	11000926 	beq	r2,r4,194b4 <___vfprintf_internal_r+0x210>
   19490:	0000bb06 	br	19780 <___vfprintf_internal_r+0x4dc>
   19494:	b5000104 	addi	r20,r22,4
   19498:	b8000726 	beq	r23,zero,194b8 <___vfprintf_internal_r+0x214>
   1949c:	dd000d15 	stw	r20,52(sp)
   194a0:	b5800017 	ldw	r22,0(r22)
   194a4:	b000080e 	bge	r22,zero,194c8 <___vfprintf_internal_r+0x224>
   194a8:	05adc83a 	sub	r22,zero,r22
   194ac:	02800044 	movi	r10,1
   194b0:	00000606 	br	194cc <___vfprintf_internal_r+0x228>
   194b4:	05400404 	movi	r21,16
   194b8:	b0c00104 	addi	r3,r22,4
   194bc:	d8c00d15 	stw	r3,52(sp)
   194c0:	b5800017 	ldw	r22,0(r22)
   194c4:	002f883a 	mov	r23,zero
   194c8:	0015883a 	mov	r10,zero
   194cc:	d829883a 	mov	r20,sp
   194d0:	b0001426 	beq	r22,zero,19524 <___vfprintf_internal_r+0x280>
   194d4:	b009883a 	mov	r4,r22
   194d8:	a80b883a 	mov	r5,r21
   194dc:	da801015 	stw	r10,64(sp)
   194e0:	0014ab40 	call	14ab4 <__udivsi3>
   194e4:	1549383a 	mul	r4,r2,r21
   194e8:	00c00244 	movi	r3,9
   194ec:	da801017 	ldw	r10,64(sp)
   194f0:	b12dc83a 	sub	r22,r22,r4
   194f4:	1d800216 	blt	r3,r22,19500 <___vfprintf_internal_r+0x25c>
   194f8:	b5800c04 	addi	r22,r22,48
   194fc:	00000506 	br	19514 <___vfprintf_internal_r+0x270>
   19500:	d8c00e17 	ldw	r3,56(sp)
   19504:	18000226 	beq	r3,zero,19510 <___vfprintf_internal_r+0x26c>
   19508:	b5800dc4 	addi	r22,r22,55
   1950c:	00000106 	br	19514 <___vfprintf_internal_r+0x270>
   19510:	b58015c4 	addi	r22,r22,87
   19514:	a5800005 	stb	r22,0(r20)
   19518:	a5000044 	addi	r20,r20,1
   1951c:	102d883a 	mov	r22,r2
   19520:	003feb06 	br	194d0 <_gp+0xffff5470>
   19524:	a6c7c83a 	sub	r3,r20,sp
   19528:	d8c00a15 	stw	r3,40(sp)
   1952c:	90c5c83a 	sub	r2,r18,r3
   19530:	00800a0e 	bge	zero,r2,1955c <___vfprintf_internal_r+0x2b8>
   19534:	a085883a 	add	r2,r20,r2
   19538:	01400c04 	movi	r5,48
   1953c:	d8c00917 	ldw	r3,36(sp)
   19540:	a009883a 	mov	r4,r20
   19544:	a0c0032e 	bgeu	r20,r3,19554 <___vfprintf_internal_r+0x2b0>
   19548:	a5000044 	addi	r20,r20,1
   1954c:	21400005 	stb	r5,0(r4)
   19550:	a0bffa1e 	bne	r20,r2,1953c <_gp+0xffff54dc>
   19554:	a6c7c83a 	sub	r3,r20,sp
   19558:	d8c00a15 	stw	r3,40(sp)
   1955c:	d8c00a17 	ldw	r3,40(sp)
   19560:	50d3883a 	add	r9,r10,r3
   19564:	d8c00b17 	ldw	r3,44(sp)
   19568:	8a6dc83a 	sub	r22,r17,r9
   1956c:	18001726 	beq	r3,zero,195cc <___vfprintf_internal_r+0x328>
   19570:	50000a26 	beq	r10,zero,1959c <___vfprintf_internal_r+0x2f8>
   19574:	00800b44 	movi	r2,45
   19578:	d8800805 	stb	r2,32(sp)
   1957c:	e0800117 	ldw	r2,4(fp)
   19580:	01c00044 	movi	r7,1
   19584:	d9800804 	addi	r6,sp,32
   19588:	e00b883a 	mov	r5,fp
   1958c:	9809883a 	mov	r4,r19
   19590:	103ee83a 	callr	r2
   19594:	10004d1e 	bne	r2,zero,196cc <___vfprintf_internal_r+0x428>
   19598:	84000044 	addi	r16,r16,1
   1959c:	0580070e 	bge	zero,r22,195bc <___vfprintf_internal_r+0x318>
   195a0:	b00f883a 	mov	r7,r22
   195a4:	01800c04 	movi	r6,48
   195a8:	e00b883a 	mov	r5,fp
   195ac:	9809883a 	mov	r4,r19
   195b0:	00192380 	call	19238 <print_repeat>
   195b4:	1000451e 	bne	r2,zero,196cc <___vfprintf_internal_r+0x428>
   195b8:	85a1883a 	add	r16,r16,r22
   195bc:	d8c00a17 	ldw	r3,40(sp)
   195c0:	a013883a 	mov	r9,r20
   195c4:	1d2dc83a 	sub	r22,r3,r20
   195c8:	00002206 	br	19654 <___vfprintf_internal_r+0x3b0>
   195cc:	0580090e 	bge	zero,r22,195f4 <___vfprintf_internal_r+0x350>
   195d0:	b00f883a 	mov	r7,r22
   195d4:	01800804 	movi	r6,32
   195d8:	e00b883a 	mov	r5,fp
   195dc:	9809883a 	mov	r4,r19
   195e0:	da801015 	stw	r10,64(sp)
   195e4:	00192380 	call	19238 <print_repeat>
   195e8:	da801017 	ldw	r10,64(sp)
   195ec:	1000371e 	bne	r2,zero,196cc <___vfprintf_internal_r+0x428>
   195f0:	85a1883a 	add	r16,r16,r22
   195f4:	503ff126 	beq	r10,zero,195bc <_gp+0xffff555c>
   195f8:	00800b44 	movi	r2,45
   195fc:	d8800805 	stb	r2,32(sp)
   19600:	e0800117 	ldw	r2,4(fp)
   19604:	01c00044 	movi	r7,1
   19608:	d9800804 	addi	r6,sp,32
   1960c:	e00b883a 	mov	r5,fp
   19610:	9809883a 	mov	r4,r19
   19614:	103ee83a 	callr	r2
   19618:	10002c1e 	bne	r2,zero,196cc <___vfprintf_internal_r+0x428>
   1961c:	84000044 	addi	r16,r16,1
   19620:	003fe606 	br	195bc <_gp+0xffff555c>
   19624:	4a7fffc4 	addi	r9,r9,-1
   19628:	48800003 	ldbu	r2,0(r9)
   1962c:	01c00044 	movi	r7,1
   19630:	d9800804 	addi	r6,sp,32
   19634:	d8800805 	stb	r2,32(sp)
   19638:	e0800117 	ldw	r2,4(fp)
   1963c:	e00b883a 	mov	r5,fp
   19640:	da401015 	stw	r9,64(sp)
   19644:	9809883a 	mov	r4,r19
   19648:	103ee83a 	callr	r2
   1964c:	da401017 	ldw	r9,64(sp)
   19650:	10001e1e 	bne	r2,zero,196cc <___vfprintf_internal_r+0x428>
   19654:	8245c83a 	sub	r2,r16,r9
   19658:	4d89883a 	add	r4,r9,r22
   1965c:	a085883a 	add	r2,r20,r2
   19660:	013ff016 	blt	zero,r4,19624 <_gp+0xffff55c4>
   19664:	1021883a 	mov	r16,r2
   19668:	dd800d17 	ldw	r22,52(sp)
   1966c:	00004406 	br	19780 <___vfprintf_internal_r+0x4dc>
   19670:	00800044 	movi	r2,1
   19674:	1440080e 	bge	r2,r17,19698 <___vfprintf_internal_r+0x3f4>
   19678:	8d3fffc4 	addi	r20,r17,-1
   1967c:	a00f883a 	mov	r7,r20
   19680:	01800804 	movi	r6,32
   19684:	e00b883a 	mov	r5,fp
   19688:	9809883a 	mov	r4,r19
   1968c:	00192380 	call	19238 <print_repeat>
   19690:	10000e1e 	bne	r2,zero,196cc <___vfprintf_internal_r+0x428>
   19694:	8521883a 	add	r16,r16,r20
   19698:	b0800017 	ldw	r2,0(r22)
   1969c:	01c00044 	movi	r7,1
   196a0:	d80d883a 	mov	r6,sp
   196a4:	d8800005 	stb	r2,0(sp)
   196a8:	e0800117 	ldw	r2,4(fp)
   196ac:	e00b883a 	mov	r5,fp
   196b0:	9809883a 	mov	r4,r19
   196b4:	b5000104 	addi	r20,r22,4
   196b8:	103ee83a 	callr	r2
   196bc:	1000031e 	bne	r2,zero,196cc <___vfprintf_internal_r+0x428>
   196c0:	84000044 	addi	r16,r16,1
   196c4:	a02d883a 	mov	r22,r20
   196c8:	00002d06 	br	19780 <___vfprintf_internal_r+0x4dc>
   196cc:	00bfffc4 	movi	r2,-1
   196d0:	00003106 	br	19798 <___vfprintf_internal_r+0x4f4>
   196d4:	b5000017 	ldw	r20,0(r22)
   196d8:	b0c00104 	addi	r3,r22,4
   196dc:	d8c00a15 	stw	r3,40(sp)
   196e0:	a009883a 	mov	r4,r20
   196e4:	00189e40 	call	189e4 <strlen>
   196e8:	8893c83a 	sub	r9,r17,r2
   196ec:	102d883a 	mov	r22,r2
   196f0:	0240090e 	bge	zero,r9,19718 <___vfprintf_internal_r+0x474>
   196f4:	480f883a 	mov	r7,r9
   196f8:	01800804 	movi	r6,32
   196fc:	e00b883a 	mov	r5,fp
   19700:	9809883a 	mov	r4,r19
   19704:	da401015 	stw	r9,64(sp)
   19708:	00192380 	call	19238 <print_repeat>
   1970c:	da401017 	ldw	r9,64(sp)
   19710:	103fee1e 	bne	r2,zero,196cc <_gp+0xffff566c>
   19714:	8261883a 	add	r16,r16,r9
   19718:	e0800117 	ldw	r2,4(fp)
   1971c:	b00f883a 	mov	r7,r22
   19720:	a00d883a 	mov	r6,r20
   19724:	e00b883a 	mov	r5,fp
   19728:	9809883a 	mov	r4,r19
   1972c:	103ee83a 	callr	r2
   19730:	103fe61e 	bne	r2,zero,196cc <_gp+0xffff566c>
   19734:	85a1883a 	add	r16,r16,r22
   19738:	dd800a17 	ldw	r22,40(sp)
   1973c:	00001006 	br	19780 <___vfprintf_internal_r+0x4dc>
   19740:	05c00044 	movi	r23,1
   19744:	04bfffc4 	movi	r18,-1
   19748:	d8000e15 	stw	zero,56(sp)
   1974c:	05400284 	movi	r21,10
   19750:	9023883a 	mov	r17,r18
   19754:	d8000c15 	stw	zero,48(sp)
   19758:	d8000b15 	stw	zero,44(sp)
   1975c:	b829883a 	mov	r20,r23
   19760:	00000806 	br	19784 <___vfprintf_internal_r+0x4e0>
   19764:	dd000b15 	stw	r20,44(sp)
   19768:	05000084 	movi	r20,2
   1976c:	00000506 	br	19784 <___vfprintf_internal_r+0x4e0>
   19770:	00c00044 	movi	r3,1
   19774:	d8c00c15 	stw	r3,48(sp)
   19778:	050000c4 	movi	r20,3
   1977c:	00000106 	br	19784 <___vfprintf_internal_r+0x4e0>
   19780:	0029883a 	mov	r20,zero
   19784:	d8c00f17 	ldw	r3,60(sp)
   19788:	18c00044 	addi	r3,r3,1
   1978c:	d8c00f15 	stw	r3,60(sp)
   19790:	003ede06 	br	1930c <_gp+0xffff52ac>
   19794:	8005883a 	mov	r2,r16
   19798:	dfc01a17 	ldw	ra,104(sp)
   1979c:	df001917 	ldw	fp,100(sp)
   197a0:	ddc01817 	ldw	r23,96(sp)
   197a4:	dd801717 	ldw	r22,92(sp)
   197a8:	dd401617 	ldw	r21,88(sp)
   197ac:	dd001517 	ldw	r20,84(sp)
   197b0:	dcc01417 	ldw	r19,80(sp)
   197b4:	dc801317 	ldw	r18,76(sp)
   197b8:	dc401217 	ldw	r17,72(sp)
   197bc:	dc001117 	ldw	r16,68(sp)
   197c0:	dec01b04 	addi	sp,sp,108
   197c4:	f800283a 	ret

000197c8 <__vfprintf_internal>:
   197c8:	008000b4 	movhi	r2,2
   197cc:	10b01c04 	addi	r2,r2,-16272
   197d0:	300f883a 	mov	r7,r6
   197d4:	280d883a 	mov	r6,r5
   197d8:	200b883a 	mov	r5,r4
   197dc:	11000017 	ldw	r4,0(r2)
   197e0:	00192a41 	jmpi	192a4 <___vfprintf_internal_r>

000197e4 <__call_exitprocs>:
   197e4:	defff504 	addi	sp,sp,-44
   197e8:	dd000515 	stw	r20,20(sp)
   197ec:	050000b4 	movhi	r20,2
   197f0:	dc800315 	stw	r18,12(sp)
   197f4:	dfc00a15 	stw	ra,40(sp)
   197f8:	df000915 	stw	fp,36(sp)
   197fc:	ddc00815 	stw	r23,32(sp)
   19800:	dd800715 	stw	r22,28(sp)
   19804:	dd400615 	stw	r21,24(sp)
   19808:	dcc00415 	stw	r19,16(sp)
   1980c:	dc400215 	stw	r17,8(sp)
   19810:	dc000115 	stw	r16,4(sp)
   19814:	d9000015 	stw	r4,0(sp)
   19818:	2825883a 	mov	r18,r5
   1981c:	a5301b04 	addi	r20,r20,-16276
   19820:	a4400017 	ldw	r17,0(r20)
   19824:	8cc00c17 	ldw	r19,48(r17)
   19828:	8c400c04 	addi	r17,r17,48
   1982c:	98004526 	beq	r19,zero,19944 <__call_exitprocs+0x160>
   19830:	9c000117 	ldw	r16,4(r19)
   19834:	00900034 	movhi	r2,16384
   19838:	10bfffc4 	addi	r2,r2,-1
   1983c:	9d402217 	ldw	r21,136(r19)
   19840:	85bfffc4 	addi	r22,r16,-1
   19844:	80a1883a 	add	r16,r16,r2
   19848:	8421883a 	add	r16,r16,r16
   1984c:	8421883a 	add	r16,r16,r16
   19850:	ac2f883a 	add	r23,r21,r16
   19854:	84000204 	addi	r16,r16,8
   19858:	9c21883a 	add	r16,r19,r16
   1985c:	b0002716 	blt	r22,zero,198fc <__call_exitprocs+0x118>
   19860:	90000726 	beq	r18,zero,19880 <__call_exitprocs+0x9c>
   19864:	a800041e 	bne	r21,zero,19878 <__call_exitprocs+0x94>
   19868:	b5bfffc4 	addi	r22,r22,-1
   1986c:	bdffff04 	addi	r23,r23,-4
   19870:	843fff04 	addi	r16,r16,-4
   19874:	003ff906 	br	1985c <_gp+0xffff57fc>
   19878:	b9002017 	ldw	r4,128(r23)
   1987c:	913ffa1e 	bne	r18,r4,19868 <_gp+0xffff5808>
   19880:	99000117 	ldw	r4,4(r19)
   19884:	82000017 	ldw	r8,0(r16)
   19888:	213fffc4 	addi	r4,r4,-1
   1988c:	b100021e 	bne	r22,r4,19898 <__call_exitprocs+0xb4>
   19890:	9d800115 	stw	r22,4(r19)
   19894:	00000106 	br	1989c <__call_exitprocs+0xb8>
   19898:	80000015 	stw	zero,0(r16)
   1989c:	403ff226 	beq	r8,zero,19868 <_gp+0xffff5808>
   198a0:	9f000117 	ldw	fp,4(r19)
   198a4:	a8000526 	beq	r21,zero,198bc <__call_exitprocs+0xd8>
   198a8:	00800044 	movi	r2,1
   198ac:	1592983a 	sll	r9,r2,r22
   198b0:	a9404017 	ldw	r5,256(r21)
   198b4:	494a703a 	and	r5,r9,r5
   198b8:	2800021e 	bne	r5,zero,198c4 <__call_exitprocs+0xe0>
   198bc:	403ee83a 	callr	r8
   198c0:	00000906 	br	198e8 <__call_exitprocs+0x104>
   198c4:	a9004117 	ldw	r4,260(r21)
   198c8:	4908703a 	and	r4,r9,r4
   198cc:	2000041e 	bne	r4,zero,198e0 <__call_exitprocs+0xfc>
   198d0:	b9400017 	ldw	r5,0(r23)
   198d4:	d9000017 	ldw	r4,0(sp)
   198d8:	403ee83a 	callr	r8
   198dc:	00000206 	br	198e8 <__call_exitprocs+0x104>
   198e0:	b9000017 	ldw	r4,0(r23)
   198e4:	403ee83a 	callr	r8
   198e8:	99000117 	ldw	r4,4(r19)
   198ec:	e13fcc1e 	bne	fp,r4,19820 <_gp+0xffff57c0>
   198f0:	89000017 	ldw	r4,0(r17)
   198f4:	993fdc26 	beq	r19,r4,19868 <_gp+0xffff5808>
   198f8:	003fc906 	br	19820 <_gp+0xffff57c0>
   198fc:	00800034 	movhi	r2,0
   19900:	10800004 	addi	r2,r2,0
   19904:	10000f26 	beq	r2,zero,19944 <__call_exitprocs+0x160>
   19908:	99400117 	ldw	r5,4(r19)
   1990c:	99000017 	ldw	r4,0(r19)
   19910:	2800091e 	bne	r5,zero,19938 <__call_exitprocs+0x154>
   19914:	20000826 	beq	r4,zero,19938 <__call_exitprocs+0x154>
   19918:	89000015 	stw	r4,0(r17)
   1991c:	a8000226 	beq	r21,zero,19928 <__call_exitprocs+0x144>
   19920:	a809883a 	mov	r4,r21
   19924:	00000000 	call	0 <__alt_mem_RAM-0x10000>
   19928:	9809883a 	mov	r4,r19
   1992c:	00000000 	call	0 <__alt_mem_RAM-0x10000>
   19930:	8cc00017 	ldw	r19,0(r17)
   19934:	003fbd06 	br	1982c <_gp+0xffff57cc>
   19938:	9823883a 	mov	r17,r19
   1993c:	2027883a 	mov	r19,r4
   19940:	003fba06 	br	1982c <_gp+0xffff57cc>
   19944:	dfc00a17 	ldw	ra,40(sp)
   19948:	df000917 	ldw	fp,36(sp)
   1994c:	ddc00817 	ldw	r23,32(sp)
   19950:	dd800717 	ldw	r22,28(sp)
   19954:	dd400617 	ldw	r21,24(sp)
   19958:	dd000517 	ldw	r20,20(sp)
   1995c:	dcc00417 	ldw	r19,16(sp)
   19960:	dc800317 	ldw	r18,12(sp)
   19964:	dc400217 	ldw	r17,8(sp)
   19968:	dc000117 	ldw	r16,4(sp)
   1996c:	dec00b04 	addi	sp,sp,44
   19970:	f800283a 	ret

00019974 <__sfvwrite_small_dev>:
   19974:	2880000b 	ldhu	r2,0(r5)
   19978:	1080020c 	andi	r2,r2,8
   1997c:	10002126 	beq	r2,zero,19a04 <__sfvwrite_small_dev+0x90>
   19980:	2880008f 	ldh	r2,2(r5)
   19984:	defffa04 	addi	sp,sp,-24
   19988:	dc000015 	stw	r16,0(sp)
   1998c:	dfc00515 	stw	ra,20(sp)
   19990:	dd000415 	stw	r20,16(sp)
   19994:	dcc00315 	stw	r19,12(sp)
   19998:	dc800215 	stw	r18,8(sp)
   1999c:	dc400115 	stw	r17,4(sp)
   199a0:	2821883a 	mov	r16,r5
   199a4:	10001216 	blt	r2,zero,199f0 <__sfvwrite_small_dev+0x7c>
   199a8:	2027883a 	mov	r19,r4
   199ac:	3025883a 	mov	r18,r6
   199b0:	3823883a 	mov	r17,r7
   199b4:	05010004 	movi	r20,1024
   199b8:	04400b0e 	bge	zero,r17,199e8 <__sfvwrite_small_dev+0x74>
   199bc:	880f883a 	mov	r7,r17
   199c0:	a440010e 	bge	r20,r17,199c8 <__sfvwrite_small_dev+0x54>
   199c4:	01c10004 	movi	r7,1024
   199c8:	8140008f 	ldh	r5,2(r16)
   199cc:	900d883a 	mov	r6,r18
   199d0:	9809883a 	mov	r4,r19
   199d4:	0019be00 	call	19be0 <_write_r>
   199d8:	0080050e 	bge	zero,r2,199f0 <__sfvwrite_small_dev+0x7c>
   199dc:	88a3c83a 	sub	r17,r17,r2
   199e0:	90a5883a 	add	r18,r18,r2
   199e4:	003ff406 	br	199b8 <_gp+0xffff5958>
   199e8:	0005883a 	mov	r2,zero
   199ec:	00000706 	br	19a0c <__sfvwrite_small_dev+0x98>
   199f0:	8080000b 	ldhu	r2,0(r16)
   199f4:	10801014 	ori	r2,r2,64
   199f8:	8080000d 	sth	r2,0(r16)
   199fc:	00bfffc4 	movi	r2,-1
   19a00:	00000206 	br	19a0c <__sfvwrite_small_dev+0x98>
   19a04:	00bfffc4 	movi	r2,-1
   19a08:	f800283a 	ret
   19a0c:	dfc00517 	ldw	ra,20(sp)
   19a10:	dd000417 	ldw	r20,16(sp)
   19a14:	dcc00317 	ldw	r19,12(sp)
   19a18:	dc800217 	ldw	r18,8(sp)
   19a1c:	dc400117 	ldw	r17,4(sp)
   19a20:	dc000017 	ldw	r16,0(sp)
   19a24:	dec00604 	addi	sp,sp,24
   19a28:	f800283a 	ret

00019a2c <__sfvwrite_small_str>:
   19a2c:	2880000b 	ldhu	r2,0(r5)
   19a30:	10c0020c 	andi	r3,r2,8
   19a34:	18002026 	beq	r3,zero,19ab8 <__sfvwrite_small_str+0x8c>
   19a38:	28c0008f 	ldh	r3,2(r5)
   19a3c:	defffd04 	addi	sp,sp,-12
   19a40:	dc000015 	stw	r16,0(sp)
   19a44:	dfc00215 	stw	ra,8(sp)
   19a48:	dc400115 	stw	r17,4(sp)
   19a4c:	2821883a 	mov	r16,r5
   19a50:	1800150e 	bge	r3,zero,19aa8 <__sfvwrite_small_str+0x7c>
   19a54:	10c0800c 	andi	r3,r2,512
   19a58:	18001326 	beq	r3,zero,19aa8 <__sfvwrite_small_str+0x7c>
   19a5c:	2c400517 	ldw	r17,20(r5)
   19a60:	89c0030e 	bge	r17,r7,19a70 <__sfvwrite_small_str+0x44>
   19a64:	10c0200c 	andi	r3,r2,128
   19a68:	18000326 	beq	r3,zero,19a78 <__sfvwrite_small_str+0x4c>
   19a6c:	00000e06 	br	19aa8 <__sfvwrite_small_str+0x7c>
   19a70:	3c40010e 	bge	r7,r17,19a78 <__sfvwrite_small_str+0x4c>
   19a74:	3823883a 	mov	r17,r7
   19a78:	81000417 	ldw	r4,16(r16)
   19a7c:	300b883a 	mov	r5,r6
   19a80:	880d883a 	mov	r6,r17
   19a84:	0019ad40 	call	19ad4 <memmove>
   19a88:	80800517 	ldw	r2,20(r16)
   19a8c:	1445c83a 	sub	r2,r2,r17
   19a90:	80800515 	stw	r2,20(r16)
   19a94:	80800417 	ldw	r2,16(r16)
   19a98:	1463883a 	add	r17,r2,r17
   19a9c:	84400415 	stw	r17,16(r16)
   19aa0:	0005883a 	mov	r2,zero
   19aa4:	00000606 	br	19ac0 <__sfvwrite_small_str+0x94>
   19aa8:	10801014 	ori	r2,r2,64
   19aac:	8080000d 	sth	r2,0(r16)
   19ab0:	00bfffc4 	movi	r2,-1
   19ab4:	00000206 	br	19ac0 <__sfvwrite_small_str+0x94>
   19ab8:	00bfffc4 	movi	r2,-1
   19abc:	f800283a 	ret
   19ac0:	dfc00217 	ldw	ra,8(sp)
   19ac4:	dc400117 	ldw	r17,4(sp)
   19ac8:	dc000017 	ldw	r16,0(sp)
   19acc:	dec00304 	addi	sp,sp,12
   19ad0:	f800283a 	ret

00019ad4 <memmove>:
   19ad4:	2005883a 	mov	r2,r4
   19ad8:	218f883a 	add	r7,r4,r6
   19adc:	29000236 	bltu	r5,r4,19ae8 <memmove+0x14>
   19ae0:	1007883a 	mov	r3,r2
   19ae4:	00000c06 	br	19b18 <memmove+0x44>
   19ae8:	2987883a 	add	r3,r5,r6
   19aec:	20fffc2e 	bgeu	r4,r3,19ae0 <_gp+0xffff5a80>
   19af0:	380b883a 	mov	r5,r7
   19af4:	30cdc83a 	sub	r6,r6,r3
   19af8:	1989883a 	add	r4,r3,r6
   19afc:	20000526 	beq	r4,zero,19b14 <memmove+0x40>
   19b00:	18ffffc4 	addi	r3,r3,-1
   19b04:	19000003 	ldbu	r4,0(r3)
   19b08:	297fffc4 	addi	r5,r5,-1
   19b0c:	29000005 	stb	r4,0(r5)
   19b10:	003ff906 	br	19af8 <_gp+0xffff5a98>
   19b14:	f800283a 	ret
   19b18:	19c00526 	beq	r3,r7,19b30 <memmove+0x5c>
   19b1c:	29000003 	ldbu	r4,0(r5)
   19b20:	18c00044 	addi	r3,r3,1
   19b24:	29400044 	addi	r5,r5,1
   19b28:	193fffc5 	stb	r4,-1(r3)
   19b2c:	003ffa06 	br	19b18 <_gp+0xffff5ab8>
   19b30:	f800283a 	ret

00019b34 <putc>:
   19b34:	defffd04 	addi	sp,sp,-12
   19b38:	008000b4 	movhi	r2,2
   19b3c:	dc000115 	stw	r16,4(sp)
   19b40:	dfc00215 	stw	ra,8(sp)
   19b44:	10a65d04 	addi	r2,r2,-26252
   19b48:	28800115 	stw	r2,4(r5)
   19b4c:	008000b4 	movhi	r2,2
   19b50:	10b01c04 	addi	r2,r2,-16272
   19b54:	d9000005 	stb	r4,0(sp)
   19b58:	2021883a 	mov	r16,r4
   19b5c:	11000017 	ldw	r4,0(r2)
   19b60:	01c00044 	movi	r7,1
   19b64:	d80d883a 	mov	r6,sp
   19b68:	00199740 	call	19974 <__sfvwrite_small_dev>
   19b6c:	00ffffc4 	movi	r3,-1
   19b70:	10c00126 	beq	r2,r3,19b78 <putc+0x44>
   19b74:	8005883a 	mov	r2,r16
   19b78:	dfc00217 	ldw	ra,8(sp)
   19b7c:	dc000117 	ldw	r16,4(sp)
   19b80:	dec00304 	addi	sp,sp,12
   19b84:	f800283a 	ret

00019b88 <_putc_r>:
   19b88:	defffd04 	addi	sp,sp,-12
   19b8c:	008000b4 	movhi	r2,2
   19b90:	dc000115 	stw	r16,4(sp)
   19b94:	dfc00215 	stw	ra,8(sp)
   19b98:	10a65d04 	addi	r2,r2,-26252
   19b9c:	30800115 	stw	r2,4(r6)
   19ba0:	008000b4 	movhi	r2,2
   19ba4:	10b01c04 	addi	r2,r2,-16272
   19ba8:	11000017 	ldw	r4,0(r2)
   19bac:	2821883a 	mov	r16,r5
   19bb0:	01c00044 	movi	r7,1
   19bb4:	300b883a 	mov	r5,r6
   19bb8:	d80d883a 	mov	r6,sp
   19bbc:	dc000005 	stb	r16,0(sp)
   19bc0:	00199740 	call	19974 <__sfvwrite_small_dev>
   19bc4:	00ffffc4 	movi	r3,-1
   19bc8:	10c00126 	beq	r2,r3,19bd0 <_putc_r+0x48>
   19bcc:	8005883a 	mov	r2,r16
   19bd0:	dfc00217 	ldw	ra,8(sp)
   19bd4:	dc000117 	ldw	r16,4(sp)
   19bd8:	dec00304 	addi	sp,sp,12
   19bdc:	f800283a 	ret

00019be0 <_write_r>:
   19be0:	defffd04 	addi	sp,sp,-12
   19be4:	dc000015 	stw	r16,0(sp)
   19be8:	040000b4 	movhi	r16,2
   19bec:	dc400115 	stw	r17,4(sp)
   19bf0:	8431a704 	addi	r16,r16,-14692
   19bf4:	2023883a 	mov	r17,r4
   19bf8:	2809883a 	mov	r4,r5
   19bfc:	300b883a 	mov	r5,r6
   19c00:	380d883a 	mov	r6,r7
   19c04:	dfc00215 	stw	ra,8(sp)
   19c08:	80000015 	stw	zero,0(r16)
   19c0c:	001a0b00 	call	1a0b0 <write>
   19c10:	00ffffc4 	movi	r3,-1
   19c14:	10c0031e 	bne	r2,r3,19c24 <_write_r+0x44>
   19c18:	80c00017 	ldw	r3,0(r16)
   19c1c:	18000126 	beq	r3,zero,19c24 <_write_r+0x44>
   19c20:	88c00015 	stw	r3,0(r17)
   19c24:	dfc00217 	ldw	ra,8(sp)
   19c28:	dc400117 	ldw	r17,4(sp)
   19c2c:	dc000017 	ldw	r16,0(sp)
   19c30:	dec00304 	addi	sp,sp,12
   19c34:	f800283a 	ret

00019c38 <_exit>:
 *
 * ALT_EXIT is mapped onto the _exit() system call in alt_syscall.h
 */

void ALT_EXIT (int exit_code)
{
   19c38:	defffd04 	addi	sp,sp,-12
   19c3c:	df000215 	stw	fp,8(sp)
   19c40:	df000204 	addi	fp,sp,8
   19c44:	e13fff15 	stw	r4,-4(fp)
  ALT_LOG_PRINT_BOOT("[alt_exit.c] Entering _exit() function.\r\n");
  ALT_LOG_PRINT_BOOT("[alt_exit.c] Exit code from main was %d.\r\n",exit_code);
  /* Stop all other threads */

  ALT_LOG_PRINT_BOOT("[alt_exit.c] Calling ALT_OS_STOP().\r\n");
  ALT_OS_STOP();
   19c48:	0001883a 	nop
   19c4c:	e0bfff17 	ldw	r2,-4(fp)
   19c50:	e0bffe15 	stw	r2,-8(fp)
/*
 * Routine called on exit.
 */
static ALT_INLINE ALT_ALWAYS_INLINE void alt_sim_halt(int exit_code)
{
  register int r2 asm ("r2") = exit_code;
   19c54:	e0bffe17 	ldw	r2,-8(fp)
  __asm__ volatile ("\n0:\n\taddi %0,%0, -1\n\tbgt %0,zero,0b" : : "r" (ALT_CPU_FREQ/100) ); /* Delay for >30ms */

  __asm__ volatile ("break 2" : : "r"(r2), "r"(r3) ALT_GMON_DATA );

#else /* !DEBUG_STUB */
  if (r2) {
   19c58:	10000226 	beq	r2,zero,19c64 <_exit+0x2c>
    ALT_SIM_FAIL();
   19c5c:	002af070 	cmpltui	zero,zero,43969
   19c60:	00000106 	br	19c68 <_exit+0x30>
  } else {
    ALT_SIM_PASS();
   19c64:	002af0b0 	cmpltui	zero,zero,43970
  ALT_SIM_HALT(exit_code);

  /* spin forever, since there's no where to go back to */

  ALT_LOG_PRINT_BOOT("[alt_exit.c] Spinning forever.\r\n");
  while (1);
   19c68:	003fff06 	br	19c68 <_gp+0xffff5c08>

00019c6c <alt_ic_isr_register>:
  * @param irq              IRQ number
  * @return                 0 if successful, else error (-1)
  */
int alt_ic_isr_register(alt_u32 ic_id, alt_u32 irq, alt_isr_func isr, 
  void *isr_context, void *flags)
{
   19c6c:	defff904 	addi	sp,sp,-28
   19c70:	dfc00615 	stw	ra,24(sp)
   19c74:	df000515 	stw	fp,20(sp)
   19c78:	df000504 	addi	fp,sp,20
   19c7c:	e13ffc15 	stw	r4,-16(fp)
   19c80:	e17ffd15 	stw	r5,-12(fp)
   19c84:	e1bffe15 	stw	r6,-8(fp)
   19c88:	e1ffff15 	stw	r7,-4(fp)
    return alt_iic_isr_register(ic_id, irq, isr, isr_context, flags);
   19c8c:	e0800217 	ldw	r2,8(fp)
   19c90:	d8800015 	stw	r2,0(sp)
   19c94:	e1ffff17 	ldw	r7,-4(fp)
   19c98:	e1bffe17 	ldw	r6,-8(fp)
   19c9c:	e17ffd17 	ldw	r5,-12(fp)
   19ca0:	e13ffc17 	ldw	r4,-16(fp)
   19ca4:	0019e1c0 	call	19e1c <alt_iic_isr_register>
}  
   19ca8:	e037883a 	mov	sp,fp
   19cac:	dfc00117 	ldw	ra,4(sp)
   19cb0:	df000017 	ldw	fp,0(sp)
   19cb4:	dec00204 	addi	sp,sp,8
   19cb8:	f800283a 	ret

00019cbc <alt_ic_irq_enable>:
  * @param ic_id            Ignored.
  * @param irq              IRQ number
  * @return                 0 if successful, else error (-1)
  */
int alt_ic_irq_enable (alt_u32 ic_id, alt_u32 irq)
{
   19cbc:	defff904 	addi	sp,sp,-28
   19cc0:	df000615 	stw	fp,24(sp)
   19cc4:	df000604 	addi	fp,sp,24
   19cc8:	e13ffe15 	stw	r4,-8(fp)
   19ccc:	e17fff15 	stw	r5,-4(fp)
   19cd0:	e0bfff17 	ldw	r2,-4(fp)
   19cd4:	e0bffa15 	stw	r2,-24(fp)
static ALT_INLINE alt_irq_context ALT_ALWAYS_INLINE 
       alt_irq_disable_all (void)
{
  alt_irq_context context;

  NIOS2_READ_STATUS (context);
   19cd8:	0005303a 	rdctl	r2,status
   19cdc:	e0bffb15 	stw	r2,-20(fp)

  NIOS2_WRITE_STATUS (context & ~NIOS2_STATUS_PIE_MSK);
   19ce0:	e0fffb17 	ldw	r3,-20(fp)
   19ce4:	00bfff84 	movi	r2,-2
   19ce8:	1884703a 	and	r2,r3,r2
   19cec:	1001703a 	wrctl	status,r2
  
  return context;
   19cf0:	e0bffb17 	ldw	r2,-20(fp)
static ALT_INLINE int ALT_ALWAYS_INLINE alt_irq_enable (alt_u32 id)
{
  alt_irq_context  status;
  extern volatile alt_u32 alt_irq_active;

  status = alt_irq_disable_all ();
   19cf4:	e0bffc15 	stw	r2,-16(fp)

  alt_irq_active |= (1 << id);
   19cf8:	00c00044 	movi	r3,1
   19cfc:	e0bffa17 	ldw	r2,-24(fp)
   19d00:	1884983a 	sll	r2,r3,r2
   19d04:	1007883a 	mov	r3,r2
   19d08:	d0a19017 	ldw	r2,-31168(gp)
   19d0c:	1884b03a 	or	r2,r3,r2
   19d10:	d0a19015 	stw	r2,-31168(gp)
  NIOS2_WRITE_IENABLE (alt_irq_active);
   19d14:	d0a19017 	ldw	r2,-31168(gp)
   19d18:	100170fa 	wrctl	ienable,r2
   19d1c:	e0bffc17 	ldw	r2,-16(fp)
   19d20:	e0bffd15 	stw	r2,-12(fp)
  status &= ~NIOS2_STATUS_PIE_MSK;
  status |= (context & NIOS2_STATUS_PIE_MSK);
  
  NIOS2_WRITE_STATUS (status);
#else
  NIOS2_WRITE_STATUS (context);
   19d24:	e0bffd17 	ldw	r2,-12(fp)
   19d28:	1001703a 	wrctl	status,r2

  alt_irq_enable_all(status);

  return 0;
   19d2c:	0005883a 	mov	r2,zero
    return alt_irq_enable(irq);
   19d30:	0001883a 	nop
}
   19d34:	e037883a 	mov	sp,fp
   19d38:	df000017 	ldw	fp,0(sp)
   19d3c:	dec00104 	addi	sp,sp,4
   19d40:	f800283a 	ret

00019d44 <alt_ic_irq_disable>:
  * @param ic_id            Ignored.
  * @param irq              IRQ number
  * @return                 0 if successful, else error (-1)
  */
int alt_ic_irq_disable(alt_u32 ic_id, alt_u32 irq)
{
   19d44:	defff904 	addi	sp,sp,-28
   19d48:	df000615 	stw	fp,24(sp)
   19d4c:	df000604 	addi	fp,sp,24
   19d50:	e13ffe15 	stw	r4,-8(fp)
   19d54:	e17fff15 	stw	r5,-4(fp)
   19d58:	e0bfff17 	ldw	r2,-4(fp)
   19d5c:	e0bffa15 	stw	r2,-24(fp)
static ALT_INLINE alt_irq_context ALT_ALWAYS_INLINE 
       alt_irq_disable_all (void)
{
  alt_irq_context context;

  NIOS2_READ_STATUS (context);
   19d60:	0005303a 	rdctl	r2,status
   19d64:	e0bffb15 	stw	r2,-20(fp)

  NIOS2_WRITE_STATUS (context & ~NIOS2_STATUS_PIE_MSK);
   19d68:	e0fffb17 	ldw	r3,-20(fp)
   19d6c:	00bfff84 	movi	r2,-2
   19d70:	1884703a 	and	r2,r3,r2
   19d74:	1001703a 	wrctl	status,r2
  
  return context;
   19d78:	e0bffb17 	ldw	r2,-20(fp)
static ALT_INLINE int ALT_ALWAYS_INLINE alt_irq_disable (alt_u32 id)
{
  alt_irq_context  status;
  extern volatile alt_u32 alt_irq_active;

  status = alt_irq_disable_all ();
   19d7c:	e0bffc15 	stw	r2,-16(fp)

  alt_irq_active &= ~(1 << id);
   19d80:	00c00044 	movi	r3,1
   19d84:	e0bffa17 	ldw	r2,-24(fp)
   19d88:	1884983a 	sll	r2,r3,r2
   19d8c:	0084303a 	nor	r2,zero,r2
   19d90:	1007883a 	mov	r3,r2
   19d94:	d0a19017 	ldw	r2,-31168(gp)
   19d98:	1884703a 	and	r2,r3,r2
   19d9c:	d0a19015 	stw	r2,-31168(gp)
  NIOS2_WRITE_IENABLE (alt_irq_active);
   19da0:	d0a19017 	ldw	r2,-31168(gp)
   19da4:	100170fa 	wrctl	ienable,r2
   19da8:	e0bffc17 	ldw	r2,-16(fp)
   19dac:	e0bffd15 	stw	r2,-12(fp)
  status &= ~NIOS2_STATUS_PIE_MSK;
  status |= (context & NIOS2_STATUS_PIE_MSK);
  
  NIOS2_WRITE_STATUS (status);
#else
  NIOS2_WRITE_STATUS (context);
   19db0:	e0bffd17 	ldw	r2,-12(fp)
   19db4:	1001703a 	wrctl	status,r2

  alt_irq_enable_all(status);

  return 0;
   19db8:	0005883a 	mov	r2,zero
    return alt_irq_disable(irq);
   19dbc:	0001883a 	nop
}
   19dc0:	e037883a 	mov	sp,fp
   19dc4:	df000017 	ldw	fp,0(sp)
   19dc8:	dec00104 	addi	sp,sp,4
   19dcc:	f800283a 	ret

00019dd0 <alt_ic_irq_enabled>:
  * @param irq              IRQ number
  * @return                 Zero if corresponding interrupt is disabled and
  *                         non-zero otherwise.
  */
alt_u32 alt_ic_irq_enabled(alt_u32 ic_id, alt_u32 irq)
{
   19dd0:	defffc04 	addi	sp,sp,-16
   19dd4:	df000315 	stw	fp,12(sp)
   19dd8:	df000304 	addi	fp,sp,12
   19ddc:	e13ffe15 	stw	r4,-8(fp)
   19de0:	e17fff15 	stw	r5,-4(fp)
    alt_u32 irq_enabled;

    NIOS2_READ_IENABLE(irq_enabled);
   19de4:	000530fa 	rdctl	r2,ienable
   19de8:	e0bffd15 	stw	r2,-12(fp)

    return (irq_enabled & (1 << irq)) ? 1: 0;
   19dec:	00c00044 	movi	r3,1
   19df0:	e0bfff17 	ldw	r2,-4(fp)
   19df4:	1884983a 	sll	r2,r3,r2
   19df8:	1007883a 	mov	r3,r2
   19dfc:	e0bffd17 	ldw	r2,-12(fp)
   19e00:	1884703a 	and	r2,r3,r2
   19e04:	1004c03a 	cmpne	r2,r2,zero
   19e08:	10803fcc 	andi	r2,r2,255
}
   19e0c:	e037883a 	mov	sp,fp
   19e10:	df000017 	ldw	fp,0(sp)
   19e14:	dec00104 	addi	sp,sp,4
   19e18:	f800283a 	ret

00019e1c <alt_iic_isr_register>:
  * @param flags            
  * @return                 0 if successful, else error (-1)
  */
int alt_iic_isr_register(alt_u32 ic_id, alt_u32 irq, alt_isr_func isr, 
  void *isr_context, void *flags)
{
   19e1c:	defff504 	addi	sp,sp,-44
   19e20:	dfc00a15 	stw	ra,40(sp)
   19e24:	df000915 	stw	fp,36(sp)
   19e28:	df000904 	addi	fp,sp,36
   19e2c:	e13ffc15 	stw	r4,-16(fp)
   19e30:	e17ffd15 	stw	r5,-12(fp)
   19e34:	e1bffe15 	stw	r6,-8(fp)
   19e38:	e1ffff15 	stw	r7,-4(fp)
  int rc = -EINVAL;  
   19e3c:	00bffa84 	movi	r2,-22
   19e40:	e0bff715 	stw	r2,-36(fp)
  int id = irq;             /* IRQ interpreted as the interrupt ID. */
   19e44:	e0bffd17 	ldw	r2,-12(fp)
   19e48:	e0bff815 	stw	r2,-32(fp)
  alt_irq_context status;

  if (id < ALT_NIRQ)
   19e4c:	e0bff817 	ldw	r2,-32(fp)
   19e50:	10800808 	cmpgei	r2,r2,32
   19e54:	1000271e 	bne	r2,zero,19ef4 <alt_iic_isr_register+0xd8>
static ALT_INLINE alt_irq_context ALT_ALWAYS_INLINE 
       alt_irq_disable_all (void)
{
  alt_irq_context context;

  NIOS2_READ_STATUS (context);
   19e58:	0005303a 	rdctl	r2,status
   19e5c:	e0bffb15 	stw	r2,-20(fp)

  NIOS2_WRITE_STATUS (context & ~NIOS2_STATUS_PIE_MSK);
   19e60:	e0fffb17 	ldw	r3,-20(fp)
   19e64:	00bfff84 	movi	r2,-2
   19e68:	1884703a 	and	r2,r3,r2
   19e6c:	1001703a 	wrctl	status,r2
  
  return context;
   19e70:	e0bffb17 	ldw	r2,-20(fp)
     * interrupts are disabled while the handler tables are updated to ensure
     * that an interrupt doesn't occur while the tables are in an inconsistant
     * state.
     */

    status = alt_irq_disable_all();
   19e74:	e0bffa15 	stw	r2,-24(fp)

    alt_irq[id].handler = isr;
   19e78:	008000b4 	movhi	r2,2
   19e7c:	10b21e04 	addi	r2,r2,-14216
   19e80:	e0fff817 	ldw	r3,-32(fp)
   19e84:	180690fa 	slli	r3,r3,3
   19e88:	10c5883a 	add	r2,r2,r3
   19e8c:	e0fffe17 	ldw	r3,-8(fp)
   19e90:	10c00015 	stw	r3,0(r2)
    alt_irq[id].context = isr_context;
   19e94:	008000b4 	movhi	r2,2
   19e98:	10b21e04 	addi	r2,r2,-14216
   19e9c:	e0fff817 	ldw	r3,-32(fp)
   19ea0:	180690fa 	slli	r3,r3,3
   19ea4:	10c5883a 	add	r2,r2,r3
   19ea8:	10800104 	addi	r2,r2,4
   19eac:	e0ffff17 	ldw	r3,-4(fp)
   19eb0:	10c00015 	stw	r3,0(r2)

    rc = (isr) ? alt_ic_irq_enable(ic_id, id) : alt_ic_irq_disable(ic_id, id);
   19eb4:	e0bffe17 	ldw	r2,-8(fp)
   19eb8:	10000526 	beq	r2,zero,19ed0 <alt_iic_isr_register+0xb4>
   19ebc:	e0bff817 	ldw	r2,-32(fp)
   19ec0:	100b883a 	mov	r5,r2
   19ec4:	e13ffc17 	ldw	r4,-16(fp)
   19ec8:	0019cbc0 	call	19cbc <alt_ic_irq_enable>
   19ecc:	00000406 	br	19ee0 <alt_iic_isr_register+0xc4>
   19ed0:	e0bff817 	ldw	r2,-32(fp)
   19ed4:	100b883a 	mov	r5,r2
   19ed8:	e13ffc17 	ldw	r4,-16(fp)
   19edc:	0019d440 	call	19d44 <alt_ic_irq_disable>
   19ee0:	e0bff715 	stw	r2,-36(fp)
   19ee4:	e0bffa17 	ldw	r2,-24(fp)
   19ee8:	e0bff915 	stw	r2,-28(fp)
  status &= ~NIOS2_STATUS_PIE_MSK;
  status |= (context & NIOS2_STATUS_PIE_MSK);
  
  NIOS2_WRITE_STATUS (status);
#else
  NIOS2_WRITE_STATUS (context);
   19eec:	e0bff917 	ldw	r2,-28(fp)
   19ef0:	1001703a 	wrctl	status,r2

    alt_irq_enable_all(status);
  }

  return rc; 
   19ef4:	e0bff717 	ldw	r2,-36(fp)
}
   19ef8:	e037883a 	mov	sp,fp
   19efc:	dfc00117 	ldw	ra,4(sp)
   19f00:	df000017 	ldw	fp,0(sp)
   19f04:	dec00204 	addi	sp,sp,8
   19f08:	f800283a 	ret

00019f0c <alt_load_section>:
 */

static void ALT_INLINE alt_load_section (alt_u32* from, 
                                         alt_u32* to, 
                                         alt_u32* end)
{
   19f0c:	defffc04 	addi	sp,sp,-16
   19f10:	df000315 	stw	fp,12(sp)
   19f14:	df000304 	addi	fp,sp,12
   19f18:	e13ffd15 	stw	r4,-12(fp)
   19f1c:	e17ffe15 	stw	r5,-8(fp)
   19f20:	e1bfff15 	stw	r6,-4(fp)
  if (to != from)
   19f24:	e0fffe17 	ldw	r3,-8(fp)
   19f28:	e0bffd17 	ldw	r2,-12(fp)
   19f2c:	18800c26 	beq	r3,r2,19f60 <alt_load_section+0x54>
  {
    while( to != end )
   19f30:	00000806 	br	19f54 <alt_load_section+0x48>
    {
      *to++ = *from++;
   19f34:	e0bffe17 	ldw	r2,-8(fp)
   19f38:	10c00104 	addi	r3,r2,4
   19f3c:	e0fffe15 	stw	r3,-8(fp)
   19f40:	e0fffd17 	ldw	r3,-12(fp)
   19f44:	19000104 	addi	r4,r3,4
   19f48:	e13ffd15 	stw	r4,-12(fp)
   19f4c:	18c00017 	ldw	r3,0(r3)
   19f50:	10c00015 	stw	r3,0(r2)
                                         alt_u32* to, 
                                         alt_u32* end)
{
  if (to != from)
  {
    while( to != end )
   19f54:	e0fffe17 	ldw	r3,-8(fp)
   19f58:	e0bfff17 	ldw	r2,-4(fp)
   19f5c:	18bff51e 	bne	r3,r2,19f34 <_gp+0xffff5ed4>
    {
      *to++ = *from++;
    }
  }
}
   19f60:	0001883a 	nop
   19f64:	e037883a 	mov	sp,fp
   19f68:	df000017 	ldw	fp,0(sp)
   19f6c:	dec00104 	addi	sp,sp,4
   19f70:	f800283a 	ret

00019f74 <alt_load>:
 * there is no bootloader, so this application is responsible for loading to
 * RAM any sections that are required.
 */  

void alt_load (void)
{
   19f74:	defffe04 	addi	sp,sp,-8
   19f78:	dfc00115 	stw	ra,4(sp)
   19f7c:	df000015 	stw	fp,0(sp)
   19f80:	d839883a 	mov	fp,sp
  /* 
   * Copy the .rwdata section. 
   */

  alt_load_section (&__flash_rwdata_start, 
   19f84:	018000b4 	movhi	r6,2
   19f88:	31b02404 	addi	r6,r6,-16240
   19f8c:	014000b4 	movhi	r5,2
   19f90:	296ea204 	addi	r5,r5,-17784
   19f94:	010000b4 	movhi	r4,2
   19f98:	21302404 	addi	r4,r4,-16240
   19f9c:	0019f0c0 	call	19f0c <alt_load_section>

  /*
   * Copy the exception handler.
   */

  alt_load_section (&__flash_exceptions_start, 
   19fa0:	01800074 	movhi	r6,1
   19fa4:	31807004 	addi	r6,r6,448
   19fa8:	01400074 	movhi	r5,1
   19fac:	29400804 	addi	r5,r5,32
   19fb0:	01000074 	movhi	r4,1
   19fb4:	21000804 	addi	r4,r4,32
   19fb8:	0019f0c0 	call	19f0c <alt_load_section>

  /*
   * Copy the .rodata section.
   */

  alt_load_section (&__flash_rodata_start, 
   19fbc:	018000b4 	movhi	r6,2
   19fc0:	31aea204 	addi	r6,r6,-17784
   19fc4:	014000b4 	movhi	r5,2
   19fc8:	296cd004 	addi	r5,r5,-19648
   19fcc:	010000b4 	movhi	r4,2
   19fd0:	212cd004 	addi	r4,r4,-19648
   19fd4:	0019f0c0 	call	19f0c <alt_load_section>
  
  /*
   * Now ensure that the caches are in synch.
   */
  
  alt_dcache_flush_all();
   19fd8:	001a89c0 	call	1a89c <alt_dcache_flush_all>
  alt_icache_flush_all();
   19fdc:	001aa880 	call	1aa88 <alt_icache_flush_all>
}
   19fe0:	0001883a 	nop
   19fe4:	e037883a 	mov	sp,fp
   19fe8:	dfc00117 	ldw	ra,4(sp)
   19fec:	df000017 	ldw	fp,0(sp)
   19ff0:	dec00204 	addi	sp,sp,8
   19ff4:	f800283a 	ret

00019ff8 <alt_main>:
 * devices/filesystems/components in the system; and call the entry point for
 * the users application, i.e. main().
 */

void alt_main (void)
{
   19ff8:	defffd04 	addi	sp,sp,-12
   19ffc:	dfc00215 	stw	ra,8(sp)
   1a000:	df000115 	stw	fp,4(sp)
   1a004:	df000104 	addi	fp,sp,4
#endif

  /* ALT LOG - please see HAL/sys/alt_log_printf.h for details */
  ALT_LOG_PRINT_BOOT("[alt_main.c] Entering alt_main, calling alt_irq_init.\r\n");
  /* Initialize the interrupt controller. */
  alt_irq_init (NULL);
   1a008:	0009883a 	mov	r4,zero
   1a00c:	001a1dc0 	call	1a1dc <alt_irq_init>

  /* Initialize the operating system */
  ALT_LOG_PRINT_BOOT("[alt_main.c] Done alt_irq_init, calling alt_os_init.\r\n");
  ALT_OS_INIT();
   1a010:	0001883a 	nop
  ALT_LOG_PRINT_BOOT("[alt_main.c] Done OS Init, calling alt_sem_create.\r\n");
  ALT_SEM_CREATE (&alt_fd_list_lock, 1);

  /* Initialize the device drivers/software components. */
  ALT_LOG_PRINT_BOOT("[alt_main.c] Calling alt_sys_init.\r\n");
  alt_sys_init();
   1a014:	001a2140 	call	1a214 <alt_sys_init>
   * devices be present (not equal to /dev/null) and if direct drivers
   * aren't being used.
   */

    ALT_LOG_PRINT_BOOT("[alt_main.c] Redirecting IO.\r\n");
    alt_io_redirect(ALT_STDOUT, ALT_STDIN, ALT_STDERR);
   1a018:	018000b4 	movhi	r6,2
   1a01c:	31ae8b04 	addi	r6,r6,-17876
   1a020:	014000b4 	movhi	r5,2
   1a024:	296e8b04 	addi	r5,r5,-17876
   1a028:	010000b4 	movhi	r4,2
   1a02c:	212e8b04 	addi	r4,r4,-17876
   1a030:	001ab800 	call	1ab80 <alt_io_redirect>
  /* 
   * Call the C++ constructors 
   */

  ALT_LOG_PRINT_BOOT("[alt_main.c] Calling C++ constructors.\r\n");
  _do_ctors ();
   1a034:	001a9c80 	call	1a9c8 <_do_ctors>
   * redefined as _exit()). This is in the interest of reducing code footprint,
   * in that the atexit() overhead is removed when it's not needed.
   */

  ALT_LOG_PRINT_BOOT("[alt_main.c] Calling atexit.\r\n");
  atexit (_do_dtors);
   1a038:	010000b4 	movhi	r4,2
   1a03c:	212a8a04 	addi	r4,r4,-21976
   1a040:	001b1a40 	call	1b1a4 <atexit>
  ALT_LOG_PRINT_BOOT("[alt_main.c] Calling main.\r\n");

#ifdef ALT_NO_EXIT
  main (alt_argc, alt_argv, alt_envp);
#else
  result = main (alt_argc, alt_argv, alt_envp);
   1a044:	d0a19117 	ldw	r2,-31164(gp)
   1a048:	d0e19217 	ldw	r3,-31160(gp)
   1a04c:	d1219317 	ldw	r4,-31156(gp)
   1a050:	200d883a 	mov	r6,r4
   1a054:	180b883a 	mov	r5,r3
   1a058:	1009883a 	mov	r4,r2
   1a05c:	00119400 	call	11940 <main>
   1a060:	e0bfff15 	stw	r2,-4(fp)
  close(STDOUT_FILENO);
   1a064:	01000044 	movi	r4,1
   1a068:	001a7cc0 	call	1a7cc <close>
  exit (result);
   1a06c:	e13fff17 	ldw	r4,-4(fp)
   1a070:	00187300 	call	18730 <exit>

0001a074 <alt_get_errno>:
#undef errno

extern int errno;

static ALT_INLINE int* alt_get_errno(void)
{
   1a074:	defffe04 	addi	sp,sp,-8
   1a078:	dfc00115 	stw	ra,4(sp)
   1a07c:	df000015 	stw	fp,0(sp)
   1a080:	d839883a 	mov	fp,sp
  return ((alt_errno) ? alt_errno() : &errno);
   1a084:	d0a00b17 	ldw	r2,-32724(gp)
   1a088:	10000326 	beq	r2,zero,1a098 <alt_get_errno+0x24>
   1a08c:	d0a00b17 	ldw	r2,-32724(gp)
   1a090:	103ee83a 	callr	r2
   1a094:	00000106 	br	1a09c <alt_get_errno+0x28>
   1a098:	d0a18f04 	addi	r2,gp,-31172
}
   1a09c:	e037883a 	mov	sp,fp
   1a0a0:	dfc00117 	ldw	ra,4(sp)
   1a0a4:	df000017 	ldw	fp,0(sp)
   1a0a8:	dec00204 	addi	sp,sp,8
   1a0ac:	f800283a 	ret

0001a0b0 <write>:
}

#else /* !ALT_USE_DIRECT_DRIVERS */

int ALT_WRITE (int file, const void *ptr, size_t len)
{
   1a0b0:	defff904 	addi	sp,sp,-28
   1a0b4:	dfc00615 	stw	ra,24(sp)
   1a0b8:	df000515 	stw	fp,20(sp)
   1a0bc:	df000504 	addi	fp,sp,20
   1a0c0:	e13ffd15 	stw	r4,-12(fp)
   1a0c4:	e17ffe15 	stw	r5,-8(fp)
   1a0c8:	e1bfff15 	stw	r6,-4(fp)
   * A common error case is that when the file descriptor was created, the call
   * to open() failed resulting in a negative file descriptor. This is trapped
   * below so that we don't try and process an invalid file descriptor.
   */

  fd = (file < 0) ? NULL : &alt_fd_list[file];
   1a0cc:	e0bffd17 	ldw	r2,-12(fp)
   1a0d0:	10000616 	blt	r2,zero,1a0ec <write+0x3c>
   1a0d4:	e0bffd17 	ldw	r2,-12(fp)
   1a0d8:	10c00324 	muli	r3,r2,12
   1a0dc:	008000b4 	movhi	r2,2
   1a0e0:	10afb804 	addi	r2,r2,-16672
   1a0e4:	1885883a 	add	r2,r3,r2
   1a0e8:	00000106 	br	1a0f0 <write+0x40>
   1a0ec:	0005883a 	mov	r2,zero
   1a0f0:	e0bffb15 	stw	r2,-20(fp)
  
  if (fd)
   1a0f4:	e0bffb17 	ldw	r2,-20(fp)
   1a0f8:	10002126 	beq	r2,zero,1a180 <write+0xd0>
     * If the file has not been opened with write access, or if the driver does
     * not provide an implementation of write(), generate an error. Otherwise
     * call the drivers write() function to process the request.
     */

    if (((fd->fd_flags & O_ACCMODE) != O_RDONLY) && fd->dev->write)
   1a0fc:	e0bffb17 	ldw	r2,-20(fp)
   1a100:	10800217 	ldw	r2,8(r2)
   1a104:	108000cc 	andi	r2,r2,3
   1a108:	10001826 	beq	r2,zero,1a16c <write+0xbc>
   1a10c:	e0bffb17 	ldw	r2,-20(fp)
   1a110:	10800017 	ldw	r2,0(r2)
   1a114:	10800617 	ldw	r2,24(r2)
   1a118:	10001426 	beq	r2,zero,1a16c <write+0xbc>
    {
      
      /* ALT_LOG - see altera_hal/HAL/inc/sys/alt_log_printf.h */
      ALT_LOG_WRITE_FUNCTION(ptr,len);

      if ((rval = fd->dev->write(fd, ptr, len)) < 0)
   1a11c:	e0bffb17 	ldw	r2,-20(fp)
   1a120:	10800017 	ldw	r2,0(r2)
   1a124:	10800617 	ldw	r2,24(r2)
   1a128:	e0ffff17 	ldw	r3,-4(fp)
   1a12c:	180d883a 	mov	r6,r3
   1a130:	e17ffe17 	ldw	r5,-8(fp)
   1a134:	e13ffb17 	ldw	r4,-20(fp)
   1a138:	103ee83a 	callr	r2
   1a13c:	e0bffc15 	stw	r2,-16(fp)
   1a140:	e0bffc17 	ldw	r2,-16(fp)
   1a144:	1000070e 	bge	r2,zero,1a164 <write+0xb4>
      {
        ALT_ERRNO = -rval;
   1a148:	001a0740 	call	1a074 <alt_get_errno>
   1a14c:	1007883a 	mov	r3,r2
   1a150:	e0bffc17 	ldw	r2,-16(fp)
   1a154:	0085c83a 	sub	r2,zero,r2
   1a158:	18800015 	stw	r2,0(r3)
        return -1;
   1a15c:	00bfffc4 	movi	r2,-1
   1a160:	00000c06 	br	1a194 <write+0xe4>
      }
      return rval;
   1a164:	e0bffc17 	ldw	r2,-16(fp)
   1a168:	00000a06 	br	1a194 <write+0xe4>
    }
    else
    {
      ALT_ERRNO = EACCES;
   1a16c:	001a0740 	call	1a074 <alt_get_errno>
   1a170:	1007883a 	mov	r3,r2
   1a174:	00800344 	movi	r2,13
   1a178:	18800015 	stw	r2,0(r3)
   1a17c:	00000406 	br	1a190 <write+0xe0>
    }
  }
  else  
  {
    ALT_ERRNO = EBADFD;
   1a180:	001a0740 	call	1a074 <alt_get_errno>
   1a184:	1007883a 	mov	r3,r2
   1a188:	00801444 	movi	r2,81
   1a18c:	18800015 	stw	r2,0(r3)
  }
  return -1;
   1a190:	00bfffc4 	movi	r2,-1
}
   1a194:	e037883a 	mov	sp,fp
   1a198:	dfc00117 	ldw	ra,4(sp)
   1a19c:	df000017 	ldw	fp,0(sp)
   1a1a0:	dec00204 	addi	sp,sp,8
   1a1a4:	f800283a 	ret

0001a1a8 <alt_dev_reg>:
 */

extern int alt_fs_reg  (alt_dev* dev); 

static ALT_INLINE int alt_dev_reg (alt_dev* dev)
{
   1a1a8:	defffd04 	addi	sp,sp,-12
   1a1ac:	dfc00215 	stw	ra,8(sp)
   1a1b0:	df000115 	stw	fp,4(sp)
   1a1b4:	df000104 	addi	fp,sp,4
   1a1b8:	e13fff15 	stw	r4,-4(fp)
  extern alt_llist alt_dev_list;

  return alt_dev_llist_insert ((alt_dev_llist*) dev, &alt_dev_list);
   1a1bc:	d1600804 	addi	r5,gp,-32736
   1a1c0:	e13fff17 	ldw	r4,-4(fp)
   1a1c4:	001a9240 	call	1a924 <alt_dev_llist_insert>
}
   1a1c8:	e037883a 	mov	sp,fp
   1a1cc:	dfc00117 	ldw	ra,4(sp)
   1a1d0:	df000017 	ldw	fp,0(sp)
   1a1d4:	dec00204 	addi	sp,sp,8
   1a1d8:	f800283a 	ret

0001a1dc <alt_irq_init>:
 * The "base" parameter is ignored and only
 * present for backwards-compatibility.
 */

void alt_irq_init ( const void* base )
{
   1a1dc:	defffd04 	addi	sp,sp,-12
   1a1e0:	dfc00215 	stw	ra,8(sp)
   1a1e4:	df000115 	stw	fp,4(sp)
   1a1e8:	df000104 	addi	fp,sp,4
   1a1ec:	e13fff15 	stw	r4,-4(fp)
    ALTERA_NIOS2_QSYS_IRQ_INIT ( CPU, CPU);
   1a1f0:	001aeb40 	call	1aeb4 <altera_nios2_qsys_irq_init>
 * alt_irq_cpu_enable_interrupts() enables the CPU to start taking interrupts.
 */
static ALT_INLINE void ALT_ALWAYS_INLINE 
       alt_irq_cpu_enable_interrupts (void)
{
    NIOS2_WRITE_STATUS(NIOS2_STATUS_PIE_MSK
   1a1f4:	00800044 	movi	r2,1
   1a1f8:	1001703a 	wrctl	status,r2
    alt_irq_cpu_enable_interrupts();
}
   1a1fc:	0001883a 	nop
   1a200:	e037883a 	mov	sp,fp
   1a204:	dfc00117 	ldw	ra,4(sp)
   1a208:	df000017 	ldw	fp,0(sp)
   1a20c:	dec00204 	addi	sp,sp,8
   1a210:	f800283a 	ret

0001a214 <alt_sys_init>:
 * Initialize the non-interrupt controller devices.
 * Called after alt_irq_init().
 */

void alt_sys_init( void )
{
   1a214:	defffe04 	addi	sp,sp,-8
   1a218:	dfc00115 	stw	ra,4(sp)
   1a21c:	df000015 	stw	fp,0(sp)
   1a220:	d839883a 	mov	fp,sp
    ALTERA_AVALON_EPCS_FLASH_CONTROLLER_INIT ( EPCS, EPCS);
   1a224:	0001883a 	nop
    ALTERA_AVALON_JTAG_UART_INIT ( JTAG_UART, JTAG_UART);
   1a228:	010000b4 	movhi	r4,2
   1a22c:	212f8204 	addi	r4,r4,-16888
   1a230:	001a1a80 	call	1a1a8 <alt_dev_reg>
    ALTERA_AVALON_SYSID_QSYS_INIT ( SYSID, SYSID);
   1a234:	0001883a 	nop
    ALTERA_AVALON_UART_INIT ( UART, UART);
   1a238:	010000b4 	movhi	r4,2
   1a23c:	212f8d04 	addi	r4,r4,-16844
   1a240:	001a1a80 	call	1a1a8 <alt_dev_reg>
    ALTERA_AVALON_UART_INIT ( UART_INPUT, uart_input);
   1a244:	010000b4 	movhi	r4,2
   1a248:	212f9804 	addi	r4,r4,-16800
   1a24c:	001a1a80 	call	1a1a8 <alt_dev_reg>
    ALTERA_AVALON_UART_INIT ( UART_OUTPUT, uart_output);
   1a250:	010000b4 	movhi	r4,2
   1a254:	212fa304 	addi	r4,r4,-16756
   1a258:	001a1a80 	call	1a1a8 <alt_dev_reg>
}
   1a25c:	0001883a 	nop
   1a260:	e037883a 	mov	sp,fp
   1a264:	dfc00117 	ldw	ra,4(sp)
   1a268:	df000017 	ldw	fp,0(sp)
   1a26c:	dec00204 	addi	sp,sp,8
   1a270:	f800283a 	ret

0001a274 <altera_avalon_jtag_uart_read_fd>:
 *
 */

int 
altera_avalon_jtag_uart_read_fd(alt_fd* fd, char* buffer, int space)
{
   1a274:	defffa04 	addi	sp,sp,-24
   1a278:	dfc00515 	stw	ra,20(sp)
   1a27c:	df000415 	stw	fp,16(sp)
   1a280:	df000404 	addi	fp,sp,16
   1a284:	e13ffd15 	stw	r4,-12(fp)
   1a288:	e17ffe15 	stw	r5,-8(fp)
   1a28c:	e1bfff15 	stw	r6,-4(fp)
    altera_avalon_jtag_uart_dev* dev = (altera_avalon_jtag_uart_dev*) fd->dev; 
   1a290:	e0bffd17 	ldw	r2,-12(fp)
   1a294:	10800017 	ldw	r2,0(r2)
   1a298:	e0bffc15 	stw	r2,-16(fp)

    return altera_avalon_jtag_uart_read(&dev->state, buffer, space,
   1a29c:	e0bffc17 	ldw	r2,-16(fp)
   1a2a0:	10c00a04 	addi	r3,r2,40
   1a2a4:	e0bffd17 	ldw	r2,-12(fp)
   1a2a8:	10800217 	ldw	r2,8(r2)
   1a2ac:	100f883a 	mov	r7,r2
   1a2b0:	e1bfff17 	ldw	r6,-4(fp)
   1a2b4:	e17ffe17 	ldw	r5,-8(fp)
   1a2b8:	1809883a 	mov	r4,r3
   1a2bc:	001a3340 	call	1a334 <altera_avalon_jtag_uart_read>
      fd->fd_flags);
}
   1a2c0:	e037883a 	mov	sp,fp
   1a2c4:	dfc00117 	ldw	ra,4(sp)
   1a2c8:	df000017 	ldw	fp,0(sp)
   1a2cc:	dec00204 	addi	sp,sp,8
   1a2d0:	f800283a 	ret

0001a2d4 <altera_avalon_jtag_uart_write_fd>:

int 
altera_avalon_jtag_uart_write_fd(alt_fd* fd, const char* buffer, int space)
{
   1a2d4:	defffa04 	addi	sp,sp,-24
   1a2d8:	dfc00515 	stw	ra,20(sp)
   1a2dc:	df000415 	stw	fp,16(sp)
   1a2e0:	df000404 	addi	fp,sp,16
   1a2e4:	e13ffd15 	stw	r4,-12(fp)
   1a2e8:	e17ffe15 	stw	r5,-8(fp)
   1a2ec:	e1bfff15 	stw	r6,-4(fp)
    altera_avalon_jtag_uart_dev* dev = (altera_avalon_jtag_uart_dev*) fd->dev; 
   1a2f0:	e0bffd17 	ldw	r2,-12(fp)
   1a2f4:	10800017 	ldw	r2,0(r2)
   1a2f8:	e0bffc15 	stw	r2,-16(fp)

    return altera_avalon_jtag_uart_write(&dev->state, buffer, space,
   1a2fc:	e0bffc17 	ldw	r2,-16(fp)
   1a300:	10c00a04 	addi	r3,r2,40
   1a304:	e0bffd17 	ldw	r2,-12(fp)
   1a308:	10800217 	ldw	r2,8(r2)
   1a30c:	100f883a 	mov	r7,r2
   1a310:	e1bfff17 	ldw	r6,-4(fp)
   1a314:	e17ffe17 	ldw	r5,-8(fp)
   1a318:	1809883a 	mov	r4,r3
   1a31c:	001a4200 	call	1a420 <altera_avalon_jtag_uart_write>
      fd->fd_flags);
}
   1a320:	e037883a 	mov	sp,fp
   1a324:	dfc00117 	ldw	ra,4(sp)
   1a328:	df000017 	ldw	fp,0(sp)
   1a32c:	dec00204 	addi	sp,sp,8
   1a330:	f800283a 	ret

0001a334 <altera_avalon_jtag_uart_read>:
 */

int 
altera_avalon_jtag_uart_read(altera_avalon_jtag_uart_state* sp, 
  char* buffer, int space, int flags)
{
   1a334:	defff704 	addi	sp,sp,-36
   1a338:	df000815 	stw	fp,32(sp)
   1a33c:	df000804 	addi	fp,sp,32
   1a340:	e13ffc15 	stw	r4,-16(fp)
   1a344:	e17ffd15 	stw	r5,-12(fp)
   1a348:	e1bffe15 	stw	r6,-8(fp)
   1a34c:	e1ffff15 	stw	r7,-4(fp)
  unsigned int base = sp->base;
   1a350:	e0bffc17 	ldw	r2,-16(fp)
   1a354:	10800017 	ldw	r2,0(r2)
   1a358:	e0bff915 	stw	r2,-28(fp)

  char * ptr = buffer;
   1a35c:	e0bffd17 	ldw	r2,-12(fp)
   1a360:	e0bff815 	stw	r2,-32(fp)
  char * end = buffer + space;
   1a364:	e0bffe17 	ldw	r2,-8(fp)
   1a368:	e0fffd17 	ldw	r3,-12(fp)
   1a36c:	1885883a 	add	r2,r3,r2
   1a370:	e0bffa15 	stw	r2,-24(fp)

  while (ptr < end)
   1a374:	00001206 	br	1a3c0 <altera_avalon_jtag_uart_read+0x8c>
  {
    unsigned int data = IORD_ALTERA_AVALON_JTAG_UART_DATA(base);
   1a378:	e0bff917 	ldw	r2,-28(fp)
   1a37c:	10800037 	ldwio	r2,0(r2)
   1a380:	e0bffb15 	stw	r2,-20(fp)

    if (data & ALTERA_AVALON_JTAG_UART_DATA_RVALID_MSK)
   1a384:	e0bffb17 	ldw	r2,-20(fp)
   1a388:	10a0000c 	andi	r2,r2,32768
   1a38c:	10000626 	beq	r2,zero,1a3a8 <altera_avalon_jtag_uart_read+0x74>
      *ptr++ = (data & ALTERA_AVALON_JTAG_UART_DATA_DATA_MSK) >> ALTERA_AVALON_JTAG_UART_DATA_DATA_OFST;
   1a390:	e0bff817 	ldw	r2,-32(fp)
   1a394:	10c00044 	addi	r3,r2,1
   1a398:	e0fff815 	stw	r3,-32(fp)
   1a39c:	e0fffb17 	ldw	r3,-20(fp)
   1a3a0:	10c00005 	stb	r3,0(r2)
   1a3a4:	00000606 	br	1a3c0 <altera_avalon_jtag_uart_read+0x8c>
    else if (ptr != buffer)
   1a3a8:	e0fff817 	ldw	r3,-32(fp)
   1a3ac:	e0bffd17 	ldw	r2,-12(fp)
   1a3b0:	1880071e 	bne	r3,r2,1a3d0 <altera_avalon_jtag_uart_read+0x9c>
      break;
    else if(flags & O_NONBLOCK)
   1a3b4:	e0bfff17 	ldw	r2,-4(fp)
   1a3b8:	1090000c 	andi	r2,r2,16384
   1a3bc:	1000061e 	bne	r2,zero,1a3d8 <altera_avalon_jtag_uart_read+0xa4>
  unsigned int base = sp->base;

  char * ptr = buffer;
  char * end = buffer + space;

  while (ptr < end)
   1a3c0:	e0fff817 	ldw	r3,-32(fp)
   1a3c4:	e0bffa17 	ldw	r2,-24(fp)
   1a3c8:	18bfeb36 	bltu	r3,r2,1a378 <_gp+0xffff6318>
   1a3cc:	00000306 	br	1a3dc <altera_avalon_jtag_uart_read+0xa8>
    unsigned int data = IORD_ALTERA_AVALON_JTAG_UART_DATA(base);

    if (data & ALTERA_AVALON_JTAG_UART_DATA_RVALID_MSK)
      *ptr++ = (data & ALTERA_AVALON_JTAG_UART_DATA_DATA_MSK) >> ALTERA_AVALON_JTAG_UART_DATA_DATA_OFST;
    else if (ptr != buffer)
      break;
   1a3d0:	0001883a 	nop
   1a3d4:	00000106 	br	1a3dc <altera_avalon_jtag_uart_read+0xa8>
    else if(flags & O_NONBLOCK)
      break;   
   1a3d8:	0001883a 	nop
    
  }

  if (ptr != buffer)
   1a3dc:	e0fff817 	ldw	r3,-32(fp)
   1a3e0:	e0bffd17 	ldw	r2,-12(fp)
   1a3e4:	18800426 	beq	r3,r2,1a3f8 <altera_avalon_jtag_uart_read+0xc4>
    return ptr - buffer;
   1a3e8:	e0fff817 	ldw	r3,-32(fp)
   1a3ec:	e0bffd17 	ldw	r2,-12(fp)
   1a3f0:	1885c83a 	sub	r2,r3,r2
   1a3f4:	00000606 	br	1a410 <altera_avalon_jtag_uart_read+0xdc>
  else if (flags & O_NONBLOCK)
   1a3f8:	e0bfff17 	ldw	r2,-4(fp)
   1a3fc:	1090000c 	andi	r2,r2,16384
   1a400:	10000226 	beq	r2,zero,1a40c <altera_avalon_jtag_uart_read+0xd8>
    return -EWOULDBLOCK;
   1a404:	00bffd44 	movi	r2,-11
   1a408:	00000106 	br	1a410 <altera_avalon_jtag_uart_read+0xdc>
  else
    return -EIO;
   1a40c:	00bffec4 	movi	r2,-5
}
   1a410:	e037883a 	mov	sp,fp
   1a414:	df000017 	ldw	fp,0(sp)
   1a418:	dec00104 	addi	sp,sp,4
   1a41c:	f800283a 	ret

0001a420 <altera_avalon_jtag_uart_write>:
 * one FIFOs worth of data.  But you said you didn't want to use interrupts :-)
 */

int altera_avalon_jtag_uart_write(altera_avalon_jtag_uart_state* sp, 
  const char * ptr, int count, int flags)
{
   1a420:	defff904 	addi	sp,sp,-28
   1a424:	df000615 	stw	fp,24(sp)
   1a428:	df000604 	addi	fp,sp,24
   1a42c:	e13ffc15 	stw	r4,-16(fp)
   1a430:	e17ffd15 	stw	r5,-12(fp)
   1a434:	e1bffe15 	stw	r6,-8(fp)
   1a438:	e1ffff15 	stw	r7,-4(fp)
  unsigned int base = sp->base;
   1a43c:	e0bffc17 	ldw	r2,-16(fp)
   1a440:	10800017 	ldw	r2,0(r2)
   1a444:	e0bffa15 	stw	r2,-24(fp)

  const char * end = ptr + count;
   1a448:	e0bffe17 	ldw	r2,-8(fp)
   1a44c:	e0fffd17 	ldw	r3,-12(fp)
   1a450:	1885883a 	add	r2,r3,r2
   1a454:	e0bffb15 	stw	r2,-20(fp)

  while (ptr < end)
   1a458:	00000e06 	br	1a494 <altera_avalon_jtag_uart_write+0x74>
    if ((IORD_ALTERA_AVALON_JTAG_UART_CONTROL(base) & ALTERA_AVALON_JTAG_UART_CONTROL_WSPACE_MSK) != 0)
   1a45c:	e0bffa17 	ldw	r2,-24(fp)
   1a460:	10800104 	addi	r2,r2,4
   1a464:	10800037 	ldwio	r2,0(r2)
   1a468:	10bfffec 	andhi	r2,r2,65535
   1a46c:	10000926 	beq	r2,zero,1a494 <altera_avalon_jtag_uart_write+0x74>
      IOWR_ALTERA_AVALON_JTAG_UART_DATA(base, *ptr++);
   1a470:	e0fffa17 	ldw	r3,-24(fp)
   1a474:	e0bffd17 	ldw	r2,-12(fp)
   1a478:	11000044 	addi	r4,r2,1
   1a47c:	e13ffd15 	stw	r4,-12(fp)
   1a480:	10800003 	ldbu	r2,0(r2)
   1a484:	10803fcc 	andi	r2,r2,255
   1a488:	1080201c 	xori	r2,r2,128
   1a48c:	10bfe004 	addi	r2,r2,-128
   1a490:	18800035 	stwio	r2,0(r3)
{
  unsigned int base = sp->base;

  const char * end = ptr + count;

  while (ptr < end)
   1a494:	e0fffd17 	ldw	r3,-12(fp)
   1a498:	e0bffb17 	ldw	r2,-20(fp)
   1a49c:	18bfef36 	bltu	r3,r2,1a45c <_gp+0xffff63fc>
    if ((IORD_ALTERA_AVALON_JTAG_UART_CONTROL(base) & ALTERA_AVALON_JTAG_UART_CONTROL_WSPACE_MSK) != 0)
      IOWR_ALTERA_AVALON_JTAG_UART_DATA(base, *ptr++);

  return count;
   1a4a0:	e0bffe17 	ldw	r2,-8(fp)
}
   1a4a4:	e037883a 	mov	sp,fp
   1a4a8:	df000017 	ldw	fp,0(sp)
   1a4ac:	dec00104 	addi	sp,sp,4
   1a4b0:	f800283a 	ret

0001a4b4 <altera_avalon_uart_read_fd>:
 *
 */

int 
altera_avalon_uart_read_fd(alt_fd* fd, char* buffer, int space)
{
   1a4b4:	defffa04 	addi	sp,sp,-24
   1a4b8:	dfc00515 	stw	ra,20(sp)
   1a4bc:	df000415 	stw	fp,16(sp)
   1a4c0:	df000404 	addi	fp,sp,16
   1a4c4:	e13ffd15 	stw	r4,-12(fp)
   1a4c8:	e17ffe15 	stw	r5,-8(fp)
   1a4cc:	e1bfff15 	stw	r6,-4(fp)
    altera_avalon_uart_dev* dev = (altera_avalon_uart_dev*) fd->dev; 
   1a4d0:	e0bffd17 	ldw	r2,-12(fp)
   1a4d4:	10800017 	ldw	r2,0(r2)
   1a4d8:	e0bffc15 	stw	r2,-16(fp)

    return altera_avalon_uart_read(&dev->state, buffer, space,
   1a4dc:	e0bffc17 	ldw	r2,-16(fp)
   1a4e0:	10c00a04 	addi	r3,r2,40
   1a4e4:	e0bffd17 	ldw	r2,-12(fp)
   1a4e8:	10800217 	ldw	r2,8(r2)
   1a4ec:	100f883a 	mov	r7,r2
   1a4f0:	e1bfff17 	ldw	r6,-4(fp)
   1a4f4:	e17ffe17 	ldw	r5,-8(fp)
   1a4f8:	1809883a 	mov	r4,r3
   1a4fc:	001a5b00 	call	1a5b0 <altera_avalon_uart_read>
      fd->fd_flags);
}
   1a500:	e037883a 	mov	sp,fp
   1a504:	dfc00117 	ldw	ra,4(sp)
   1a508:	df000017 	ldw	fp,0(sp)
   1a50c:	dec00204 	addi	sp,sp,8
   1a510:	f800283a 	ret

0001a514 <altera_avalon_uart_write_fd>:

int 
altera_avalon_uart_write_fd(alt_fd* fd, const char* buffer, int space)
{
   1a514:	defffa04 	addi	sp,sp,-24
   1a518:	dfc00515 	stw	ra,20(sp)
   1a51c:	df000415 	stw	fp,16(sp)
   1a520:	df000404 	addi	fp,sp,16
   1a524:	e13ffd15 	stw	r4,-12(fp)
   1a528:	e17ffe15 	stw	r5,-8(fp)
   1a52c:	e1bfff15 	stw	r6,-4(fp)
    altera_avalon_uart_dev* dev = (altera_avalon_uart_dev*) fd->dev; 
   1a530:	e0bffd17 	ldw	r2,-12(fp)
   1a534:	10800017 	ldw	r2,0(r2)
   1a538:	e0bffc15 	stw	r2,-16(fp)

    return altera_avalon_uart_write(&dev->state, buffer, space,
   1a53c:	e0bffc17 	ldw	r2,-16(fp)
   1a540:	10c00a04 	addi	r3,r2,40
   1a544:	e0bffd17 	ldw	r2,-12(fp)
   1a548:	10800217 	ldw	r2,8(r2)
   1a54c:	100f883a 	mov	r7,r2
   1a550:	e1bfff17 	ldw	r6,-4(fp)
   1a554:	e17ffe17 	ldw	r5,-8(fp)
   1a558:	1809883a 	mov	r4,r3
   1a55c:	001a6b00 	call	1a6b0 <altera_avalon_uart_write>
      fd->fd_flags);
}
   1a560:	e037883a 	mov	sp,fp
   1a564:	dfc00117 	ldw	ra,4(sp)
   1a568:	df000017 	ldw	fp,0(sp)
   1a56c:	dec00204 	addi	sp,sp,8
   1a570:	f800283a 	ret

0001a574 <alt_get_errno>:
#undef errno

extern int errno;

static ALT_INLINE int* alt_get_errno(void)
{
   1a574:	defffe04 	addi	sp,sp,-8
   1a578:	dfc00115 	stw	ra,4(sp)
   1a57c:	df000015 	stw	fp,0(sp)
   1a580:	d839883a 	mov	fp,sp
  return ((alt_errno) ? alt_errno() : &errno);
   1a584:	d0a00b17 	ldw	r2,-32724(gp)
   1a588:	10000326 	beq	r2,zero,1a598 <alt_get_errno+0x24>
   1a58c:	d0a00b17 	ldw	r2,-32724(gp)
   1a590:	103ee83a 	callr	r2
   1a594:	00000106 	br	1a59c <alt_get_errno+0x28>
   1a598:	d0a18f04 	addi	r2,gp,-31172
}
   1a59c:	e037883a 	mov	sp,fp
   1a5a0:	dfc00117 	ldw	ra,4(sp)
   1a5a4:	df000017 	ldw	fp,0(sp)
   1a5a8:	dec00204 	addi	sp,sp,8
   1a5ac:	f800283a 	ret

0001a5b0 <altera_avalon_uart_read>:
 */

int 
altera_avalon_uart_read(altera_avalon_uart_state* sp, char* ptr, int len,
  int flags)
{
   1a5b0:	defff804 	addi	sp,sp,-32
   1a5b4:	dfc00715 	stw	ra,28(sp)
   1a5b8:	df000615 	stw	fp,24(sp)
   1a5bc:	df000604 	addi	fp,sp,24
   1a5c0:	e13ffc15 	stw	r4,-16(fp)
   1a5c4:	e17ffd15 	stw	r5,-12(fp)
   1a5c8:	e1bffe15 	stw	r6,-8(fp)
   1a5cc:	e1ffff15 	stw	r7,-4(fp)
  int block;
  unsigned int status;

  block = !(flags & O_NONBLOCK);
   1a5d0:	e0bfff17 	ldw	r2,-4(fp)
   1a5d4:	1090000c 	andi	r2,r2,16384
   1a5d8:	1005003a 	cmpeq	r2,r2,zero
   1a5dc:	10803fcc 	andi	r2,r2,255
   1a5e0:	e0bffa15 	stw	r2,-24(fp)

  do
  {
    status = IORD_ALTERA_AVALON_UART_STATUS(sp->base);
   1a5e4:	e0bffc17 	ldw	r2,-16(fp)
   1a5e8:	10800017 	ldw	r2,0(r2)
   1a5ec:	10800204 	addi	r2,r2,8
   1a5f0:	10800037 	ldwio	r2,0(r2)
   1a5f4:	e0bffb15 	stw	r2,-20(fp)

    /* clear any error flags */

    IOWR_ALTERA_AVALON_UART_STATUS(sp->base, 0);
   1a5f8:	e0bffc17 	ldw	r2,-16(fp)
   1a5fc:	10800017 	ldw	r2,0(r2)
   1a600:	10800204 	addi	r2,r2,8
   1a604:	0007883a 	mov	r3,zero
   1a608:	10c00035 	stwio	r3,0(r2)

    if (status & ALTERA_AVALON_UART_CONTROL_RRDY_MSK)
   1a60c:	e0bffb17 	ldw	r2,-20(fp)
   1a610:	1080200c 	andi	r2,r2,128
   1a614:	10000b26 	beq	r2,zero,1a644 <altera_avalon_uart_read+0x94>
    {
      ptr[0] = IORD_ALTERA_AVALON_UART_RXDATA(sp->base);
   1a618:	e0bffc17 	ldw	r2,-16(fp)
   1a61c:	10800017 	ldw	r2,0(r2)
   1a620:	10800037 	ldwio	r2,0(r2)
   1a624:	1007883a 	mov	r3,r2
   1a628:	e0bffd17 	ldw	r2,-12(fp)
   1a62c:	10c00005 	stb	r3,0(r2)

      if (!(status & (ALTERA_AVALON_UART_STATUS_PE_MSK | 
   1a630:	e0bffb17 	ldw	r2,-20(fp)
   1a634:	108000cc 	andi	r2,r2,3
   1a638:	1000021e 	bne	r2,zero,1a644 <altera_avalon_uart_read+0x94>
      ALTERA_AVALON_UART_STATUS_FE_MSK)))
      {
        return 1;
   1a63c:	00800044 	movi	r2,1
   1a640:	00000706 	br	1a660 <altera_avalon_uart_read+0xb0>
      }
    }
  }
  while (block);
   1a644:	e0bffa17 	ldw	r2,-24(fp)
   1a648:	103fe61e 	bne	r2,zero,1a5e4 <_gp+0xffff6584>

  ALT_ERRNO = EWOULDBLOCK;
   1a64c:	001a5740 	call	1a574 <alt_get_errno>
   1a650:	1007883a 	mov	r3,r2
   1a654:	008002c4 	movi	r2,11
   1a658:	18800015 	stw	r2,0(r3)
 
  return 0;
   1a65c:	0005883a 	mov	r2,zero
}
   1a660:	e037883a 	mov	sp,fp
   1a664:	dfc00117 	ldw	ra,4(sp)
   1a668:	df000017 	ldw	fp,0(sp)
   1a66c:	dec00204 	addi	sp,sp,8
   1a670:	f800283a 	ret

0001a674 <alt_get_errno>:
#undef errno

extern int errno;

static ALT_INLINE int* alt_get_errno(void)
{
   1a674:	defffe04 	addi	sp,sp,-8
   1a678:	dfc00115 	stw	ra,4(sp)
   1a67c:	df000015 	stw	fp,0(sp)
   1a680:	d839883a 	mov	fp,sp
  return ((alt_errno) ? alt_errno() : &errno);
   1a684:	d0a00b17 	ldw	r2,-32724(gp)
   1a688:	10000326 	beq	r2,zero,1a698 <alt_get_errno+0x24>
   1a68c:	d0a00b17 	ldw	r2,-32724(gp)
   1a690:	103ee83a 	callr	r2
   1a694:	00000106 	br	1a69c <alt_get_errno+0x28>
   1a698:	d0a18f04 	addi	r2,gp,-31172
}
   1a69c:	e037883a 	mov	sp,fp
   1a6a0:	dfc00117 	ldw	ra,4(sp)
   1a6a4:	df000017 	ldw	fp,0(sp)
   1a6a8:	dec00204 	addi	sp,sp,8
   1a6ac:	f800283a 	ret

0001a6b0 <altera_avalon_uart_write>:
 */

int 
altera_avalon_uart_write(altera_avalon_uart_state* sp, const char* ptr, int len,
  int flags)
{
   1a6b0:	defff704 	addi	sp,sp,-36
   1a6b4:	dfc00815 	stw	ra,32(sp)
   1a6b8:	df000715 	stw	fp,28(sp)
   1a6bc:	df000704 	addi	fp,sp,28
   1a6c0:	e13ffc15 	stw	r4,-16(fp)
   1a6c4:	e17ffd15 	stw	r5,-12(fp)
   1a6c8:	e1bffe15 	stw	r6,-8(fp)
   1a6cc:	e1ffff15 	stw	r7,-4(fp)
  int block;
  unsigned int status;
  int count;

  block = !(flags & O_NONBLOCK);
   1a6d0:	e0bfff17 	ldw	r2,-4(fp)
   1a6d4:	1090000c 	andi	r2,r2,16384
   1a6d8:	1005003a 	cmpeq	r2,r2,zero
   1a6dc:	10803fcc 	andi	r2,r2,255
   1a6e0:	e0bffa15 	stw	r2,-24(fp)
  count = len;
   1a6e4:	e0bffe17 	ldw	r2,-8(fp)
   1a6e8:	e0bff915 	stw	r2,-28(fp)

  do
  {
    status = IORD_ALTERA_AVALON_UART_STATUS(sp->base);
   1a6ec:	e0bffc17 	ldw	r2,-16(fp)
   1a6f0:	10800017 	ldw	r2,0(r2)
   1a6f4:	10800204 	addi	r2,r2,8
   1a6f8:	10800037 	ldwio	r2,0(r2)
   1a6fc:	e0bffb15 	stw	r2,-20(fp)
   
    if (status & ALTERA_AVALON_UART_STATUS_TRDY_MSK)
   1a700:	e0bffb17 	ldw	r2,-20(fp)
   1a704:	1080100c 	andi	r2,r2,64
   1a708:	10000f26 	beq	r2,zero,1a748 <altera_avalon_uart_write+0x98>
    {
      IOWR_ALTERA_AVALON_UART_TXDATA(sp->base, *ptr++);
   1a70c:	e0bffc17 	ldw	r2,-16(fp)
   1a710:	10800017 	ldw	r2,0(r2)
   1a714:	10800104 	addi	r2,r2,4
   1a718:	1009883a 	mov	r4,r2
   1a71c:	e0bffd17 	ldw	r2,-12(fp)
   1a720:	10c00044 	addi	r3,r2,1
   1a724:	e0fffd15 	stw	r3,-12(fp)
   1a728:	10800003 	ldbu	r2,0(r2)
   1a72c:	10803fcc 	andi	r2,r2,255
   1a730:	1080201c 	xori	r2,r2,128
   1a734:	10bfe004 	addi	r2,r2,-128
   1a738:	20800035 	stwio	r2,0(r4)
      count--;
   1a73c:	e0bff917 	ldw	r2,-28(fp)
   1a740:	10bfffc4 	addi	r2,r2,-1
   1a744:	e0bff915 	stw	r2,-28(fp)
    }
  }
  while (block && count);
   1a748:	e0bffa17 	ldw	r2,-24(fp)
   1a74c:	10000226 	beq	r2,zero,1a758 <altera_avalon_uart_write+0xa8>
   1a750:	e0bff917 	ldw	r2,-28(fp)
   1a754:	103fe51e 	bne	r2,zero,1a6ec <_gp+0xffff668c>

  if (count)
   1a758:	e0bff917 	ldw	r2,-28(fp)
   1a75c:	10000426 	beq	r2,zero,1a770 <altera_avalon_uart_write+0xc0>
  {
    ALT_ERRNO = EWOULDBLOCK;
   1a760:	001a6740 	call	1a674 <alt_get_errno>
   1a764:	1007883a 	mov	r3,r2
   1a768:	008002c4 	movi	r2,11
   1a76c:	18800015 	stw	r2,0(r3)
  }

  return (len - count);
   1a770:	e0fffe17 	ldw	r3,-8(fp)
   1a774:	e0bff917 	ldw	r2,-28(fp)
   1a778:	1885c83a 	sub	r2,r3,r2
}
   1a77c:	e037883a 	mov	sp,fp
   1a780:	dfc00117 	ldw	ra,4(sp)
   1a784:	df000017 	ldw	fp,0(sp)
   1a788:	dec00204 	addi	sp,sp,8
   1a78c:	f800283a 	ret

0001a790 <alt_get_errno>:
#undef errno

extern int errno;

static ALT_INLINE int* alt_get_errno(void)
{
   1a790:	defffe04 	addi	sp,sp,-8
   1a794:	dfc00115 	stw	ra,4(sp)
   1a798:	df000015 	stw	fp,0(sp)
   1a79c:	d839883a 	mov	fp,sp
  return ((alt_errno) ? alt_errno() : &errno);
   1a7a0:	d0a00b17 	ldw	r2,-32724(gp)
   1a7a4:	10000326 	beq	r2,zero,1a7b4 <alt_get_errno+0x24>
   1a7a8:	d0a00b17 	ldw	r2,-32724(gp)
   1a7ac:	103ee83a 	callr	r2
   1a7b0:	00000106 	br	1a7b8 <alt_get_errno+0x28>
   1a7b4:	d0a18f04 	addi	r2,gp,-31172
}
   1a7b8:	e037883a 	mov	sp,fp
   1a7bc:	dfc00117 	ldw	ra,4(sp)
   1a7c0:	df000017 	ldw	fp,0(sp)
   1a7c4:	dec00204 	addi	sp,sp,8
   1a7c8:	f800283a 	ret

0001a7cc <close>:
 *
 * ALT_CLOSE is mapped onto the close() system call in alt_syscall.h
 */
 
int ALT_CLOSE (int fildes)
{
   1a7cc:	defffb04 	addi	sp,sp,-20
   1a7d0:	dfc00415 	stw	ra,16(sp)
   1a7d4:	df000315 	stw	fp,12(sp)
   1a7d8:	df000304 	addi	fp,sp,12
   1a7dc:	e13fff15 	stw	r4,-4(fp)
   * A common error case is that when the file descriptor was created, the call
   * to open() failed resulting in a negative file descriptor. This is trapped
   * below so that we don't try and process an invalid file descriptor.
   */

  fd = (fildes < 0) ? NULL : &alt_fd_list[fildes];
   1a7e0:	e0bfff17 	ldw	r2,-4(fp)
   1a7e4:	10000616 	blt	r2,zero,1a800 <close+0x34>
   1a7e8:	e0bfff17 	ldw	r2,-4(fp)
   1a7ec:	10c00324 	muli	r3,r2,12
   1a7f0:	008000b4 	movhi	r2,2
   1a7f4:	10afb804 	addi	r2,r2,-16672
   1a7f8:	1885883a 	add	r2,r3,r2
   1a7fc:	00000106 	br	1a804 <close+0x38>
   1a800:	0005883a 	mov	r2,zero
   1a804:	e0bffd15 	stw	r2,-12(fp)

  if (fd)
   1a808:	e0bffd17 	ldw	r2,-12(fp)
   1a80c:	10001926 	beq	r2,zero,1a874 <close+0xa8>
    /*
     * If the associated file system/device has a close function, call it so 
     * that any necessary cleanup code can run.
     */

    rval = (fd->dev->close) ? fd->dev->close(fd) : 0;
   1a810:	e0bffd17 	ldw	r2,-12(fp)
   1a814:	10800017 	ldw	r2,0(r2)
   1a818:	10800417 	ldw	r2,16(r2)
   1a81c:	10000626 	beq	r2,zero,1a838 <close+0x6c>
   1a820:	e0bffd17 	ldw	r2,-12(fp)
   1a824:	10800017 	ldw	r2,0(r2)
   1a828:	10800417 	ldw	r2,16(r2)
   1a82c:	e13ffd17 	ldw	r4,-12(fp)
   1a830:	103ee83a 	callr	r2
   1a834:	00000106 	br	1a83c <close+0x70>
   1a838:	0005883a 	mov	r2,zero
   1a83c:	e0bffe15 	stw	r2,-8(fp)

    /* Free the file descriptor structure and return. */

    alt_release_fd (fildes);
   1a840:	e13fff17 	ldw	r4,-4(fp)
   1a844:	001ae500 	call	1ae50 <alt_release_fd>
    if (rval < 0)
   1a848:	e0bffe17 	ldw	r2,-8(fp)
   1a84c:	1000070e 	bge	r2,zero,1a86c <close+0xa0>
    {
      ALT_ERRNO = -rval;
   1a850:	001a7900 	call	1a790 <alt_get_errno>
   1a854:	1007883a 	mov	r3,r2
   1a858:	e0bffe17 	ldw	r2,-8(fp)
   1a85c:	0085c83a 	sub	r2,zero,r2
   1a860:	18800015 	stw	r2,0(r3)
      return -1;
   1a864:	00bfffc4 	movi	r2,-1
   1a868:	00000706 	br	1a888 <close+0xbc>
    }
    return 0;
   1a86c:	0005883a 	mov	r2,zero
   1a870:	00000506 	br	1a888 <close+0xbc>
  }
  else
  {
    ALT_ERRNO = EBADFD;
   1a874:	001a7900 	call	1a790 <alt_get_errno>
   1a878:	1007883a 	mov	r3,r2
   1a87c:	00801444 	movi	r2,81
   1a880:	18800015 	stw	r2,0(r3)
    return -1;
   1a884:	00bfffc4 	movi	r2,-1
  }
}
   1a888:	e037883a 	mov	sp,fp
   1a88c:	dfc00117 	ldw	ra,4(sp)
   1a890:	df000017 	ldw	fp,0(sp)
   1a894:	dec00204 	addi	sp,sp,8
   1a898:	f800283a 	ret

0001a89c <alt_dcache_flush_all>:
/*
 * alt_dcache_flush_all() is called to flush the entire data cache.
 */

void alt_dcache_flush_all (void)
{
   1a89c:	deffff04 	addi	sp,sp,-4
   1a8a0:	df000015 	stw	fp,0(sp)
   1a8a4:	d839883a 	mov	fp,sp
  for (i = (char*) 0; i < (char*) NIOS2_DCACHE_SIZE; i+= NIOS2_DCACHE_LINE_SIZE)
  { 
    __asm__ volatile ("flushd (%0)" :: "r" (i));
  }
#endif /* NIOS2_DCACHE_SIZE > 0 */
}
   1a8a8:	0001883a 	nop
   1a8ac:	e037883a 	mov	sp,fp
   1a8b0:	df000017 	ldw	fp,0(sp)
   1a8b4:	dec00104 	addi	sp,sp,4
   1a8b8:	f800283a 	ret

0001a8bc <alt_dev_null_write>:
 * by the alt_dev_null device. It simple discards all data passed to it, and
 * indicates that the data has been successfully transmitted.
 */

static int alt_dev_null_write (alt_fd* fd, const char* ptr, int len)
{
   1a8bc:	defffc04 	addi	sp,sp,-16
   1a8c0:	df000315 	stw	fp,12(sp)
   1a8c4:	df000304 	addi	fp,sp,12
   1a8c8:	e13ffd15 	stw	r4,-12(fp)
   1a8cc:	e17ffe15 	stw	r5,-8(fp)
   1a8d0:	e1bfff15 	stw	r6,-4(fp)
  return len;
   1a8d4:	e0bfff17 	ldw	r2,-4(fp)
}
   1a8d8:	e037883a 	mov	sp,fp
   1a8dc:	df000017 	ldw	fp,0(sp)
   1a8e0:	dec00104 	addi	sp,sp,4
   1a8e4:	f800283a 	ret

0001a8e8 <alt_get_errno>:
#undef errno

extern int errno;

static ALT_INLINE int* alt_get_errno(void)
{
   1a8e8:	defffe04 	addi	sp,sp,-8
   1a8ec:	dfc00115 	stw	ra,4(sp)
   1a8f0:	df000015 	stw	fp,0(sp)
   1a8f4:	d839883a 	mov	fp,sp
  return ((alt_errno) ? alt_errno() : &errno);
   1a8f8:	d0a00b17 	ldw	r2,-32724(gp)
   1a8fc:	10000326 	beq	r2,zero,1a90c <alt_get_errno+0x24>
   1a900:	d0a00b17 	ldw	r2,-32724(gp)
   1a904:	103ee83a 	callr	r2
   1a908:	00000106 	br	1a910 <alt_get_errno+0x28>
   1a90c:	d0a18f04 	addi	r2,gp,-31172
}
   1a910:	e037883a 	mov	sp,fp
   1a914:	dfc00117 	ldw	ra,4(sp)
   1a918:	df000017 	ldw	fp,0(sp)
   1a91c:	dec00204 	addi	sp,sp,8
   1a920:	f800283a 	ret

0001a924 <alt_dev_llist_insert>:
/*
 *
 */

int alt_dev_llist_insert (alt_dev_llist* dev, alt_llist* list)
{
   1a924:	defffa04 	addi	sp,sp,-24
   1a928:	dfc00515 	stw	ra,20(sp)
   1a92c:	df000415 	stw	fp,16(sp)
   1a930:	df000404 	addi	fp,sp,16
   1a934:	e13ffe15 	stw	r4,-8(fp)
   1a938:	e17fff15 	stw	r5,-4(fp)
  /*
   * check that the device exists, and that it has a valid name.
   */

  if (!dev || !dev->name)
   1a93c:	e0bffe17 	ldw	r2,-8(fp)
   1a940:	10000326 	beq	r2,zero,1a950 <alt_dev_llist_insert+0x2c>
   1a944:	e0bffe17 	ldw	r2,-8(fp)
   1a948:	10800217 	ldw	r2,8(r2)
   1a94c:	1000061e 	bne	r2,zero,1a968 <alt_dev_llist_insert+0x44>
  {
    ALT_ERRNO = EINVAL;
   1a950:	001a8e80 	call	1a8e8 <alt_get_errno>
   1a954:	1007883a 	mov	r3,r2
   1a958:	00800584 	movi	r2,22
   1a95c:	18800015 	stw	r2,0(r3)
    return -EINVAL;
   1a960:	00bffa84 	movi	r2,-22
   1a964:	00001306 	br	1a9b4 <alt_dev_llist_insert+0x90>
  
  /*
   * register the device.
   */
  
  alt_llist_insert(list, &dev->llist);
   1a968:	e0bffe17 	ldw	r2,-8(fp)
   1a96c:	e0ffff17 	ldw	r3,-4(fp)
   1a970:	e0fffc15 	stw	r3,-16(fp)
   1a974:	e0bffd15 	stw	r2,-12(fp)
 */

static ALT_INLINE void ALT_ALWAYS_INLINE alt_llist_insert(alt_llist* list, 
                alt_llist* entry)
{
  entry->previous = list;
   1a978:	e0bffd17 	ldw	r2,-12(fp)
   1a97c:	e0fffc17 	ldw	r3,-16(fp)
   1a980:	10c00115 	stw	r3,4(r2)
  entry->next     = list->next;
   1a984:	e0bffc17 	ldw	r2,-16(fp)
   1a988:	10c00017 	ldw	r3,0(r2)
   1a98c:	e0bffd17 	ldw	r2,-12(fp)
   1a990:	10c00015 	stw	r3,0(r2)

  list->next->previous = entry;
   1a994:	e0bffc17 	ldw	r2,-16(fp)
   1a998:	10800017 	ldw	r2,0(r2)
   1a99c:	e0fffd17 	ldw	r3,-12(fp)
   1a9a0:	10c00115 	stw	r3,4(r2)
  list->next           = entry;
   1a9a4:	e0bffc17 	ldw	r2,-16(fp)
   1a9a8:	e0fffd17 	ldw	r3,-12(fp)
   1a9ac:	10c00015 	stw	r3,0(r2)

  return 0;  
   1a9b0:	0005883a 	mov	r2,zero
}
   1a9b4:	e037883a 	mov	sp,fp
   1a9b8:	dfc00117 	ldw	ra,4(sp)
   1a9bc:	df000017 	ldw	fp,0(sp)
   1a9c0:	dec00204 	addi	sp,sp,8
   1a9c4:	f800283a 	ret

0001a9c8 <_do_ctors>:
/*
 * Run the C++ static constructors.
 */

void _do_ctors(void)
{
   1a9c8:	defffd04 	addi	sp,sp,-12
   1a9cc:	dfc00215 	stw	ra,8(sp)
   1a9d0:	df000115 	stw	fp,4(sp)
   1a9d4:	df000104 	addi	fp,sp,4
  constructor* ctor;

  for (ctor = &__CTOR_END__[-1]; ctor >= __CTOR_LIST__; ctor--)
   1a9d8:	008000b4 	movhi	r2,2
   1a9dc:	10accf04 	addi	r2,r2,-19652
   1a9e0:	e0bfff15 	stw	r2,-4(fp)
   1a9e4:	00000606 	br	1aa00 <_do_ctors+0x38>
        (*ctor) (); 
   1a9e8:	e0bfff17 	ldw	r2,-4(fp)
   1a9ec:	10800017 	ldw	r2,0(r2)
   1a9f0:	103ee83a 	callr	r2

void _do_ctors(void)
{
  constructor* ctor;

  for (ctor = &__CTOR_END__[-1]; ctor >= __CTOR_LIST__; ctor--)
   1a9f4:	e0bfff17 	ldw	r2,-4(fp)
   1a9f8:	10bfff04 	addi	r2,r2,-4
   1a9fc:	e0bfff15 	stw	r2,-4(fp)
   1aa00:	e0ffff17 	ldw	r3,-4(fp)
   1aa04:	008000b4 	movhi	r2,2
   1aa08:	10acd004 	addi	r2,r2,-19648
   1aa0c:	18bff62e 	bgeu	r3,r2,1a9e8 <_gp+0xffff6988>
        (*ctor) (); 
}
   1aa10:	0001883a 	nop
   1aa14:	e037883a 	mov	sp,fp
   1aa18:	dfc00117 	ldw	ra,4(sp)
   1aa1c:	df000017 	ldw	fp,0(sp)
   1aa20:	dec00204 	addi	sp,sp,8
   1aa24:	f800283a 	ret

0001aa28 <_do_dtors>:
/*
 * Run the C++ static destructors.
 */

void _do_dtors(void)
{
   1aa28:	defffd04 	addi	sp,sp,-12
   1aa2c:	dfc00215 	stw	ra,8(sp)
   1aa30:	df000115 	stw	fp,4(sp)
   1aa34:	df000104 	addi	fp,sp,4
  destructor* dtor;

  for (dtor = &__DTOR_END__[-1]; dtor >= __DTOR_LIST__; dtor--)
   1aa38:	008000b4 	movhi	r2,2
   1aa3c:	10accf04 	addi	r2,r2,-19652
   1aa40:	e0bfff15 	stw	r2,-4(fp)
   1aa44:	00000606 	br	1aa60 <_do_dtors+0x38>
        (*dtor) (); 
   1aa48:	e0bfff17 	ldw	r2,-4(fp)
   1aa4c:	10800017 	ldw	r2,0(r2)
   1aa50:	103ee83a 	callr	r2

void _do_dtors(void)
{
  destructor* dtor;

  for (dtor = &__DTOR_END__[-1]; dtor >= __DTOR_LIST__; dtor--)
   1aa54:	e0bfff17 	ldw	r2,-4(fp)
   1aa58:	10bfff04 	addi	r2,r2,-4
   1aa5c:	e0bfff15 	stw	r2,-4(fp)
   1aa60:	e0ffff17 	ldw	r3,-4(fp)
   1aa64:	008000b4 	movhi	r2,2
   1aa68:	10acd004 	addi	r2,r2,-19648
   1aa6c:	18bff62e 	bgeu	r3,r2,1aa48 <_gp+0xffff69e8>
        (*dtor) (); 
}
   1aa70:	0001883a 	nop
   1aa74:	e037883a 	mov	sp,fp
   1aa78:	dfc00117 	ldw	ra,4(sp)
   1aa7c:	df000017 	ldw	fp,0(sp)
   1aa80:	dec00204 	addi	sp,sp,8
   1aa84:	f800283a 	ret

0001aa88 <alt_icache_flush_all>:
/*
 * alt_icache_flush_all() is called to flush the entire instruction cache.
 */

void alt_icache_flush_all (void)
{
   1aa88:	defffe04 	addi	sp,sp,-8
   1aa8c:	dfc00115 	stw	ra,4(sp)
   1aa90:	df000015 	stw	fp,0(sp)
   1aa94:	d839883a 	mov	fp,sp
#if NIOS2_ICACHE_SIZE > 0
  alt_icache_flush (0, NIOS2_ICACHE_SIZE);
   1aa98:	01440004 	movi	r5,4096
   1aa9c:	0009883a 	mov	r4,zero
   1aaa0:	001b1140 	call	1b114 <alt_icache_flush>
#endif
}
   1aaa4:	0001883a 	nop
   1aaa8:	e037883a 	mov	sp,fp
   1aaac:	dfc00117 	ldw	ra,4(sp)
   1aab0:	df000017 	ldw	fp,0(sp)
   1aab4:	dec00204 	addi	sp,sp,8
   1aab8:	f800283a 	ret

0001aabc <alt_open_fd>:
 * If the device can not be succesfully opened, then the input file descriptor
 * remains unchanged.
 */

static void alt_open_fd(alt_fd* fd, const char* name, int flags, int mode)
{
   1aabc:	defff904 	addi	sp,sp,-28
   1aac0:	dfc00615 	stw	ra,24(sp)
   1aac4:	df000515 	stw	fp,20(sp)
   1aac8:	df000504 	addi	fp,sp,20
   1aacc:	e13ffc15 	stw	r4,-16(fp)
   1aad0:	e17ffd15 	stw	r5,-12(fp)
   1aad4:	e1bffe15 	stw	r6,-8(fp)
   1aad8:	e1ffff15 	stw	r7,-4(fp)
  int old;

  old = open (name, flags, mode);
   1aadc:	e1bfff17 	ldw	r6,-4(fp)
   1aae0:	e17ffe17 	ldw	r5,-8(fp)
   1aae4:	e13ffd17 	ldw	r4,-12(fp)
   1aae8:	001acfc0 	call	1acfc <open>
   1aaec:	e0bffb15 	stw	r2,-20(fp)

  if (old >= 0)
   1aaf0:	e0bffb17 	ldw	r2,-20(fp)
   1aaf4:	10001c16 	blt	r2,zero,1ab68 <alt_open_fd+0xac>
  {
    fd->dev      = alt_fd_list[old].dev;
   1aaf8:	008000b4 	movhi	r2,2
   1aafc:	10afb804 	addi	r2,r2,-16672
   1ab00:	e0fffb17 	ldw	r3,-20(fp)
   1ab04:	18c00324 	muli	r3,r3,12
   1ab08:	10c5883a 	add	r2,r2,r3
   1ab0c:	10c00017 	ldw	r3,0(r2)
   1ab10:	e0bffc17 	ldw	r2,-16(fp)
   1ab14:	10c00015 	stw	r3,0(r2)
    fd->priv     = alt_fd_list[old].priv;
   1ab18:	008000b4 	movhi	r2,2
   1ab1c:	10afb804 	addi	r2,r2,-16672
   1ab20:	e0fffb17 	ldw	r3,-20(fp)
   1ab24:	18c00324 	muli	r3,r3,12
   1ab28:	10c5883a 	add	r2,r2,r3
   1ab2c:	10800104 	addi	r2,r2,4
   1ab30:	10c00017 	ldw	r3,0(r2)
   1ab34:	e0bffc17 	ldw	r2,-16(fp)
   1ab38:	10c00115 	stw	r3,4(r2)
    fd->fd_flags = alt_fd_list[old].fd_flags;
   1ab3c:	008000b4 	movhi	r2,2
   1ab40:	10afb804 	addi	r2,r2,-16672
   1ab44:	e0fffb17 	ldw	r3,-20(fp)
   1ab48:	18c00324 	muli	r3,r3,12
   1ab4c:	10c5883a 	add	r2,r2,r3
   1ab50:	10800204 	addi	r2,r2,8
   1ab54:	10c00017 	ldw	r3,0(r2)
   1ab58:	e0bffc17 	ldw	r2,-16(fp)
   1ab5c:	10c00215 	stw	r3,8(r2)

    alt_release_fd (old);
   1ab60:	e13ffb17 	ldw	r4,-20(fp)
   1ab64:	001ae500 	call	1ae50 <alt_release_fd>
  }
} 
   1ab68:	0001883a 	nop
   1ab6c:	e037883a 	mov	sp,fp
   1ab70:	dfc00117 	ldw	ra,4(sp)
   1ab74:	df000017 	ldw	fp,0(sp)
   1ab78:	dec00204 	addi	sp,sp,8
   1ab7c:	f800283a 	ret

0001ab80 <alt_io_redirect>:
 */
 
void alt_io_redirect(const char* stdout_dev, 
                     const char* stdin_dev, 
                     const char* stderr_dev)
{
   1ab80:	defffb04 	addi	sp,sp,-20
   1ab84:	dfc00415 	stw	ra,16(sp)
   1ab88:	df000315 	stw	fp,12(sp)
   1ab8c:	df000304 	addi	fp,sp,12
   1ab90:	e13ffd15 	stw	r4,-12(fp)
   1ab94:	e17ffe15 	stw	r5,-8(fp)
   1ab98:	e1bfff15 	stw	r6,-4(fp)
  /* Redirect the channels */

  alt_open_fd (&alt_fd_list[STDOUT_FILENO], stdout_dev, O_WRONLY, 0777);
   1ab9c:	01c07fc4 	movi	r7,511
   1aba0:	01800044 	movi	r6,1
   1aba4:	e17ffd17 	ldw	r5,-12(fp)
   1aba8:	010000b4 	movhi	r4,2
   1abac:	212fbb04 	addi	r4,r4,-16660
   1abb0:	001aabc0 	call	1aabc <alt_open_fd>
  alt_open_fd (&alt_fd_list[STDIN_FILENO], stdin_dev, O_RDONLY, 0777);
   1abb4:	01c07fc4 	movi	r7,511
   1abb8:	000d883a 	mov	r6,zero
   1abbc:	e17ffe17 	ldw	r5,-8(fp)
   1abc0:	010000b4 	movhi	r4,2
   1abc4:	212fb804 	addi	r4,r4,-16672
   1abc8:	001aabc0 	call	1aabc <alt_open_fd>
  alt_open_fd (&alt_fd_list[STDERR_FILENO], stderr_dev, O_WRONLY, 0777);
   1abcc:	01c07fc4 	movi	r7,511
   1abd0:	01800044 	movi	r6,1
   1abd4:	e17fff17 	ldw	r5,-4(fp)
   1abd8:	010000b4 	movhi	r4,2
   1abdc:	212fbe04 	addi	r4,r4,-16648
   1abe0:	001aabc0 	call	1aabc <alt_open_fd>
}  
   1abe4:	0001883a 	nop
   1abe8:	e037883a 	mov	sp,fp
   1abec:	dfc00117 	ldw	ra,4(sp)
   1abf0:	df000017 	ldw	fp,0(sp)
   1abf4:	dec00204 	addi	sp,sp,8
   1abf8:	f800283a 	ret

0001abfc <alt_get_errno>:
#undef errno

extern int errno;

static ALT_INLINE int* alt_get_errno(void)
{
   1abfc:	defffe04 	addi	sp,sp,-8
   1ac00:	dfc00115 	stw	ra,4(sp)
   1ac04:	df000015 	stw	fp,0(sp)
   1ac08:	d839883a 	mov	fp,sp
  return ((alt_errno) ? alt_errno() : &errno);
   1ac0c:	d0a00b17 	ldw	r2,-32724(gp)
   1ac10:	10000326 	beq	r2,zero,1ac20 <alt_get_errno+0x24>
   1ac14:	d0a00b17 	ldw	r2,-32724(gp)
   1ac18:	103ee83a 	callr	r2
   1ac1c:	00000106 	br	1ac24 <alt_get_errno+0x28>
   1ac20:	d0a18f04 	addi	r2,gp,-31172
}
   1ac24:	e037883a 	mov	sp,fp
   1ac28:	dfc00117 	ldw	ra,4(sp)
   1ac2c:	df000017 	ldw	fp,0(sp)
   1ac30:	dec00204 	addi	sp,sp,8
   1ac34:	f800283a 	ret

0001ac38 <alt_file_locked>:
 * performed for devices. Filesystems are required to handle the ioctl() call
 * themselves, and report the error from the filesystems open() function. 
 */ 

static int alt_file_locked (alt_fd* fd)
{
   1ac38:	defffd04 	addi	sp,sp,-12
   1ac3c:	df000215 	stw	fp,8(sp)
   1ac40:	df000204 	addi	fp,sp,8
   1ac44:	e13fff15 	stw	r4,-4(fp)

  /*
   * Mark the file descriptor as belonging to a device.
   */

  fd->fd_flags |= ALT_FD_DEV;
   1ac48:	e0bfff17 	ldw	r2,-4(fp)
   1ac4c:	10800217 	ldw	r2,8(r2)
   1ac50:	10d00034 	orhi	r3,r2,16384
   1ac54:	e0bfff17 	ldw	r2,-4(fp)
   1ac58:	10c00215 	stw	r3,8(r2)
  /*
   * Loop through all current file descriptors searching for one that's locked
   * for exclusive access. If a match is found, generate an error.
   */

  for (i = 0; i <= alt_max_fd; i++)
   1ac5c:	e03ffe15 	stw	zero,-8(fp)
   1ac60:	00001d06 	br	1acd8 <alt_file_locked+0xa0>
  {
    if ((alt_fd_list[i].dev == fd->dev) &&
   1ac64:	008000b4 	movhi	r2,2
   1ac68:	10afb804 	addi	r2,r2,-16672
   1ac6c:	e0fffe17 	ldw	r3,-8(fp)
   1ac70:	18c00324 	muli	r3,r3,12
   1ac74:	10c5883a 	add	r2,r2,r3
   1ac78:	10c00017 	ldw	r3,0(r2)
   1ac7c:	e0bfff17 	ldw	r2,-4(fp)
   1ac80:	10800017 	ldw	r2,0(r2)
   1ac84:	1880111e 	bne	r3,r2,1accc <alt_file_locked+0x94>
        (alt_fd_list[i].fd_flags & ALT_FD_EXCL) &&
   1ac88:	008000b4 	movhi	r2,2
   1ac8c:	10afb804 	addi	r2,r2,-16672
   1ac90:	e0fffe17 	ldw	r3,-8(fp)
   1ac94:	18c00324 	muli	r3,r3,12
   1ac98:	10c5883a 	add	r2,r2,r3
   1ac9c:	10800204 	addi	r2,r2,8
   1aca0:	10800017 	ldw	r2,0(r2)
   * for exclusive access. If a match is found, generate an error.
   */

  for (i = 0; i <= alt_max_fd; i++)
  {
    if ((alt_fd_list[i].dev == fd->dev) &&
   1aca4:	1000090e 	bge	r2,zero,1accc <alt_file_locked+0x94>
        (alt_fd_list[i].fd_flags & ALT_FD_EXCL) &&
        (&alt_fd_list[i] != fd))
   1aca8:	e0bffe17 	ldw	r2,-8(fp)
   1acac:	10c00324 	muli	r3,r2,12
   1acb0:	008000b4 	movhi	r2,2
   1acb4:	10afb804 	addi	r2,r2,-16672
   1acb8:	1887883a 	add	r3,r3,r2
   */

  for (i = 0; i <= alt_max_fd; i++)
  {
    if ((alt_fd_list[i].dev == fd->dev) &&
        (alt_fd_list[i].fd_flags & ALT_FD_EXCL) &&
   1acbc:	e0bfff17 	ldw	r2,-4(fp)
   1acc0:	18800226 	beq	r3,r2,1accc <alt_file_locked+0x94>
        (&alt_fd_list[i] != fd))
    {
      return -EACCES;
   1acc4:	00bffcc4 	movi	r2,-13
   1acc8:	00000806 	br	1acec <alt_file_locked+0xb4>
  /*
   * Loop through all current file descriptors searching for one that's locked
   * for exclusive access. If a match is found, generate an error.
   */

  for (i = 0; i <= alt_max_fd; i++)
   1accc:	e0bffe17 	ldw	r2,-8(fp)
   1acd0:	10800044 	addi	r2,r2,1
   1acd4:	e0bffe15 	stw	r2,-8(fp)
   1acd8:	d0a00a17 	ldw	r2,-32728(gp)
   1acdc:	1007883a 	mov	r3,r2
   1ace0:	e0bffe17 	ldw	r2,-8(fp)
   1ace4:	18bfdf2e 	bgeu	r3,r2,1ac64 <_gp+0xffff6c04>
    }
  }
  
  /* The device is not locked */
 
  return 0;
   1ace8:	0005883a 	mov	r2,zero
}
   1acec:	e037883a 	mov	sp,fp
   1acf0:	df000017 	ldw	fp,0(sp)
   1acf4:	dec00104 	addi	sp,sp,4
   1acf8:	f800283a 	ret

0001acfc <open>:
 *
 * ALT_OPEN is mapped onto the open() system call in alt_syscall.h
 */
 
int ALT_OPEN (const char* file, int flags, int mode)
{ 
   1acfc:	defff604 	addi	sp,sp,-40
   1ad00:	dfc00915 	stw	ra,36(sp)
   1ad04:	df000815 	stw	fp,32(sp)
   1ad08:	df000804 	addi	fp,sp,32
   1ad0c:	e13ffd15 	stw	r4,-12(fp)
   1ad10:	e17ffe15 	stw	r5,-8(fp)
   1ad14:	e1bfff15 	stw	r6,-4(fp)
  alt_dev* dev;
  alt_fd*  fd;
  int index  = -1;
   1ad18:	00bfffc4 	movi	r2,-1
   1ad1c:	e0bff915 	stw	r2,-28(fp)
  int status = -ENODEV;
   1ad20:	00bffb44 	movi	r2,-19
   1ad24:	e0bffa15 	stw	r2,-24(fp)
  int isafs = 0;
   1ad28:	e03ffb15 	stw	zero,-20(fp)
  /* 
   * Check the device list, to see if a device with a matching name is 
   * registered.
   */
  
  if (!(dev = alt_find_dev (file, &alt_dev_list)))
   1ad2c:	d1600804 	addi	r5,gp,-32736
   1ad30:	e13ffd17 	ldw	r4,-12(fp)
   1ad34:	001aed80 	call	1aed8 <alt_find_dev>
   1ad38:	e0bff815 	stw	r2,-32(fp)
   1ad3c:	e0bff817 	ldw	r2,-32(fp)
   1ad40:	1000051e 	bne	r2,zero,1ad58 <open+0x5c>
  {
    /* No matching device, so try the filesystem list */

    dev   = alt_find_file (file);
   1ad44:	e13ffd17 	ldw	r4,-12(fp)
   1ad48:	001af680 	call	1af68 <alt_find_file>
   1ad4c:	e0bff815 	stw	r2,-32(fp)
    isafs = 1;
   1ad50:	00800044 	movi	r2,1
   1ad54:	e0bffb15 	stw	r2,-20(fp)

  /* 
   * If a matching device or filesystem is found, allocate a file descriptor. 
   */

  if (dev)
   1ad58:	e0bff817 	ldw	r2,-32(fp)
   1ad5c:	10002926 	beq	r2,zero,1ae04 <open+0x108>
  {
    if ((index = alt_get_fd (dev)) < 0)
   1ad60:	e13ff817 	ldw	r4,-32(fp)
   1ad64:	001b0700 	call	1b070 <alt_get_fd>
   1ad68:	e0bff915 	stw	r2,-28(fp)
   1ad6c:	e0bff917 	ldw	r2,-28(fp)
   1ad70:	1000030e 	bge	r2,zero,1ad80 <open+0x84>
    {
      status = index;
   1ad74:	e0bff917 	ldw	r2,-28(fp)
   1ad78:	e0bffa15 	stw	r2,-24(fp)
   1ad7c:	00002306 	br	1ae0c <open+0x110>
    }
    else
    {
      fd = &alt_fd_list[index];
   1ad80:	e0bff917 	ldw	r2,-28(fp)
   1ad84:	10c00324 	muli	r3,r2,12
   1ad88:	008000b4 	movhi	r2,2
   1ad8c:	10afb804 	addi	r2,r2,-16672
   1ad90:	1885883a 	add	r2,r3,r2
   1ad94:	e0bffc15 	stw	r2,-16(fp)
      fd->fd_flags = (flags & ~ALT_FD_FLAGS_MASK);
   1ad98:	e0fffe17 	ldw	r3,-8(fp)
   1ad9c:	00900034 	movhi	r2,16384
   1ada0:	10bfffc4 	addi	r2,r2,-1
   1ada4:	1886703a 	and	r3,r3,r2
   1ada8:	e0bffc17 	ldw	r2,-16(fp)
   1adac:	10c00215 	stw	r3,8(r2)
      
      /* If this is a device, ensure it isn't already locked */

      if (isafs || ((status = alt_file_locked (fd)) >= 0))
   1adb0:	e0bffb17 	ldw	r2,-20(fp)
   1adb4:	1000051e 	bne	r2,zero,1adcc <open+0xd0>
   1adb8:	e13ffc17 	ldw	r4,-16(fp)
   1adbc:	001ac380 	call	1ac38 <alt_file_locked>
   1adc0:	e0bffa15 	stw	r2,-24(fp)
   1adc4:	e0bffa17 	ldw	r2,-24(fp)
   1adc8:	10001016 	blt	r2,zero,1ae0c <open+0x110>
        /* 
         * If the device or filesystem provides an open() callback function,
         * call it now to perform any device/filesystem specific operations.
         */
    
        status = (dev->open) ? dev->open(fd, file, flags, mode): 0;
   1adcc:	e0bff817 	ldw	r2,-32(fp)
   1add0:	10800317 	ldw	r2,12(r2)
   1add4:	10000826 	beq	r2,zero,1adf8 <open+0xfc>
   1add8:	e0bff817 	ldw	r2,-32(fp)
   1addc:	10800317 	ldw	r2,12(r2)
   1ade0:	e1ffff17 	ldw	r7,-4(fp)
   1ade4:	e1bffe17 	ldw	r6,-8(fp)
   1ade8:	e17ffd17 	ldw	r5,-12(fp)
   1adec:	e13ffc17 	ldw	r4,-16(fp)
   1adf0:	103ee83a 	callr	r2
   1adf4:	00000106 	br	1adfc <open+0x100>
   1adf8:	0005883a 	mov	r2,zero
   1adfc:	e0bffa15 	stw	r2,-24(fp)
   1ae00:	00000206 	br	1ae0c <open+0x110>
      }
    }
  }
  else
  {
    status = -ENODEV;
   1ae04:	00bffb44 	movi	r2,-19
   1ae08:	e0bffa15 	stw	r2,-24(fp)
  }

  /* Allocation failed, so clean up and return an error */ 

  if (status < 0)
   1ae0c:	e0bffa17 	ldw	r2,-24(fp)
   1ae10:	1000090e 	bge	r2,zero,1ae38 <open+0x13c>
  {
    alt_release_fd (index);  
   1ae14:	e13ff917 	ldw	r4,-28(fp)
   1ae18:	001ae500 	call	1ae50 <alt_release_fd>
    ALT_ERRNO = -status;
   1ae1c:	001abfc0 	call	1abfc <alt_get_errno>
   1ae20:	1007883a 	mov	r3,r2
   1ae24:	e0bffa17 	ldw	r2,-24(fp)
   1ae28:	0085c83a 	sub	r2,zero,r2
   1ae2c:	18800015 	stw	r2,0(r3)
    return -1;
   1ae30:	00bfffc4 	movi	r2,-1
   1ae34:	00000106 	br	1ae3c <open+0x140>
  }
  
  /* return the reference upon success */

  return index;
   1ae38:	e0bff917 	ldw	r2,-28(fp)
}
   1ae3c:	e037883a 	mov	sp,fp
   1ae40:	dfc00117 	ldw	ra,4(sp)
   1ae44:	df000017 	ldw	fp,0(sp)
   1ae48:	dec00204 	addi	sp,sp,8
   1ae4c:	f800283a 	ret

0001ae50 <alt_release_fd>:
 * File descriptors correcponding to standard in, standard out and standard 
 * error cannont be released backed to the pool. They are always reserved.
 */

void alt_release_fd (int fd)
{
   1ae50:	defffe04 	addi	sp,sp,-8
   1ae54:	df000115 	stw	fp,4(sp)
   1ae58:	df000104 	addi	fp,sp,4
   1ae5c:	e13fff15 	stw	r4,-4(fp)
  if (fd > 2)
   1ae60:	e0bfff17 	ldw	r2,-4(fp)
   1ae64:	108000d0 	cmplti	r2,r2,3
   1ae68:	10000d1e 	bne	r2,zero,1aea0 <alt_release_fd+0x50>
  {
    alt_fd_list[fd].fd_flags = 0;
   1ae6c:	008000b4 	movhi	r2,2
   1ae70:	10afb804 	addi	r2,r2,-16672
   1ae74:	e0ffff17 	ldw	r3,-4(fp)
   1ae78:	18c00324 	muli	r3,r3,12
   1ae7c:	10c5883a 	add	r2,r2,r3
   1ae80:	10800204 	addi	r2,r2,8
   1ae84:	10000015 	stw	zero,0(r2)
    alt_fd_list[fd].dev      = 0;
   1ae88:	008000b4 	movhi	r2,2
   1ae8c:	10afb804 	addi	r2,r2,-16672
   1ae90:	e0ffff17 	ldw	r3,-4(fp)
   1ae94:	18c00324 	muli	r3,r3,12
   1ae98:	10c5883a 	add	r2,r2,r3
   1ae9c:	10000015 	stw	zero,0(r2)
  }
}
   1aea0:	0001883a 	nop
   1aea4:	e037883a 	mov	sp,fp
   1aea8:	df000017 	ldw	fp,0(sp)
   1aeac:	dec00104 	addi	sp,sp,4
   1aeb0:	f800283a 	ret

0001aeb4 <altera_nios2_qsys_irq_init>:
/*
 * To initialize the internal interrupt controller, just clear the IENABLE
 * register so that all possible IRQs are disabled.
 */
void altera_nios2_qsys_irq_init(void) 
{
   1aeb4:	deffff04 	addi	sp,sp,-4
   1aeb8:	df000015 	stw	fp,0(sp)
   1aebc:	d839883a 	mov	fp,sp
    NIOS2_WRITE_IENABLE(0);
   1aec0:	000170fa 	wrctl	ienable,zero
}
   1aec4:	0001883a 	nop
   1aec8:	e037883a 	mov	sp,fp
   1aecc:	df000017 	ldw	fp,0(sp)
   1aed0:	dec00104 	addi	sp,sp,4
   1aed4:	f800283a 	ret

0001aed8 <alt_find_dev>:
 * "name" must be an exact match for the devices registered name for a match to
 * be found.
 */
 
alt_dev* alt_find_dev(const char* name, alt_llist* llist)
{
   1aed8:	defffa04 	addi	sp,sp,-24
   1aedc:	dfc00515 	stw	ra,20(sp)
   1aee0:	df000415 	stw	fp,16(sp)
   1aee4:	df000404 	addi	fp,sp,16
   1aee8:	e13ffe15 	stw	r4,-8(fp)
   1aeec:	e17fff15 	stw	r5,-4(fp)
  alt_dev* next = (alt_dev*) llist->next;
   1aef0:	e0bfff17 	ldw	r2,-4(fp)
   1aef4:	10800017 	ldw	r2,0(r2)
   1aef8:	e0bffc15 	stw	r2,-16(fp)
  alt_32 len;

  len  = strlen(name) + 1;
   1aefc:	e13ffe17 	ldw	r4,-8(fp)
   1af00:	00189e40 	call	189e4 <strlen>
   1af04:	10800044 	addi	r2,r2,1
   1af08:	e0bffd15 	stw	r2,-12(fp)
  /*
   * Check each list entry in turn, until a match is found, or we reach the
   * end of the list (i.e. next winds up pointing back to the list head).
   */ 

  while (next != (alt_dev*) llist)
   1af0c:	00000d06 	br	1af44 <alt_find_dev+0x6c>
    /* 
     * memcmp() is used here rather than strcmp() in order to reduce the size
     * of the executable.
     */

    if (!memcmp (next->name, name, len))
   1af10:	e0bffc17 	ldw	r2,-16(fp)
   1af14:	10800217 	ldw	r2,8(r2)
   1af18:	e0fffd17 	ldw	r3,-12(fp)
   1af1c:	180d883a 	mov	r6,r3
   1af20:	e17ffe17 	ldw	r5,-8(fp)
   1af24:	1009883a 	mov	r4,r2
   1af28:	001b1b80 	call	1b1b8 <memcmp>
   1af2c:	1000021e 	bne	r2,zero,1af38 <alt_find_dev+0x60>
    {
      /* match found */

      return next;
   1af30:	e0bffc17 	ldw	r2,-16(fp)
   1af34:	00000706 	br	1af54 <alt_find_dev+0x7c>
    }
    next = (alt_dev*) next->llist.next;
   1af38:	e0bffc17 	ldw	r2,-16(fp)
   1af3c:	10800017 	ldw	r2,0(r2)
   1af40:	e0bffc15 	stw	r2,-16(fp)
  /*
   * Check each list entry in turn, until a match is found, or we reach the
   * end of the list (i.e. next winds up pointing back to the list head).
   */ 

  while (next != (alt_dev*) llist)
   1af44:	e0fffc17 	ldw	r3,-16(fp)
   1af48:	e0bfff17 	ldw	r2,-4(fp)
   1af4c:	18bff01e 	bne	r3,r2,1af10 <_gp+0xffff6eb0>
    next = (alt_dev*) next->llist.next;
  }
  
  /* No match found */
  
  return NULL;
   1af50:	0005883a 	mov	r2,zero
}
   1af54:	e037883a 	mov	sp,fp
   1af58:	dfc00117 	ldw	ra,4(sp)
   1af5c:	df000017 	ldw	fp,0(sp)
   1af60:	dec00204 	addi	sp,sp,8
   1af64:	f800283a 	ret

0001af68 <alt_find_file>:
 * either '/' or '\0' is the prefix of the filename. For example the filename:
 * "/myfilesystem/junk.txt" would match: "/myfilesystem", but not: "/myfile". 
 */
 
alt_dev* alt_find_file (const char* name)
{
   1af68:	defffb04 	addi	sp,sp,-20
   1af6c:	dfc00415 	stw	ra,16(sp)
   1af70:	df000315 	stw	fp,12(sp)
   1af74:	df000304 	addi	fp,sp,12
   1af78:	e13fff15 	stw	r4,-4(fp)
  alt_dev* next = (alt_dev*) alt_fs_list.next;   
   1af7c:	d0a00617 	ldw	r2,-32744(gp)
   1af80:	e0bffd15 	stw	r2,-12(fp)
  /*
   * Check each list entry in turn, until a match is found, or we reach the
   * end of the list (i.e. next winds up pointing back to the list head).
   */ 
 
  while (next != (alt_dev*) &alt_fs_list)
   1af84:	00003106 	br	1b04c <alt_find_file+0xe4>
  {
    len = strlen(next->name);
   1af88:	e0bffd17 	ldw	r2,-12(fp)
   1af8c:	10800217 	ldw	r2,8(r2)
   1af90:	1009883a 	mov	r4,r2
   1af94:	00189e40 	call	189e4 <strlen>
   1af98:	e0bffe15 	stw	r2,-8(fp)
    
    if (next->name[len-1] == '/')
   1af9c:	e0bffd17 	ldw	r2,-12(fp)
   1afa0:	10c00217 	ldw	r3,8(r2)
   1afa4:	e0bffe17 	ldw	r2,-8(fp)
   1afa8:	10bfffc4 	addi	r2,r2,-1
   1afac:	1885883a 	add	r2,r3,r2
   1afb0:	10800003 	ldbu	r2,0(r2)
   1afb4:	10803fcc 	andi	r2,r2,255
   1afb8:	1080201c 	xori	r2,r2,128
   1afbc:	10bfe004 	addi	r2,r2,-128
   1afc0:	10800bd8 	cmpnei	r2,r2,47
   1afc4:	1000031e 	bne	r2,zero,1afd4 <alt_find_file+0x6c>
    {
      len -= 1;
   1afc8:	e0bffe17 	ldw	r2,-8(fp)
   1afcc:	10bfffc4 	addi	r2,r2,-1
   1afd0:	e0bffe15 	stw	r2,-8(fp)
    }

    if (((name[len] == '/') || (name[len] == '\0')) && 
   1afd4:	e0bffe17 	ldw	r2,-8(fp)
   1afd8:	e0ffff17 	ldw	r3,-4(fp)
   1afdc:	1885883a 	add	r2,r3,r2
   1afe0:	10800003 	ldbu	r2,0(r2)
   1afe4:	10803fcc 	andi	r2,r2,255
   1afe8:	1080201c 	xori	r2,r2,128
   1afec:	10bfe004 	addi	r2,r2,-128
   1aff0:	10800be0 	cmpeqi	r2,r2,47
   1aff4:	1000081e 	bne	r2,zero,1b018 <alt_find_file+0xb0>
   1aff8:	e0bffe17 	ldw	r2,-8(fp)
   1affc:	e0ffff17 	ldw	r3,-4(fp)
   1b000:	1885883a 	add	r2,r3,r2
   1b004:	10800003 	ldbu	r2,0(r2)
   1b008:	10803fcc 	andi	r2,r2,255
   1b00c:	1080201c 	xori	r2,r2,128
   1b010:	10bfe004 	addi	r2,r2,-128
   1b014:	10000a1e 	bne	r2,zero,1b040 <alt_find_file+0xd8>
        !memcmp (next->name, name, len))
   1b018:	e0bffd17 	ldw	r2,-12(fp)
   1b01c:	10800217 	ldw	r2,8(r2)
   1b020:	e0fffe17 	ldw	r3,-8(fp)
   1b024:	180d883a 	mov	r6,r3
   1b028:	e17fff17 	ldw	r5,-4(fp)
   1b02c:	1009883a 	mov	r4,r2
   1b030:	001b1b80 	call	1b1b8 <memcmp>
    if (next->name[len-1] == '/')
    {
      len -= 1;
    }

    if (((name[len] == '/') || (name[len] == '\0')) && 
   1b034:	1000021e 	bne	r2,zero,1b040 <alt_find_file+0xd8>
        !memcmp (next->name, name, len))
    {
      /* match found */

      return next;
   1b038:	e0bffd17 	ldw	r2,-12(fp)
   1b03c:	00000706 	br	1b05c <alt_find_file+0xf4>
    }
    next = (alt_dev*) next->llist.next;
   1b040:	e0bffd17 	ldw	r2,-12(fp)
   1b044:	10800017 	ldw	r2,0(r2)
   1b048:	e0bffd15 	stw	r2,-12(fp)
  /*
   * Check each list entry in turn, until a match is found, or we reach the
   * end of the list (i.e. next winds up pointing back to the list head).
   */ 
 
  while (next != (alt_dev*) &alt_fs_list)
   1b04c:	e0fffd17 	ldw	r3,-12(fp)
   1b050:	d0a00604 	addi	r2,gp,-32744
   1b054:	18bfcc1e 	bne	r3,r2,1af88 <_gp+0xffff6f28>
    next = (alt_dev*) next->llist.next;
  }
  
  /* No match found */
  
  return NULL;     
   1b058:	0005883a 	mov	r2,zero
}
   1b05c:	e037883a 	mov	sp,fp
   1b060:	dfc00117 	ldw	ra,4(sp)
   1b064:	df000017 	ldw	fp,0(sp)
   1b068:	dec00204 	addi	sp,sp,8
   1b06c:	f800283a 	ret

0001b070 <alt_get_fd>:
 * the offset of the file descriptor within the file descriptor array). A
 * negative value indicates failure.
 */

int alt_get_fd (alt_dev* dev)
{
   1b070:	defffc04 	addi	sp,sp,-16
   1b074:	df000315 	stw	fp,12(sp)
   1b078:	df000304 	addi	fp,sp,12
   1b07c:	e13fff15 	stw	r4,-4(fp)
  alt_32 i;
  int rc = -EMFILE;
   1b080:	00bffa04 	movi	r2,-24
   1b084:	e0bffe15 	stw	r2,-8(fp)
   * indicates the highest file descriptor ever allocated. This is used to
   * improve efficency when searching the file descriptor list, and 
   * therefore reduce contention on the alt_fd_list_lock semaphore. 
   */

  for (i = 0; i < ALT_MAX_FD; i++)
   1b088:	e03ffd15 	stw	zero,-12(fp)
   1b08c:	00001906 	br	1b0f4 <alt_get_fd+0x84>
  {
    if (!alt_fd_list[i].dev)
   1b090:	008000b4 	movhi	r2,2
   1b094:	10afb804 	addi	r2,r2,-16672
   1b098:	e0fffd17 	ldw	r3,-12(fp)
   1b09c:	18c00324 	muli	r3,r3,12
   1b0a0:	10c5883a 	add	r2,r2,r3
   1b0a4:	10800017 	ldw	r2,0(r2)
   1b0a8:	10000f1e 	bne	r2,zero,1b0e8 <alt_get_fd+0x78>
    {
      alt_fd_list[i].dev = dev;
   1b0ac:	008000b4 	movhi	r2,2
   1b0b0:	10afb804 	addi	r2,r2,-16672
   1b0b4:	e0fffd17 	ldw	r3,-12(fp)
   1b0b8:	18c00324 	muli	r3,r3,12
   1b0bc:	10c5883a 	add	r2,r2,r3
   1b0c0:	e0ffff17 	ldw	r3,-4(fp)
   1b0c4:	10c00015 	stw	r3,0(r2)
      if (i > alt_max_fd)
   1b0c8:	d0e00a17 	ldw	r3,-32728(gp)
   1b0cc:	e0bffd17 	ldw	r2,-12(fp)
   1b0d0:	1880020e 	bge	r3,r2,1b0dc <alt_get_fd+0x6c>
      {
        alt_max_fd = i;
   1b0d4:	e0bffd17 	ldw	r2,-12(fp)
   1b0d8:	d0a00a15 	stw	r2,-32728(gp)
      }
      rc = i;
   1b0dc:	e0bffd17 	ldw	r2,-12(fp)
   1b0e0:	e0bffe15 	stw	r2,-8(fp)
      goto alt_get_fd_exit;
   1b0e4:	00000606 	br	1b100 <alt_get_fd+0x90>
   * indicates the highest file descriptor ever allocated. This is used to
   * improve efficency when searching the file descriptor list, and 
   * therefore reduce contention on the alt_fd_list_lock semaphore. 
   */

  for (i = 0; i < ALT_MAX_FD; i++)
   1b0e8:	e0bffd17 	ldw	r2,-12(fp)
   1b0ec:	10800044 	addi	r2,r2,1
   1b0f0:	e0bffd15 	stw	r2,-12(fp)
   1b0f4:	e0bffd17 	ldw	r2,-12(fp)
   1b0f8:	10800810 	cmplti	r2,r2,32
   1b0fc:	103fe41e 	bne	r2,zero,1b090 <_gp+0xffff7030>
   * file descriptor pool.
   */

  ALT_SEM_POST(alt_fd_list_lock);

  return rc;
   1b100:	e0bffe17 	ldw	r2,-8(fp)
}
   1b104:	e037883a 	mov	sp,fp
   1b108:	df000017 	ldw	fp,0(sp)
   1b10c:	dec00104 	addi	sp,sp,4
   1b110:	f800283a 	ret

0001b114 <alt_icache_flush>:
 * alt_icache_flush() is called to flush the instruction cache for a memory
 * region of length "len" bytes, starting at address "start".
 */

void alt_icache_flush (void* start, alt_u32 len)
{
   1b114:	defffb04 	addi	sp,sp,-20
   1b118:	df000415 	stw	fp,16(sp)
   1b11c:	df000404 	addi	fp,sp,16
   1b120:	e13ffe15 	stw	r4,-8(fp)
   1b124:	e17fff15 	stw	r5,-4(fp)

  /*
   * This is the most we would ever need to flush.
   */
 
  if (len > NIOS2_ICACHE_SIZE)
   1b128:	e0bfff17 	ldw	r2,-4(fp)
   1b12c:	10840070 	cmpltui	r2,r2,4097
   1b130:	1000021e 	bne	r2,zero,1b13c <alt_icache_flush+0x28>
  {
    len = NIOS2_ICACHE_SIZE;
   1b134:	00840004 	movi	r2,4096
   1b138:	e0bfff15 	stw	r2,-4(fp)
  }

  end = ((char*) start) + len;
   1b13c:	e0fffe17 	ldw	r3,-8(fp)
   1b140:	e0bfff17 	ldw	r2,-4(fp)
   1b144:	1885883a 	add	r2,r3,r2
   1b148:	e0bffd15 	stw	r2,-12(fp)

  for (i = start; i < end; i+= NIOS2_ICACHE_LINE_SIZE)
   1b14c:	e0bffe17 	ldw	r2,-8(fp)
   1b150:	e0bffc15 	stw	r2,-16(fp)
   1b154:	00000506 	br	1b16c <alt_icache_flush+0x58>
  { 
    __asm__ volatile ("flushi %0" :: "r" (i)); 
   1b158:	e0bffc17 	ldw	r2,-16(fp)
   1b15c:	1000603a 	flushi	r2
    len = NIOS2_ICACHE_SIZE;
  }

  end = ((char*) start) + len;

  for (i = start; i < end; i+= NIOS2_ICACHE_LINE_SIZE)
   1b160:	e0bffc17 	ldw	r2,-16(fp)
   1b164:	10800804 	addi	r2,r2,32
   1b168:	e0bffc15 	stw	r2,-16(fp)
   1b16c:	e0fffc17 	ldw	r3,-16(fp)
   1b170:	e0bffd17 	ldw	r2,-12(fp)
   1b174:	18bff836 	bltu	r3,r2,1b158 <_gp+0xffff70f8>
   * For an unaligned flush request, we've got one more line left.
   * Note that this is dependent on NIOS2_ICACHE_LINE_SIZE to be a 
   * multiple of 2 (which it always is).
   */

  if (((alt_u32) start) & (NIOS2_ICACHE_LINE_SIZE - 1))
   1b178:	e0bffe17 	ldw	r2,-8(fp)
   1b17c:	108007cc 	andi	r2,r2,31
   1b180:	10000226 	beq	r2,zero,1b18c <alt_icache_flush+0x78>
  {
    __asm__ volatile ("flushi %0" :: "r" (i));
   1b184:	e0bffc17 	ldw	r2,-16(fp)
   1b188:	1000603a 	flushi	r2
  /* 
   * Having flushed the cache, flush any stale instructions in the 
   * pipeline 
   */

  __asm__ volatile ("flushp");
   1b18c:	0000203a 	flushp

#endif /* NIOS2_ICACHE_SIZE > 0 */
}
   1b190:	0001883a 	nop
   1b194:	e037883a 	mov	sp,fp
   1b198:	df000017 	ldw	fp,0(sp)
   1b19c:	dec00104 	addi	sp,sp,4
   1b1a0:	f800283a 	ret

0001b1a4 <atexit>:
   1b1a4:	200b883a 	mov	r5,r4
   1b1a8:	000f883a 	mov	r7,zero
   1b1ac:	000d883a 	mov	r6,zero
   1b1b0:	0009883a 	mov	r4,zero
   1b1b4:	001b1e81 	jmpi	1b1e8 <__register_exitproc>

0001b1b8 <memcmp>:
   1b1b8:	218d883a 	add	r6,r4,r6
   1b1bc:	21800826 	beq	r4,r6,1b1e0 <memcmp+0x28>
   1b1c0:	20800003 	ldbu	r2,0(r4)
   1b1c4:	28c00003 	ldbu	r3,0(r5)
   1b1c8:	10c00226 	beq	r2,r3,1b1d4 <memcmp+0x1c>
   1b1cc:	10c5c83a 	sub	r2,r2,r3
   1b1d0:	f800283a 	ret
   1b1d4:	21000044 	addi	r4,r4,1
   1b1d8:	29400044 	addi	r5,r5,1
   1b1dc:	003ff706 	br	1b1bc <_gp+0xffff715c>
   1b1e0:	0005883a 	mov	r2,zero
   1b1e4:	f800283a 	ret

0001b1e8 <__register_exitproc>:
   1b1e8:	008000b4 	movhi	r2,2
   1b1ec:	10b01b04 	addi	r2,r2,-16276
   1b1f0:	10c00017 	ldw	r3,0(r2)
   1b1f4:	defff904 	addi	sp,sp,-28
   1b1f8:	dc000015 	stw	r16,0(sp)
   1b1fc:	1c000c17 	ldw	r16,48(r3)
   1b200:	dd400515 	stw	r21,20(sp)
   1b204:	dd000415 	stw	r20,16(sp)
   1b208:	dcc00315 	stw	r19,12(sp)
   1b20c:	dc800215 	stw	r18,8(sp)
   1b210:	dc400115 	stw	r17,4(sp)
   1b214:	dfc00615 	stw	ra,24(sp)
   1b218:	202b883a 	mov	r21,r4
   1b21c:	2823883a 	mov	r17,r5
   1b220:	3027883a 	mov	r19,r6
   1b224:	3825883a 	mov	r18,r7
   1b228:	1029883a 	mov	r20,r2
   1b22c:	8000021e 	bne	r16,zero,1b238 <__register_exitproc+0x50>
   1b230:	1c000d04 	addi	r16,r3,52
   1b234:	1c000c15 	stw	r16,48(r3)
   1b238:	80800117 	ldw	r2,4(r16)
   1b23c:	00c007c4 	movi	r3,31
   1b240:	1880110e 	bge	r3,r2,1b288 <__register_exitproc+0xa0>
   1b244:	00800034 	movhi	r2,0
   1b248:	10800004 	addi	r2,r2,0
   1b24c:	1000021e 	bne	r2,zero,1b258 <__register_exitproc+0x70>
   1b250:	00bfffc4 	movi	r2,-1
   1b254:	00003106 	br	1b31c <__register_exitproc+0x134>
   1b258:	01002304 	movi	r4,140
   1b25c:	00000000 	call	0 <__alt_mem_RAM-0x10000>
   1b260:	1021883a 	mov	r16,r2
   1b264:	103ffa26 	beq	r2,zero,1b250 <_gp+0xffff71f0>
   1b268:	10000115 	stw	zero,4(r2)
   1b26c:	a0800017 	ldw	r2,0(r20)
   1b270:	10c00c17 	ldw	r3,48(r2)
   1b274:	80c00015 	stw	r3,0(r16)
   1b278:	14000c15 	stw	r16,48(r2)
   1b27c:	80002215 	stw	zero,136(r16)
   1b280:	a8001d26 	beq	r21,zero,1b2f8 <__register_exitproc+0x110>
   1b284:	00000606 	br	1b2a0 <__register_exitproc+0xb8>
   1b288:	a8001b26 	beq	r21,zero,1b2f8 <__register_exitproc+0x110>
   1b28c:	80802217 	ldw	r2,136(r16)
   1b290:	1000091e 	bne	r2,zero,1b2b8 <__register_exitproc+0xd0>
   1b294:	00800034 	movhi	r2,0
   1b298:	10800004 	addi	r2,r2,0
   1b29c:	103fec26 	beq	r2,zero,1b250 <_gp+0xffff71f0>
   1b2a0:	01004204 	movi	r4,264
   1b2a4:	00000000 	call	0 <__alt_mem_RAM-0x10000>
   1b2a8:	103fe926 	beq	r2,zero,1b250 <_gp+0xffff71f0>
   1b2ac:	10004015 	stw	zero,256(r2)
   1b2b0:	10004115 	stw	zero,260(r2)
   1b2b4:	80802215 	stw	r2,136(r16)
   1b2b8:	81400117 	ldw	r5,4(r16)
   1b2bc:	01000044 	movi	r4,1
   1b2c0:	2947883a 	add	r3,r5,r5
   1b2c4:	18c7883a 	add	r3,r3,r3
   1b2c8:	10c7883a 	add	r3,r2,r3
   1b2cc:	1cc00015 	stw	r19,0(r3)
   1b2d0:	2148983a 	sll	r4,r4,r5
   1b2d4:	11404017 	ldw	r5,256(r2)
   1b2d8:	290ab03a 	or	r5,r5,r4
   1b2dc:	11404015 	stw	r5,256(r2)
   1b2e0:	1c802015 	stw	r18,128(r3)
   1b2e4:	00c00084 	movi	r3,2
   1b2e8:	a8c0031e 	bne	r21,r3,1b2f8 <__register_exitproc+0x110>
   1b2ec:	10c04117 	ldw	r3,260(r2)
   1b2f0:	1908b03a 	or	r4,r3,r4
   1b2f4:	11004115 	stw	r4,260(r2)
   1b2f8:	80800117 	ldw	r2,4(r16)
   1b2fc:	10c00044 	addi	r3,r2,1
   1b300:	10800084 	addi	r2,r2,2
   1b304:	1085883a 	add	r2,r2,r2
   1b308:	1085883a 	add	r2,r2,r2
   1b30c:	80c00115 	stw	r3,4(r16)
   1b310:	80a1883a 	add	r16,r16,r2
   1b314:	84400015 	stw	r17,0(r16)
   1b318:	0005883a 	mov	r2,zero
   1b31c:	dfc00617 	ldw	ra,24(sp)
   1b320:	dd400517 	ldw	r21,20(sp)
   1b324:	dd000417 	ldw	r20,16(sp)
   1b328:	dcc00317 	ldw	r19,12(sp)
   1b32c:	dc800217 	ldw	r18,8(sp)
   1b330:	dc400117 	ldw	r17,4(sp)
   1b334:	dc000017 	ldw	r16,0(sp)
   1b338:	dec00704 	addi	sp,sp,28
   1b33c:	f800283a 	ret
