
unite.elf:     file format elf32-littlenios2
unite.elf
architecture: nios2:r1, flags 0x00000112:
EXEC_P, HAS_SYMS, D_PAGED
start address 0x000101c0

Program Header:
    LOAD off    0x00001020 vaddr 0x00010020 paddr 0x00010020 align 2**12
         filesz 0x0000ba68 memsz 0x0000ba68 flags r-x
    LOAD off    0x0000ca88 vaddr 0x0001ba88 paddr 0x0001c090 align 2**12
         filesz 0x00000608 memsz 0x00000608 flags rw-
    LOAD off    0x0000d698 vaddr 0x0001c698 paddr 0x0001c698 align 2**12
         filesz 0x00000000 memsz 0x000002e0 flags rw-
    LOAD off    0x0000e000 vaddr 0x00021000 paddr 0x00021000 align 2**12
         filesz 0x00000020 memsz 0x00000020 flags r-x

Sections:
Idx Name          Size      VMA       LMA       File off  Algn
  0 .entry        00000020  00021000  00021000  0000e000  2**5
                  CONTENTS, ALLOC, LOAD, READONLY, CODE
  1 .exceptions   000001a0  00010020  00010020  00001020  2**2
                  CONTENTS, ALLOC, LOAD, READONLY, CODE
  2 .text         0000b180  000101c0  000101c0  000011c0  2**2
                  CONTENTS, ALLOC, LOAD, READONLY, CODE
  3 .rodata       00000748  0001b340  0001b340  0000c340  2**2
                  CONTENTS, ALLOC, LOAD, READONLY, DATA
  4 .rwdata       00000608  0001ba88  0001c090  0000ca88  2**2
                  CONTENTS, ALLOC, LOAD, DATA, SMALL_DATA
  5 .bss          000002e0  0001c698  0001c698  0000d698  2**2
                  ALLOC, SMALL_DATA
  6 .RAM          00000000  0001c978  0001c978  0000e020  2**0
                  CONTENTS
  7 .EPCS         00000000  00021020  00021020  0000e020  2**0
                  CONTENTS
  8 .comment      00000023  00000000  00000000  0000e020  2**0
                  CONTENTS, READONLY
  9 .debug_aranges 00000c98  00000000  00000000  0000e048  2**3
                  CONTENTS, READONLY, DEBUGGING
 10 .debug_info   00011647  00000000  00000000  0000ece0  2**0
                  CONTENTS, READONLY, DEBUGGING
 11 .debug_abbrev 0000629e  00000000  00000000  00020327  2**0
                  CONTENTS, READONLY, DEBUGGING
 12 .debug_line   00007c50  00000000  00000000  000265c5  2**0
                  CONTENTS, READONLY, DEBUGGING
 13 .debug_frame  00001bd0  00000000  00000000  0002e218  2**2
                  CONTENTS, READONLY, DEBUGGING
 14 .debug_str    00002f3d  00000000  00000000  0002fde8  2**0
                  CONTENTS, READONLY, DEBUGGING
 15 .debug_loc    0000d923  00000000  00000000  00032d25  2**0
                  CONTENTS, READONLY, DEBUGGING
 16 .debug_alt_sim_info 00000020  00000000  00000000  00040648  2**2
                  CONTENTS, READONLY, DEBUGGING
 17 .debug_ranges 000012e8  00000000  00000000  00040668  2**3
                  CONTENTS, READONLY, DEBUGGING
 18 .thread_model 00000003  00000000  00000000  0004448a  2**0
                  CONTENTS, READONLY
 19 .cpu          00000003  00000000  00000000  0004448d  2**0
                  CONTENTS, READONLY
 20 .qsys         00000001  00000000  00000000  00044490  2**0
                  CONTENTS, READONLY
 21 .simulation_enabled 00000001  00000000  00000000  00044491  2**0
                  CONTENTS, READONLY
 22 .sysid_hash   00000004  00000000  00000000  00044492  2**0
                  CONTENTS, READONLY
 23 .sysid_base   00000004  00000000  00000000  00044496  2**0
                  CONTENTS, READONLY
 24 .sysid_time   00000004  00000000  00000000  0004449a  2**0
                  CONTENTS, READONLY
 25 .stderr_dev   00000009  00000000  00000000  0004449e  2**0
                  CONTENTS, READONLY
 26 .stdin_dev    00000009  00000000  00000000  000444a7  2**0
                  CONTENTS, READONLY
 27 .stdout_dev   00000009  00000000  00000000  000444b0  2**0
                  CONTENTS, READONLY
 28 .sopc_system_name 0000000b  00000000  00000000  000444b9  2**0
                  CONTENTS, READONLY
 29 .quartus_project_dir 00000015  00000000  00000000  000444c4  2**0
                  CONTENTS, READONLY
 30 .jdi          00003970  00000000  00000000  000444d9  2**0
                  CONTENTS, READONLY
 31 .sopcinfo     0007c282  00000000  00000000  00047e49  2**0
                  CONTENTS, READONLY
SYMBOL TABLE:
00021000 l    d  .entry	00000000 .entry
00010020 l    d  .exceptions	00000000 .exceptions
000101c0 l    d  .text	00000000 .text
0001b340 l    d  .rodata	00000000 .rodata
0001ba88 l    d  .rwdata	00000000 .rwdata
0001c698 l    d  .bss	00000000 .bss
0001c978 l    d  .RAM	00000000 .RAM
00021020 l    d  .EPCS	00000000 .EPCS
00000000 l    d  .comment	00000000 .comment
00000000 l    d  .debug_aranges	00000000 .debug_aranges
00000000 l    d  .debug_info	00000000 .debug_info
00000000 l    d  .debug_abbrev	00000000 .debug_abbrev
00000000 l    d  .debug_line	00000000 .debug_line
00000000 l    d  .debug_frame	00000000 .debug_frame
00000000 l    d  .debug_str	00000000 .debug_str
00000000 l    d  .debug_loc	00000000 .debug_loc
00000000 l    d  .debug_alt_sim_info	00000000 .debug_alt_sim_info
00000000 l    d  .debug_ranges	00000000 .debug_ranges
00000000 l    df *ABS*	00000000 ../unite_bsp//obj/HAL/src/crt0.o
000101f8 l       .text	00000000 alt_after_alt_main
00000000 l    df *ABS*	00000000 alt_exception_entry.o
00010094 l       .exceptions	00000000 alt_exception_unknown
00000000 l    df *ABS*	00000000 alt_irq_handler.c
00000000 l    df *ABS*	00000000 ad.c
00000000 l    df *ABS*	00000000 ad9833.c
000105e0 l     F .text	0000003c AD9833_Delay
00000000 l    df *ABS*	00000000 fft.c
00000000 l    df *ABS*	00000000 hello_world.c
0001b44c l     O .rodata	0000000a __FUNCTION__.4087
0001c060 l     O .rwdata	00000005 __FUNCTION__.4111
00000000 l    df *ABS*	00000000 log.c
00000000 l    df *ABS*	00000000 message.c
00000000 l    df *ABS*	00000000 uart.c
00012118 l     F .text	00000058 uart_send_byte
00012170 l     F .text	00000060 uart_send_string
000121d0 l     F .text	0000006c uart_init
00012598 l     F .text	00000090 set_baudrate
0001223c l     F .text	00000070 uart_input_init
00012628 l     F .text	00000090 set_baudrate_input
000122ac l     F .text	00000070 uart_output_init
000126b8 l     F .text	00000090 set_baudrate_output
0001231c l     F .text	00000094 uart_ISR
000123b0 l     F .text	000000f4 uart_input_ISR
000124a4 l     F .text	000000f4 uart_output_ISR
00000000 l    df *ABS*	00000000 s_cos.c
00000000 l    df *ABS*	00000000 s_sin.c
00000000 l    df *ABS*	00000000 e_rem_pio2.c
0001b54c l     O .rodata	00000108 two_over_pi
0001b4cc l     O .rodata	00000080 npio2_hw
00000000 l    df *ABS*	00000000 k_cos.c
00000000 l    df *ABS*	00000000 k_rem_pio2.c
0001b694 l     O .rodata	00000010 init_jk
0001b654 l     O .rodata	00000040 PIo2
00000000 l    df *ABS*	00000000 k_sin.c
00000000 l    df *ABS*	00000000 s_fabs.c
00000000 l    df *ABS*	00000000 s_floor.c
00000000 l    df *ABS*	00000000 s_scalbn.c
00000000 l    df *ABS*	00000000 s_copysign.c
00000000 l    df *ABS*	00000000 libgcc2.c
00000000 l    df *ABS*	00000000 lib2-divmod.c
00000000 l    df *ABS*	00000000 addsf3.c
00000000 l    df *ABS*	00000000 divsf3.c
00000000 l    df *ABS*	00000000 mulsf3.c
00000000 l    df *ABS*	00000000 subsf3.c
00000000 l    df *ABS*	00000000 fixsfsi.c
00000000 l    df *ABS*	00000000 floatsisf.c
00000000 l    df *ABS*	00000000 adddf3.c
00000000 l    df *ABS*	00000000 divdf3.c
00000000 l    df *ABS*	00000000 eqdf2.c
00000000 l    df *ABS*	00000000 gedf2.c
00000000 l    df *ABS*	00000000 muldf3.c
00000000 l    df *ABS*	00000000 subdf3.c
00000000 l    df *ABS*	00000000 fixdfsi.c
00000000 l    df *ABS*	00000000 floatsidf.c
00000000 l    df *ABS*	00000000 floatunsidf.c
00000000 l    df *ABS*	00000000 extendsfdf2.c
00000000 l    df *ABS*	00000000 truncdfsf2.c
00000000 l    df *ABS*	00000000 libgcc2.c
00000000 l    df *ABS*	00000000 libgcc2.c
00000000 l    df *ABS*	00000000 atoi.c
00000000 l    df *ABS*	00000000 exit.c
00000000 l    df *ABS*	00000000 memcpy.c
00000000 l    df *ABS*	00000000 memset.c
00000000 l    df *ABS*	00000000 printf.c
00000000 l    df *ABS*	00000000 putchar.c
00000000 l    df *ABS*	00000000 puts.c
00000000 l    df *ABS*	00000000 sprintf.c
00000000 l    df *ABS*	00000000 strchr.c
00000000 l    df *ABS*	00000000 strlen.c
00000000 l    df *ABS*	00000000 strstr.c
00000000 l    df *ABS*	00000000 strtol.c
00000000 l    df *ABS*	00000000 vfprintf.c
00018c8c l     F .text	0000006c print_repeat
00000000 l    df *ABS*	00000000 vfprintf.c
00019238 l     F .text	0000006c print_repeat
00000000 l    df *ABS*	00000000 __call_atexit.c
00000000 l    df *ABS*	00000000 ctype_.c
0001b8a9 l     O .rodata	00000180 _ctype_b
00000000 l    df *ABS*	00000000 fvwrite_small_dev.c
00000000 l    df *ABS*	00000000 fvwrite_small_str.c
00000000 l    df *ABS*	00000000 impure.c
0001bd28 l     O .rwdata	000000e0 impure_data
00000000 l    df *ABS*	00000000 memmove.c
00000000 l    df *ABS*	00000000 putc.c
00000000 l    df *ABS*	00000000 writer.c
00000000 l    df *ABS*	00000000 int_errno.c
00000000 l    df *ABS*	00000000 alt_exit.c
00000000 l    df *ABS*	00000000 alt_iic.c
00000000 l    df *ABS*	00000000 alt_iic_isr_register.c
00000000 l    df *ABS*	00000000 alt_irq_vars.c
00000000 l    df *ABS*	00000000 alt_load.c
00019f0c l     F .text	00000068 alt_load_section
00000000 l    df *ABS*	00000000 alt_main.c
00000000 l    df *ABS*	00000000 alt_write.c
0001a074 l     F .text	0000003c alt_get_errno
00000000 l    df *ABS*	00000000 alt_sys_init.c
0001a1a8 l     F .text	00000034 alt_dev_reg
0001be08 l     O .rwdata	0000002c JTAG_UART
0001be34 l     O .rwdata	0000002c UART
0001be60 l     O .rwdata	0000002c uart_input
0001be8c l     O .rwdata	0000002c uart_output
00000000 l    df *ABS*	00000000 altera_avalon_jtag_uart_fd.c
00000000 l    df *ABS*	00000000 altera_avalon_jtag_uart_read.c
00000000 l    df *ABS*	00000000 altera_avalon_jtag_uart_write.c
00000000 l    df *ABS*	00000000 altera_avalon_uart_fd.c
00000000 l    df *ABS*	00000000 altera_avalon_uart_read.c
0001a574 l     F .text	0000003c alt_get_errno
00000000 l    df *ABS*	00000000 altera_avalon_uart_write.c
0001a674 l     F .text	0000003c alt_get_errno
00000000 l    df *ABS*	00000000 alt_close.c
0001a790 l     F .text	0000003c alt_get_errno
00000000 l    df *ABS*	00000000 alt_dcache_flush_all.c
00000000 l    df *ABS*	00000000 alt_dev.c
0001a8bc l     F .text	0000002c alt_dev_null_write
00000000 l    df *ABS*	00000000 alt_dev_llist_insert.c
0001a8e8 l     F .text	0000003c alt_get_errno
00000000 l    df *ABS*	00000000 alt_do_ctors.c
00000000 l    df *ABS*	00000000 alt_do_dtors.c
00000000 l    df *ABS*	00000000 alt_errno.c
00000000 l    df *ABS*	00000000 alt_icache_flush_all.c
00000000 l    df *ABS*	00000000 alt_io_redirect.c
0001aabc l     F .text	000000c4 alt_open_fd
00000000 l    df *ABS*	00000000 alt_open.c
0001abfc l     F .text	0000003c alt_get_errno
0001ac38 l     F .text	000000c4 alt_file_locked
00000000 l    df *ABS*	00000000 alt_release_fd.c
00000000 l    df *ABS*	00000000 altera_nios2_qsys_irq.c
00000000 l    df *ABS*	00000000 alt_find_dev.c
00000000 l    df *ABS*	00000000 alt_find_file.c
00000000 l    df *ABS*	00000000 alt_get_fd.c
00000000 l    df *ABS*	00000000 alt_icache_flush.c
00000000 l    df *ABS*	00000000 atexit.c
00000000 l    df *ABS*	00000000 memcmp.c
00000000 l    df *ABS*	00000000 __atexit.c
00018828 g     F .text	0000001c putchar
0001061c g     F .text	00000158 AD9833_Write
00019ff8 g     F .text	0000007c alt_main
00018844 g     F .text	00000080 _puts_r
0001c878 g     O .bss	00000100 alt_irq
00014590 g     F .text	00000014 fabs
0001c090 g       *ABS*	00000000 __flash_rwdata_start
00017080 g     F .text	00000088 .hidden __eqdf2
000187d4 g     F .text	0000004c printf
0001c7dc g     O .bss	00000018 Result
00010320 g     F .text	00000150 ReadAdRes
00015038 g     F .text	00000440 .hidden __divsf3
00019ad4 g     F .text	00000060 memmove
00015d58 g     F .text	00000070 .hidden __fixsfsi
00017108 g     F .text	000000dc .hidden __gtdf2
0001c7c8 g     O .bss	00000014 ReceiveMessage
00019a2c g     F .text	000000a8 __sfvwrite_small_str
00021000 g     F .entry	0000001c __reset
0001c7b0 g     O .bss	00000018 FInfo
00010020 g       *ABS*	00000000 __flash_exceptions_start
0001c69c g     O .bss	00000004 errno
000145a4 g     F .text	000001ec floor
0001c6a8 g     O .bss	00000004 alt_argv
00024060 g       *ABS*	00000000 _gp
00015874 g     F .text	000004e4 .hidden __subsf3
0001c730 g     O .bss	00000080 output
0001bee0 g     O .rwdata	00000180 alt_fd_list
00012924 g     F .text	0000076c __ieee754_rem_pio2
00018820 g     F .text	00000008 _putchar_r
0001bc48 g     O .rwdata	000000e0 uart_output
0001aed8 g     F .text	00000090 alt_find_dev
00018750 g     F .text	00000028 memcpy
000105b0 g     F .text	00000030 AD9833_Init_GPIO
00018278 g     F .text	000000dc .hidden __floatsidf
0001ab80 g     F .text	0000007c alt_io_redirect
0001b340 g       *ABS*	00000000 __DTOR_END__
000188c4 g     F .text	00000014 puts
0001a334 g     F .text	000000ec altera_avalon_jtag_uart_read
00018798 g     F .text	0000003c _printf_r
00014ab4 g     F .text	00000064 .hidden __udivsi3
00013090 g     F .text	000004a4 __kernel_cos
00014948 g     F .text	00000074 .hidden __fixunsdfsi
0001b114 g     F .text	00000090 alt_icache_flush
0001c6b0 g     O .bss	00000080 input
0001c088 g     O .rwdata	00000004 alt_max_fd
00011be8 g     F .text	0000029c log_hex
000142c4 g     F .text	000002cc __kernel_sin
000183fc g     F .text	00000110 .hidden __extendsfdf2
00015eec g     F .text	000008ac .hidden __adddf3
000111bc g     F .text	00000028 getBeginMessge
0001c06c g     O .rwdata	00000004 _global_impure_ptr
0001c978 g       *ABS*	00000000 __bss_end
00019e1c g     F .text	000000f0 alt_iic_isr_register
00018354 g     F .text	000000a8 .hidden __floatunsidf
00010e6c g     F .text	00000350 FFT
00019dd0 g     F .text	0000004c alt_ic_irq_enabled
00018c70 g     F .text	0000001c strtol
0001c6a0 g     O .bss	00000004 alt_irq_active
00010c98 g     F .text	000001d4 FFT_remap
000100ec g     F .exceptions	000000d4 alt_irq_handler
0001beb8 g     O .rwdata	00000028 alt_dev_null
000109c4 g     F .text	0000008c Sub_Complex
00013534 g     F .text	00000d90 __kernel_rem_pio2
0001a89c g     F .text	00000020 alt_dcache_flush_all
000181f8 g     F .text	00000080 .hidden __fixdfsi
0001c090 g       *ABS*	00000000 __ram_rwdata_end
0001c080 g     O .rwdata	00000008 alt_dev_list
0001a0b0 g     F .text	000000f8 write
00019b88 g     F .text	00000058 _putc_r
0001ba88 g       *ABS*	00000000 __ram_rodata_end
000111e4 g     F .text	000002d4 setDDSFre
00014b18 g     F .text	00000058 .hidden __umodsi3
0001c978 g       *ABS*	00000000 end
00018724 g     F .text	0000000c _atoi_r
0001a6b0 g     F .text	000000e0 altera_avalon_uart_write
0001b340 g       *ABS*	00000000 __CTOR_LIST__
0001cf08 g       *ABS*	00000000 __alt_stack_pointer
0001a514 g     F .text	00000060 altera_avalon_uart_write_fd
000186b4 g     F .text	00000064 .hidden __clzsi2
00010470 g     F .text	00000140 computeAd
0001a420 g     F .text	00000094 altera_avalon_jtag_uart_write
00012748 g     F .text	000000ec cos
000192a4 g     F .text	00000524 ___vfprintf_internal_r
000188d8 g     F .text	00000064 _sprintf_r
000197e4 g     F .text	00000190 __call_exitprocs
000114b8 g     F .text	00000028 testIsOver
000101c0 g     F .text	0000003c _start
00018a00 g     F .text	00000060 strstr
00012834 g     F .text	000000f0 sin
0001a214 g     F .text	00000060 alt_sys_init
00015dc8 g     F .text	00000124 .hidden __floatsisf
0001b1e8 g     F .text	00000158 __register_exitproc
00011e84 g     F .text	00000054 getStartMessge
0001ba88 g       *ABS*	00000000 __ram_rwdata_start
0001b340 g       *ABS*	00000000 __ram_rodata_start
0001a274 g     F .text	00000060 altera_avalon_jtag_uart_read_fd
0001b070 g     F .text	000000a4 alt_get_fd
0001b1b8 g     F .text	00000030 memcmp
0001c978 g       *ABS*	00000000 __alt_stack_base
000117fc g     F .text	00000064 init
00016798 g     F .text	000008e8 .hidden __divdf3
00011ed8 g     F .text	00000240 parseMessage
000171e4 g     F .text	00000718 .hidden __muldf3
0001af68 g     F .text	00000108 alt_find_file
00021000 g       *ABS*	00000000 __alt_mem_EPCS
0001a924 g     F .text	000000a4 alt_dev_llist_insert
00018cf8 g     F .text	00000524 ___svfprintf_internal_r
000101fc g     F .text	00000124 parseAdData
00019974 g     F .text	000000b8 __sfvwrite_small_dev
0001c698 g       *ABS*	00000000 __bss_start
00018778 g     F .text	00000020 memset
00011940 g     F .text	00000268 main
00010000 g       *ABS*	00000000 __alt_mem_RAM
0001c6ac g     O .bss	00000004 alt_envp
0001a2d4 g     F .text	00000060 altera_avalon_jtag_uart_write_fd
00018a60 g     F .text	00000210 _strtol_r
0001850c g     F .text	000001a8 .hidden __truncdfsf2
0001c08c g     O .rwdata	00000004 alt_errno
00019b34 g     F .text	00000054 putc
000149bc g     F .text	00000084 .hidden __divsi3
0001b340 g       *ABS*	00000000 __CTOR_END__
00015478 g     F .text	000003fc .hidden __mulsf3
0001b340 g       *ABS*	00000000 __flash_rodata_start
0001b340 g       *ABS*	00000000 __DTOR_LIST__
0001492c g     F .text	0000001c copysign
00011ba8 g     F .text	00000040 delay
00010a50 g     F .text	00000104 Multy_Complex
00017080 g     F .text	00000088 .hidden __nedf2
0001a1dc g     F .text	00000038 alt_irq_init
0001ae50 g     F .text	00000064 alt_release_fd
0001893c g     F .text	00000078 sprintf
0001b6a4 g     O .rodata	00000100 .hidden __clz_tab
0001b1a4 g     F .text	00000014 atexit
00019be0 g     F .text	00000058 _write_r
0001c070 g     O .rwdata	00000004 _impure_ptr
0001c6a4 g     O .bss	00000004 alt_argc
00010b54 g     F .text	00000144 getWN
00014790 g     F .text	0000019c scalbn
0001aa28 g     F .text	00000060 _do_dtors
00010020 g       .exceptions	00000000 alt_irq_entry
0001bb68 g     O .rwdata	000000e0 uart_input
0001c078 g     O .rwdata	00000008 alt_fs_list
0001921c g     F .text	0000001c __vfprintf_internal_unused
00011608 g     F .text	000001ac sendMessage
00011860 g     F .text	00000030 show
0001c7f4 g     O .bss	00000041 outputData
00010020 g       *ABS*	00000000 __ram_exceptions_start
00011890 g     F .text	000000b0 msg_proc
00019c6c g     F .text	00000050 alt_ic_isr_register
00010938 g     F .text	0000008c Add_Complex
0001c090 g       *ABS*	00000000 _edata
0001a4b4 g     F .text	00000060 altera_avalon_uart_read_fd
0001c978 g       *ABS*	00000000 _end
000101c0 g       *ABS*	00000000 __ram_exceptions_end
00019d44 g     F .text	0000008c alt_ic_irq_disable
0001aeb4 g     F .text	00000024 altera_nios2_qsys_irq_init
000117b4 g     F .text	00000048 sampleIsReady
00018730 g     F .text	00000020 exit
00014a40 g     F .text	00000074 .hidden __modsi3
0001c068 g     O .rwdata	00000004 __ctype_ptr__
0001cf08 g       *ABS*	00000000 __alt_data_end
00010020 g     F .exceptions	00000000 alt_exception
0001ba88 g     O .rwdata	000000e0 uart
00018718 g     F .text	0000000c atoi
0001b7a8 g     O .rodata	00000101 _ctype_
00019c38 g     F .text	00000034 _exit
000189e4 g     F .text	0000001c strlen
0001acfc g     F .text	00000154 open
00017108 g     F .text	000000dc .hidden __gedf2
000114e0 g     F .text	00000128 beginFFT
0001aa88 g     F .text	00000034 alt_icache_flush_all
000189b4 g     F .text	00000030 strchr
0001c074 g     O .rwdata	00000004 alt_priority_mask
00019cbc g     F .text	00000088 alt_ic_irq_enable
00010774 g     F .text	000001c4 AD9833_WaveSeting
000197c8 g     F .text	0000001c __vfprintf_internal
0001a5b0 g     F .text	000000c4 altera_avalon_uart_read
000178fc g     F .text	000008fc .hidden __subdf3
0001a9c8 g     F .text	00000060 _do_ctors
0001c835 g     O .bss	00000041 inputData
0001a7cc g     F .text	000000d0 close
00014b70 g     F .text	000004c8 .hidden __addsf3
00019f74 g     F .text	00000084 alt_load
0001c698 g     O .bss	00000004 value



Disassembly of section .entry:

00021000 <__reset>:
#if NIOS2_ICACHE_SIZE > 0 && defined(ALT_ALLOW_CODE_AT_RESET) && !defined(ALT_SIM_OPTIMIZE)
    /* Assume the instruction cache size is always a power of two. */
#if NIOS2_ICACHE_SIZE > 0x8000
    movhi r2, %hi(NIOS2_ICACHE_SIZE)
#else
    movui r2, NIOS2_ICACHE_SIZE
   21000:	00840014 	movui	r2,4096
#endif

0:
    initi r2
   21004:	1001483a 	initi	r2
    addi r2, r2, -NIOS2_ICACHE_LINE_SIZE
   21008:	10bff804 	addi	r2,r2,-32
    bgt r2, zero, 0b
   2100c:	00bffd16 	blt	zero,r2,21004 <_gp+0xffffcfa4>
 * Jump to the _start entry point in the .text section if reset code
 * is allowed or if optimizing for RTL simulation.
 */
#if defined(ALT_ALLOW_CODE_AT_RESET) || defined(ALT_SIM_OPTIMIZE)
    /* Jump to the _start entry point in the .text section. */
    movhi r1, %hi(_start)
   21010:	00400074 	movhi	at,1
    ori r1, r1, %lo(_start)
   21014:	08407014 	ori	at,at,448
    jmp r1
   21018:	0800683a 	jmp	at
   2101c:	00000000 	call	0 <__alt_mem_RAM-0x10000>

Disassembly of section .exceptions:

00010020 <alt_exception>:

#else /* ALT_EXCEPTION_STACK disabled */
        /* 
         * Reserve space on normal stack for registers about to be pushed.
         */
        addi  sp, sp, -76
   10020:	deffed04 	addi	sp,sp,-76
         * documentation for details).
         *
         * Leave a gap in the stack frame at 4(sp) for the muldiv handler to
         * store zero into.
         */
        stw   ra,  0(sp)
   10024:	dfc00015 	stw	ra,0(sp)
        stw   r1,   8(sp)
   10028:	d8400215 	stw	at,8(sp)
        stw   r2,  12(sp)
   1002c:	d8800315 	stw	r2,12(sp)
        stw   r3,  16(sp)
   10030:	d8c00415 	stw	r3,16(sp)
        stw   r4,  20(sp)
   10034:	d9000515 	stw	r4,20(sp)
        stw   r5,  24(sp)
   10038:	d9400615 	stw	r5,24(sp)
        stw   r6,  28(sp)
   1003c:	d9800715 	stw	r6,28(sp)
        stw   r7,  32(sp)
   10040:	d9c00815 	stw	r7,32(sp)
        rdctl r5, estatus   /* Read early to avoid usage stall */
   10044:	000b307a 	rdctl	r5,estatus
        stw   r8,  36(sp)
   10048:	da000915 	stw	r8,36(sp)
        stw   r9,  40(sp)
   1004c:	da400a15 	stw	r9,40(sp)
        stw   r10, 44(sp)
   10050:	da800b15 	stw	r10,44(sp)
        stw   r11, 48(sp)
   10054:	dac00c15 	stw	r11,48(sp)
        stw   r12, 52(sp)
   10058:	db000d15 	stw	r12,52(sp)
        stw   r13, 56(sp)
   1005c:	db400e15 	stw	r13,56(sp)
        stw   r14, 60(sp)
   10060:	db800f15 	stw	r14,60(sp)
        stw   r15, 64(sp)
   10064:	dbc01015 	stw	r15,64(sp)
        /*
         * ea-4 contains the address of the instruction being executed
         * when the exception occured. For interrupt exceptions, we will
         * will be re-issue the isntruction. Store it in 72(sp)
         */
        stw   r5,  68(sp)  /* estatus */
   10068:	d9401115 	stw	r5,68(sp)
        addi  r15, ea, -4  /* instruction that caused exception */
   1006c:	ebffff04 	addi	r15,ea,-4
        stw   r15,  72(sp)
   10070:	dbc01215 	stw	r15,72(sp)
#else
        /*
         * Test to see if the exception was a software exception or caused 
         * by an external interrupt, and vector accordingly.
         */
        rdctl r4, ipending
   10074:	0009313a 	rdctl	r4,ipending
        andi  r2, r5, 1
   10078:	2880004c 	andi	r2,r5,1
        beq   r2, zero, .Lnot_irq
   1007c:	10000326 	beq	r2,zero,1008c <alt_exception+0x6c>
        beq   r4, zero, .Lnot_irq
   10080:	20000226 	beq	r4,zero,1008c <alt_exception+0x6c>
        /*
         * Now that all necessary registers have been preserved, call 
         * alt_irq_handler() to process the interrupts.
         */

        call alt_irq_handler
   10084:	00100ec0 	call	100ec <alt_irq_handler>

        .section .exceptions.irqreturn, "xa"

        br    .Lexception_exit
   10088:	00000306 	br	10098 <alt_exception_unknown+0x4>
         * upon completion, so we write ea (address of instruction *after*
         * the one where the exception occured) into 72(sp). The actual
         * instruction that caused the exception is written in r2, which these
         * handlers will utilize.
         */
        stw   ea,  72(sp)  /* Don't re-issue */
   1008c:	df401215 	stw	ea,72(sp)
        ldw   r2, -4(ea)   /* Instruction that caused exception */
   10090:	e8bfff17 	ldw	r2,-4(ea)

00010094 <alt_exception_unknown>:
#ifdef NIOS2_HAS_DEBUG_STUB
       /*
        *  Either tell the user now (if there is a debugger attached) or go into
        *  the debug monitor which will loop until a debugger is attached.
        */
        break
   10094:	003da03a 	break	0
        /* 
         * Restore the saved registers, so that all general purpose registers 
         * have been restored to their state at the time the interrupt occured.
         */

        ldw   r5,  68(sp)
   10098:	d9401117 	ldw	r5,68(sp)
        ldw   ea,  72(sp)  /* This becomes the PC once eret is executed */
   1009c:	df401217 	ldw	ea,72(sp)
        ldw   ra,   0(sp)
   100a0:	dfc00017 	ldw	ra,0(sp)

        wrctl estatus, r5
   100a4:	2801707a 	wrctl	estatus,r5

        ldw   r1,   8(sp)
   100a8:	d8400217 	ldw	at,8(sp)
        ldw   r2,  12(sp)
   100ac:	d8800317 	ldw	r2,12(sp)
        ldw   r3,  16(sp)
   100b0:	d8c00417 	ldw	r3,16(sp)
        ldw   r4,  20(sp)
   100b4:	d9000517 	ldw	r4,20(sp)
        ldw   r5,  24(sp)
   100b8:	d9400617 	ldw	r5,24(sp)
        ldw   r6,  28(sp)
   100bc:	d9800717 	ldw	r6,28(sp)
        ldw   r7,  32(sp)
   100c0:	d9c00817 	ldw	r7,32(sp)

#if defined(ALT_EXCEPTION_STACK) && defined(ALT_STACK_CHECK)
        ldw   et, %gprel(alt_exception_old_stack_limit)(gp)
#endif

        ldw   r8,  36(sp)
   100c4:	da000917 	ldw	r8,36(sp)
        ldw   r9,  40(sp)
   100c8:	da400a17 	ldw	r9,40(sp)
        ldw   r10, 44(sp)
   100cc:	da800b17 	ldw	r10,44(sp)
        ldw   r11, 48(sp)
   100d0:	dac00c17 	ldw	r11,48(sp)
        ldw   r12, 52(sp)
   100d4:	db000d17 	ldw	r12,52(sp)
        ldw   r13, 56(sp)
   100d8:	db400e17 	ldw	r13,56(sp)
        ldw   r14, 60(sp)
   100dc:	db800f17 	ldw	r14,60(sp)
        ldw   r15, 64(sp)
   100e0:	dbc01017 	ldw	r15,64(sp)
        stw   et, %gprel(alt_stack_limit_value)(gp)
        stw   zero, %gprel(alt_exception_old_stack_limit)(gp)
#endif /* ALT_STACK_CHECK */
        ldw   sp,  76(sp)
#else /* ALT_EXCEPTION_STACK disabled */
        addi  sp, sp, 76
   100e4:	dec01304 	addi	sp,sp,76

        /*
         * Return to the interrupted instruction.
         */

        eret
   100e8:	ef80083a 	eret

000100ec <alt_irq_handler>:
 * instruction is present if the macro ALT_CI_INTERRUPT_VECTOR defined.
 */

void alt_irq_handler (void) __attribute__ ((section (".exceptions")));
void alt_irq_handler (void)
{
   100ec:	defff904 	addi	sp,sp,-28
   100f0:	dfc00615 	stw	ra,24(sp)
   100f4:	df000515 	stw	fp,20(sp)
   100f8:	df000504 	addi	fp,sp,20
  
  /*
   * Notify the operating system that we are at interrupt level.
   */ 
  
  ALT_OS_INT_ENTER();
   100fc:	0001883a 	nop
#ifndef NIOS2_EIC_PRESENT
static ALT_INLINE alt_u32 ALT_ALWAYS_INLINE alt_irq_pending (void)
{
  alt_u32 active;

  NIOS2_READ_IPENDING (active);
   10100:	0005313a 	rdctl	r2,ipending
   10104:	e0bffe15 	stw	r2,-8(fp)

  return active;
   10108:	e0bffe17 	ldw	r2,-8(fp)
   * Consider the case where the high priority interupt is asserted during
   * the interrupt entry sequence for a lower priority interrupt to see why
   * this is the case.
   */

  active = alt_irq_pending ();
   1010c:	e0bffb15 	stw	r2,-20(fp)

  do
  {
    i = 0;
   10110:	e03ffd15 	stw	zero,-12(fp)
    mask = 1;
   10114:	00800044 	movi	r2,1
   10118:	e0bffc15 	stw	r2,-16(fp)
     * called to clear the interrupt condition.
     */

    do
    {
      if (active & mask)
   1011c:	e0fffb17 	ldw	r3,-20(fp)
   10120:	e0bffc17 	ldw	r2,-16(fp)
   10124:	1884703a 	and	r2,r3,r2
   10128:	10001426 	beq	r2,zero,1017c <alt_irq_handler+0x90>
      { 
#ifdef ALT_ENHANCED_INTERRUPT_API_PRESENT
        alt_irq[i].handler(alt_irq[i].context); 
   1012c:	008000b4 	movhi	r2,2
   10130:	10b21e04 	addi	r2,r2,-14216
   10134:	e0fffd17 	ldw	r3,-12(fp)
   10138:	180690fa 	slli	r3,r3,3
   1013c:	10c5883a 	add	r2,r2,r3
   10140:	10c00017 	ldw	r3,0(r2)
   10144:	008000b4 	movhi	r2,2
   10148:	10b21e04 	addi	r2,r2,-14216
   1014c:	e13ffd17 	ldw	r4,-12(fp)
   10150:	200890fa 	slli	r4,r4,3
   10154:	1105883a 	add	r2,r2,r4
   10158:	10800104 	addi	r2,r2,4
   1015c:	10800017 	ldw	r2,0(r2)
   10160:	1009883a 	mov	r4,r2
   10164:	183ee83a 	callr	r3
#else
        alt_irq[i].handler(alt_irq[i].context, i); 
#endif
        break;
   10168:	0001883a 	nop
#ifndef NIOS2_EIC_PRESENT
static ALT_INLINE alt_u32 ALT_ALWAYS_INLINE alt_irq_pending (void)
{
  alt_u32 active;

  NIOS2_READ_IPENDING (active);
   1016c:	0005313a 	rdctl	r2,ipending
   10170:	e0bfff15 	stw	r2,-4(fp)

  return active;
   10174:	e0bfff17 	ldw	r2,-4(fp)
   10178:	00000706 	br	10198 <alt_irq_handler+0xac>
      }
      mask <<= 1;
   1017c:	e0bffc17 	ldw	r2,-16(fp)
   10180:	1085883a 	add	r2,r2,r2
   10184:	e0bffc15 	stw	r2,-16(fp)
      i++;
   10188:	e0bffd17 	ldw	r2,-12(fp)
   1018c:	10800044 	addi	r2,r2,1
   10190:	e0bffd15 	stw	r2,-12(fp)

    } while (1);
   10194:	003fe106 	br	1011c <_gp+0xfffec0bc>

    active = alt_irq_pending ();
   10198:	e0bffb15 	stw	r2,-20(fp)
    
  } while (active);
   1019c:	e0bffb17 	ldw	r2,-20(fp)
   101a0:	103fdb1e 	bne	r2,zero,10110 <_gp+0xfffec0b0>

  /*
   * Notify the operating system that interrupt processing is complete.
   */ 

  ALT_OS_INT_EXIT();
   101a4:	0001883a 	nop
}
   101a8:	0001883a 	nop
   101ac:	e037883a 	mov	sp,fp
   101b0:	dfc00117 	ldw	ra,4(sp)
   101b4:	df000017 	ldw	fp,0(sp)
   101b8:	dec00204 	addi	sp,sp,8
   101bc:	f800283a 	ret

Disassembly of section .text:

000101c0 <_start>:

    /*
     * Now that the caches are initialized, set up the stack pointer and global pointer.
     * The values provided by the linker are assumed to be correctly aligned.
     */
    movhi sp, %hi(__alt_stack_pointer)
   101c0:	06c00074 	movhi	sp,1
    ori sp, sp, %lo(__alt_stack_pointer)
   101c4:	def3c214 	ori	sp,sp,53000
    movhi gp, %hi(_gp)
   101c8:	068000b4 	movhi	gp,2
    ori gp, gp, %lo(_gp)
   101cc:	d6901814 	ori	gp,gp,16480
 */
#ifndef ALT_SIM_OPTIMIZE
    /* Log that the BSS is about to be cleared. */
    ALT_LOG_PUTS(alt_log_msg_bss)

    movhi r2, %hi(__bss_start)
   101d0:	00800074 	movhi	r2,1
    ori r2, r2, %lo(__bss_start)
   101d4:	10b1a614 	ori	r2,r2,50840

    movhi r3, %hi(__bss_end)
   101d8:	00c00074 	movhi	r3,1
    ori r3, r3, %lo(__bss_end)
   101dc:	18f25e14 	ori	r3,r3,51576

    beq r2, r3, 1f
   101e0:	10c00326 	beq	r2,r3,101f0 <_start+0x30>

0:
    stw zero, (r2)
   101e4:	10000015 	stw	zero,0(r2)
    addi r2, r2, 4
   101e8:	10800104 	addi	r2,r2,4
    bltu r2, r3, 0b
   101ec:	10fffd36 	bltu	r2,r3,101e4 <_gp+0xfffec184>
     * section aren't defined until alt_load() has been called).
     */
    mov   et, zero
#endif

    call alt_load
   101f0:	0019f740 	call	19f74 <alt_load>

    /* Log that alt_main is about to be called. */
    ALT_LOG_PUTS(alt_log_msg_alt_main)

    /* Call the C entry point. It should never return. */
    call alt_main
   101f4:	0019ff80 	call	19ff8 <alt_main>

000101f8 <alt_after_alt_main>:

    /* Wait in infinite loop in case alt_main does return. */
alt_after_alt_main:
    br alt_after_alt_main
   101f8:	003fff06 	br	101f8 <_gp+0xfffec198>

000101fc <parseAdData>:
 */

#include "ad.h"
#include "log.h"
void parseAdData(float *input, unsigned char * source)
{
   101fc:	defff604 	addi	sp,sp,-40
   10200:	dfc00915 	stw	ra,36(sp)
   10204:	df000815 	stw	fp,32(sp)
   10208:	dc000715 	stw	r16,28(sp)
   1020c:	df000804 	addi	fp,sp,32
   10210:	e13ffd15 	stw	r4,-12(fp)
   10214:	e17ffe15 	stw	r5,-8(fp)
	int i;
	int j = 0;
   10218:	e03ff915 	stw	zero,-28(fp)
	int data = 0;
   1021c:	e03ffa15 	stw	zero,-24(fp)
//	LOG_DEBUG("data:");
	for (i = 0; i < 32; i ++)
   10220:	e03ff815 	stw	zero,-32(fp)
   10224:	00003406 	br	102f8 <parseAdData+0xfc>
	{
		unsigned char low = source[j];
   10228:	e0bff917 	ldw	r2,-28(fp)
   1022c:	e0fffe17 	ldw	r3,-8(fp)
   10230:	1885883a 	add	r2,r3,r2
   10234:	10800003 	ldbu	r2,0(r2)
   10238:	e0bffb05 	stb	r2,-20(fp)
		unsigned char high = source[j+1];
   1023c:	e0bff917 	ldw	r2,-28(fp)
   10240:	10800044 	addi	r2,r2,1
   10244:	e0fffe17 	ldw	r3,-8(fp)
   10248:	1885883a 	add	r2,r3,r2
   1024c:	10800003 	ldbu	r2,0(r2)
   10250:	e0bffb45 	stb	r2,-19(fp)
		unsigned int result = high;
   10254:	e0bffb43 	ldbu	r2,-19(fp)
   10258:	e0bffc15 	stw	r2,-16(fp)
		result = result << 8;
   1025c:	e0bffc17 	ldw	r2,-16(fp)
   10260:	1004923a 	slli	r2,r2,8
   10264:	e0bffc15 	stw	r2,-16(fp)
		result = result | low;
   10268:	e0bffb03 	ldbu	r2,-20(fp)
   1026c:	e0fffc17 	ldw	r3,-16(fp)
   10270:	1884b03a 	or	r2,r3,r2
   10274:	e0bffc15 	stw	r2,-16(fp)
		input[i] = computeAd(result);
   10278:	e0bff817 	ldw	r2,-32(fp)
   1027c:	1085883a 	add	r2,r2,r2
   10280:	1085883a 	add	r2,r2,r2
   10284:	1007883a 	mov	r3,r2
   10288:	e0bffd17 	ldw	r2,-12(fp)
   1028c:	10e1883a 	add	r16,r2,r3
   10290:	e0bffc17 	ldw	r2,-16(fp)
   10294:	1009883a 	mov	r4,r2
   10298:	00104700 	call	10470 <computeAd>
   1029c:	1007883a 	mov	r3,r2
   102a0:	80c00015 	stw	r3,0(r16)
		j += 2;
   102a4:	e0bff917 	ldw	r2,-28(fp)
   102a8:	10800084 	addi	r2,r2,2
   102ac:	e0bff915 	stw	r2,-28(fp)
		data = input[i] * 1000;
   102b0:	e0bff817 	ldw	r2,-32(fp)
   102b4:	1085883a 	add	r2,r2,r2
   102b8:	1085883a 	add	r2,r2,r2
   102bc:	1007883a 	mov	r3,r2
   102c0:	e0bffd17 	ldw	r2,-12(fp)
   102c4:	10c5883a 	add	r2,r2,r3
   102c8:	10c00017 	ldw	r3,0(r2)
   102cc:	01511eb4 	movhi	r5,17530
   102d0:	1809883a 	mov	r4,r3
   102d4:	00154780 	call	15478 <__mulsf3>
   102d8:	1007883a 	mov	r3,r2
   102dc:	1805883a 	mov	r2,r3
   102e0:	1009883a 	mov	r4,r2
   102e4:	0015d580 	call	15d58 <__fixsfsi>
   102e8:	e0bffa15 	stw	r2,-24(fp)
{
	int i;
	int j = 0;
	int data = 0;
//	LOG_DEBUG("data:");
	for (i = 0; i < 32; i ++)
   102ec:	e0bff817 	ldw	r2,-32(fp)
   102f0:	10800044 	addi	r2,r2,1
   102f4:	e0bff815 	stw	r2,-32(fp)
   102f8:	e0bff817 	ldw	r2,-32(fp)
   102fc:	10800810 	cmplti	r2,r2,32
   10300:	103fc91e 	bne	r2,zero,10228 <_gp+0xfffec1c8>
		j += 2;
		data = input[i] * 1000;
//		printf("%d ", data);
	}
//	printf("\r\n");
}
   10304:	0001883a 	nop
   10308:	e6ffff04 	addi	sp,fp,-4
   1030c:	dfc00217 	ldw	ra,8(sp)
   10310:	df000117 	ldw	fp,4(sp)
   10314:	dc000017 	ldw	r16,0(sp)
   10318:	dec00304 	addi	sp,sp,12
   1031c:	f800283a 	ret

00010320 <ReadAdRes>:
 * 调用函数可读取AD转换结果（二补数），并返回其真实值
 * 参数说明：
 * BASE为相应AD模块数据位链接的并行IO口的基地址
 */
float ReadAdRes(int BASE)
{
   10320:	defffa04 	addi	sp,sp,-24
   10324:	dfc00515 	stw	ra,20(sp)
   10328:	df000415 	stw	fp,16(sp)
   1032c:	df000404 	addi	fp,sp,16
   10330:	e13fff15 	stw	r4,-4(fp)
    float Res = 0;                              //待计算的AD结果
   10334:	e03ffc15 	stw	zero,-16(fp)
	int databits = 0;                           //AD结果数值位
   10338:	e03ffd15 	stw	zero,-12(fp)
	int DVolt = 0;                              //ADC得到二补数结果
   1033c:	e03ffe15 	stw	zero,-8(fp)
	DVolt = IORD_ALTERA_AVALON_PIO_DATA(BASE);
   10340:	e0bfff17 	ldw	r2,-4(fp)
   10344:	10800037 	ldwio	r2,0(r2)
   10348:	e0bffe15 	stw	r2,-8(fp)
	databits = DVolt & 0x7FF;
   1034c:	e0bffe17 	ldw	r2,-8(fp)
   10350:	1081ffcc 	andi	r2,r2,2047
   10354:	e0bffd15 	stw	r2,-12(fp)
	if(0x800==(DVolt & 0x800))
   10358:	e0bffe17 	ldw	r2,-8(fp)
   1035c:	1082000c 	andi	r2,r2,2048
   10360:	10001f26 	beq	r2,zero,103e0 <ReadAdRes+0xc0>
	{
		Res = (databits - 0x800)/4095.0*10;
   10364:	e0bffd17 	ldw	r2,-12(fp)
   10368:	10be0004 	addi	r2,r2,-2048
   1036c:	1009883a 	mov	r4,r2
   10370:	00182780 	call	18278 <__floatsidf>
   10374:	1011883a 	mov	r8,r2
   10378:	1813883a 	mov	r9,r3
   1037c:	000d883a 	mov	r6,zero
   10380:	01d02c34 	movhi	r7,16560
   10384:	39ff8004 	addi	r7,r7,-512
   10388:	4009883a 	mov	r4,r8
   1038c:	480b883a 	mov	r5,r9
   10390:	00167980 	call	16798 <__divdf3>
   10394:	1009883a 	mov	r4,r2
   10398:	180b883a 	mov	r5,r3
   1039c:	2005883a 	mov	r2,r4
   103a0:	2807883a 	mov	r3,r5
   103a4:	000d883a 	mov	r6,zero
   103a8:	01d00934 	movhi	r7,16420
   103ac:	1009883a 	mov	r4,r2
   103b0:	180b883a 	mov	r5,r3
   103b4:	00171e40 	call	171e4 <__muldf3>
   103b8:	1009883a 	mov	r4,r2
   103bc:	180b883a 	mov	r5,r3
   103c0:	2005883a 	mov	r2,r4
   103c4:	2807883a 	mov	r3,r5
   103c8:	1009883a 	mov	r4,r2
   103cc:	180b883a 	mov	r5,r3
   103d0:	001850c0 	call	1850c <__truncdfsf2>
   103d4:	1007883a 	mov	r3,r2
   103d8:	e0fffc15 	stw	r3,-16(fp)
   103dc:	00001c06 	br	10450 <ReadAdRes+0x130>
	}
	else
	{
		Res = (databits)/4095.0*10;
   103e0:	e13ffd17 	ldw	r4,-12(fp)
   103e4:	00182780 	call	18278 <__floatsidf>
   103e8:	1011883a 	mov	r8,r2
   103ec:	1813883a 	mov	r9,r3
   103f0:	000d883a 	mov	r6,zero
   103f4:	01d02c34 	movhi	r7,16560
   103f8:	39ff8004 	addi	r7,r7,-512
   103fc:	4009883a 	mov	r4,r8
   10400:	480b883a 	mov	r5,r9
   10404:	00167980 	call	16798 <__divdf3>
   10408:	1009883a 	mov	r4,r2
   1040c:	180b883a 	mov	r5,r3
   10410:	2005883a 	mov	r2,r4
   10414:	2807883a 	mov	r3,r5
   10418:	000d883a 	mov	r6,zero
   1041c:	01d00934 	movhi	r7,16420
   10420:	1009883a 	mov	r4,r2
   10424:	180b883a 	mov	r5,r3
   10428:	00171e40 	call	171e4 <__muldf3>
   1042c:	1009883a 	mov	r4,r2
   10430:	180b883a 	mov	r5,r3
   10434:	2005883a 	mov	r2,r4
   10438:	2807883a 	mov	r3,r5
   1043c:	1009883a 	mov	r4,r2
   10440:	180b883a 	mov	r5,r3
   10444:	001850c0 	call	1850c <__truncdfsf2>
   10448:	1007883a 	mov	r3,r2
   1044c:	e0fffc15 	stw	r3,-16(fp)
	}
	return Res;
   10450:	e0bffc17 	ldw	r2,-16(fp)
   10454:	1007883a 	mov	r3,r2
}
   10458:	1805883a 	mov	r2,r3
   1045c:	e037883a 	mov	sp,fp
   10460:	dfc00117 	ldw	ra,4(sp)
   10464:	df000017 	ldw	fp,0(sp)
   10468:	dec00204 	addi	sp,sp,8
   1046c:	f800283a 	ret

00010470 <computeAd>:

float computeAd(int adValue)
{
   10470:	defffb04 	addi	sp,sp,-20
   10474:	dfc00415 	stw	ra,16(sp)
   10478:	df000315 	stw	fp,12(sp)
   1047c:	df000304 	addi	fp,sp,12
   10480:	e13fff15 	stw	r4,-4(fp)
	float Res = 0;                              //待计算的AD结果
   10484:	e03ffd15 	stw	zero,-12(fp)
	int databits = 0;                           //AD结果数值位
   10488:	e03ffe15 	stw	zero,-8(fp)

	databits = adValue & 0x7FF;
   1048c:	e0bfff17 	ldw	r2,-4(fp)
   10490:	1081ffcc 	andi	r2,r2,2047
   10494:	e0bffe15 	stw	r2,-8(fp)
	if(0x800==(adValue & 0x800))
   10498:	e0bfff17 	ldw	r2,-4(fp)
   1049c:	1082000c 	andi	r2,r2,2048
   104a0:	10001f26 	beq	r2,zero,10520 <computeAd+0xb0>
	{
		Res = (databits - 0x800)/4095.0*10;
   104a4:	e0bffe17 	ldw	r2,-8(fp)
   104a8:	10be0004 	addi	r2,r2,-2048
   104ac:	1009883a 	mov	r4,r2
   104b0:	00182780 	call	18278 <__floatsidf>
   104b4:	1011883a 	mov	r8,r2
   104b8:	1813883a 	mov	r9,r3
   104bc:	000d883a 	mov	r6,zero
   104c0:	01d02c34 	movhi	r7,16560
   104c4:	39ff8004 	addi	r7,r7,-512
   104c8:	4009883a 	mov	r4,r8
   104cc:	480b883a 	mov	r5,r9
   104d0:	00167980 	call	16798 <__divdf3>
   104d4:	1009883a 	mov	r4,r2
   104d8:	180b883a 	mov	r5,r3
   104dc:	2005883a 	mov	r2,r4
   104e0:	2807883a 	mov	r3,r5
   104e4:	000d883a 	mov	r6,zero
   104e8:	01d00934 	movhi	r7,16420
   104ec:	1009883a 	mov	r4,r2
   104f0:	180b883a 	mov	r5,r3
   104f4:	00171e40 	call	171e4 <__muldf3>
   104f8:	1009883a 	mov	r4,r2
   104fc:	180b883a 	mov	r5,r3
   10500:	2005883a 	mov	r2,r4
   10504:	2807883a 	mov	r3,r5
   10508:	1009883a 	mov	r4,r2
   1050c:	180b883a 	mov	r5,r3
   10510:	001850c0 	call	1850c <__truncdfsf2>
   10514:	1007883a 	mov	r3,r2
   10518:	e0fffd15 	stw	r3,-12(fp)
   1051c:	00001c06 	br	10590 <computeAd+0x120>
	}
	else
	{
		Res = (databits)/4095.0*10;
   10520:	e13ffe17 	ldw	r4,-8(fp)
   10524:	00182780 	call	18278 <__floatsidf>
   10528:	1011883a 	mov	r8,r2
   1052c:	1813883a 	mov	r9,r3
   10530:	000d883a 	mov	r6,zero
   10534:	01d02c34 	movhi	r7,16560
   10538:	39ff8004 	addi	r7,r7,-512
   1053c:	4009883a 	mov	r4,r8
   10540:	480b883a 	mov	r5,r9
   10544:	00167980 	call	16798 <__divdf3>
   10548:	1009883a 	mov	r4,r2
   1054c:	180b883a 	mov	r5,r3
   10550:	2005883a 	mov	r2,r4
   10554:	2807883a 	mov	r3,r5
   10558:	000d883a 	mov	r6,zero
   1055c:	01d00934 	movhi	r7,16420
   10560:	1009883a 	mov	r4,r2
   10564:	180b883a 	mov	r5,r3
   10568:	00171e40 	call	171e4 <__muldf3>
   1056c:	1009883a 	mov	r4,r2
   10570:	180b883a 	mov	r5,r3
   10574:	2005883a 	mov	r2,r4
   10578:	2807883a 	mov	r3,r5
   1057c:	1009883a 	mov	r4,r2
   10580:	180b883a 	mov	r5,r3
   10584:	001850c0 	call	1850c <__truncdfsf2>
   10588:	1007883a 	mov	r3,r2
   1058c:	e0fffd15 	stw	r3,-12(fp)
	}
	return Res;
   10590:	e0bffd17 	ldw	r2,-12(fp)
   10594:	1007883a 	mov	r3,r2
}
   10598:	1805883a 	mov	r2,r3
   1059c:	e037883a 	mov	sp,fp
   105a0:	dfc00117 	ldw	ra,4(sp)
   105a4:	df000017 	ldw	fp,0(sp)
   105a8:	dec00204 	addi	sp,sp,8
   105ac:	f800283a 	ret

000105b0 <AD9833_Init_GPIO>:
#define DAT_1()		value = value | 0b001; IOWR_ALTERA_AVALON_PIO_DATA(DDS_BASE, value )

//初始化AD9833 GPIO

void AD9833_Init_GPIO()
{
   105b0:	deffff04 	addi	sp,sp,-4
   105b4:	df000015 	stw	fp,0(sp)
   105b8:	d839883a 	mov	fp,sp
//    RCC_APB2PeriphClockCmd(RCC_APB2Periph_GPIOB, ENABLE);
//    GPIO_InitStructure.GPIO_Pin = PIN_FSYNC|PIN_SCK|PIN_DAT;
//    GPIO_InitStructure.GPIO_Speed = GPIO_Speed_50MHz;
//    GPIO_InitStructure.GPIO_Mode = GPIO_Mode_Out_PP;
//    GPIO_Init(PORT_SCK, &GPIO_InitStructure);
	IOWR_ALTERA_AVALON_PIO_DIRECTION(DDS_BASE, 0x0);
   105bc:	0007883a 	mov	r3,zero
   105c0:	008000b4 	movhi	r2,2
   105c4:	10881904 	addi	r2,r2,8292
   105c8:	10c00035 	stwio	r3,0(r2)
}
   105cc:	0001883a 	nop
   105d0:	e037883a 	mov	sp,fp
   105d4:	df000017 	ldw	fp,0(sp)
   105d8:	dec00104 	addi	sp,sp,4
   105dc:	f800283a 	ret

000105e0 <AD9833_Delay>:
*	形    参: 无
*	返 回 值: 无
*********************************************************************************************************
*/
static void AD9833_Delay(void)
{
   105e0:	defffe04 	addi	sp,sp,-8
   105e4:	df000115 	stw	fp,4(sp)
   105e8:	df000104 	addi	fp,sp,4
	int i;
	for (i = 0; i < 1; i++);
   105ec:	e03fff15 	stw	zero,-4(fp)
   105f0:	00000306 	br	10600 <AD9833_Delay+0x20>
   105f4:	e0bfff17 	ldw	r2,-4(fp)
   105f8:	10800044 	addi	r2,r2,1
   105fc:	e0bfff15 	stw	r2,-4(fp)
   10600:	e0bfff17 	ldw	r2,-4(fp)
   10604:	00bffb0e 	bge	zero,r2,105f4 <_gp+0xfffec594>
}
   10608:	0001883a 	nop
   1060c:	e037883a 	mov	sp,fp
   10610:	df000017 	ldw	fp,0(sp)
   10614:	dec00104 	addi	sp,sp,4
   10618:	f800283a 	ret

0001061c <AD9833_Write>:
*	形    参: TxData : 数据
*	返 回 值: 无
*********************************************************************************************************
*/
void AD9833_Write(unsigned int TxData)
{
   1061c:	defffc04 	addi	sp,sp,-16
   10620:	dfc00315 	stw	ra,12(sp)
   10624:	df000215 	stw	fp,8(sp)
   10628:	df000204 	addi	fp,sp,8
   1062c:	e13fff15 	stw	r4,-4(fp)
	unsigned char i;

	SCK_1();
   10630:	d0a18e17 	ldw	r2,-31176(gp)
   10634:	10800094 	ori	r2,r2,2
   10638:	d0a18e15 	stw	r2,-31176(gp)
   1063c:	d0e18e17 	ldw	r3,-31176(gp)
   10640:	008000b4 	movhi	r2,2
   10644:	10881804 	addi	r2,r2,8288
   10648:	10c00035 	stwio	r3,0(r2)
	//AD9833_Delay();
	FSYNC_1();
   1064c:	d0a18e17 	ldw	r2,-31176(gp)
   10650:	10800114 	ori	r2,r2,4
   10654:	d0a18e15 	stw	r2,-31176(gp)
   10658:	d0e18e17 	ldw	r3,-31176(gp)
   1065c:	008000b4 	movhi	r2,2
   10660:	10881804 	addi	r2,r2,8288
   10664:	10c00035 	stwio	r3,0(r2)
	AD9833_Delay();
   10668:	00105e00 	call	105e0 <AD9833_Delay>
	FSYNC_0();
   1066c:	d0a18e17 	ldw	r2,-31176(gp)
   10670:	108000cc 	andi	r2,r2,3
   10674:	d0a18e15 	stw	r2,-31176(gp)
   10678:	d0e18e17 	ldw	r3,-31176(gp)
   1067c:	008000b4 	movhi	r2,2
   10680:	10881804 	addi	r2,r2,8288
   10684:	10c00035 	stwio	r3,0(r2)
	AD9833_Delay();
   10688:	00105e00 	call	105e0 <AD9833_Delay>
	for(i = 0; i < 16; i++)
   1068c:	e03ffe05 	stb	zero,-8(fp)
   10690:	00002806 	br	10734 <AD9833_Write+0x118>
	{
		if (TxData & 0x8000)
   10694:	e0bfff17 	ldw	r2,-4(fp)
   10698:	10a0000c 	andi	r2,r2,32768
   1069c:	10000826 	beq	r2,zero,106c0 <AD9833_Write+0xa4>
		{
			DAT_1();
   106a0:	d0a18e17 	ldw	r2,-31176(gp)
   106a4:	10800054 	ori	r2,r2,1
   106a8:	d0a18e15 	stw	r2,-31176(gp)
   106ac:	d0e18e17 	ldw	r3,-31176(gp)
   106b0:	008000b4 	movhi	r2,2
   106b4:	10881804 	addi	r2,r2,8288
   106b8:	10c00035 	stwio	r3,0(r2)
   106bc:	00000706 	br	106dc <AD9833_Write+0xc0>
		}
		else
		{
			DAT_0();
   106c0:	d0a18e17 	ldw	r2,-31176(gp)
   106c4:	1080018c 	andi	r2,r2,6
   106c8:	d0a18e15 	stw	r2,-31176(gp)
   106cc:	d0e18e17 	ldw	r3,-31176(gp)
   106d0:	008000b4 	movhi	r2,2
   106d4:	10881804 	addi	r2,r2,8288
   106d8:	10c00035 	stwio	r3,0(r2)
		}

		AD9833_Delay();
   106dc:	00105e00 	call	105e0 <AD9833_Delay>
		SCK_0();
   106e0:	d0a18e17 	ldw	r2,-31176(gp)
   106e4:	1080014c 	andi	r2,r2,5
   106e8:	d0a18e15 	stw	r2,-31176(gp)
   106ec:	d0e18e17 	ldw	r3,-31176(gp)
   106f0:	008000b4 	movhi	r2,2
   106f4:	10881804 	addi	r2,r2,8288
   106f8:	10c00035 	stwio	r3,0(r2)
		AD9833_Delay();
   106fc:	00105e00 	call	105e0 <AD9833_Delay>
		SCK_1();
   10700:	d0a18e17 	ldw	r2,-31176(gp)
   10704:	10800094 	ori	r2,r2,2
   10708:	d0a18e15 	stw	r2,-31176(gp)
   1070c:	d0e18e17 	ldw	r3,-31176(gp)
   10710:	008000b4 	movhi	r2,2
   10714:	10881804 	addi	r2,r2,8288
   10718:	10c00035 	stwio	r3,0(r2)

		TxData <<= 1;
   1071c:	e0bfff17 	ldw	r2,-4(fp)
   10720:	1085883a 	add	r2,r2,r2
   10724:	e0bfff15 	stw	r2,-4(fp)
	//AD9833_Delay();
	FSYNC_1();
	AD9833_Delay();
	FSYNC_0();
	AD9833_Delay();
	for(i = 0; i < 16; i++)
   10728:	e0bffe03 	ldbu	r2,-8(fp)
   1072c:	10800044 	addi	r2,r2,1
   10730:	e0bffe05 	stb	r2,-8(fp)
   10734:	e0bffe03 	ldbu	r2,-8(fp)
   10738:	10800430 	cmpltui	r2,r2,16
   1073c:	103fd51e 	bne	r2,zero,10694 <_gp+0xfffec634>
		AD9833_Delay();
		SCK_1();

		TxData <<= 1;
	}
	FSYNC_1();
   10740:	d0a18e17 	ldw	r2,-31176(gp)
   10744:	10800114 	ori	r2,r2,4
   10748:	d0a18e15 	stw	r2,-31176(gp)
   1074c:	d0e18e17 	ldw	r3,-31176(gp)
   10750:	008000b4 	movhi	r2,2
   10754:	10881804 	addi	r2,r2,8288
   10758:	10c00035 	stwio	r3,0(r2)

}
   1075c:	0001883a 	nop
   10760:	e037883a 	mov	sp,fp
   10764:	dfc00117 	ldw	ra,4(sp)
   10768:	df000017 	ldw	fp,0(sp)
   1076c:	dec00204 	addi	sp,sp,8
   10770:	f800283a 	ret

00010774 <AD9833_WaveSeting>:
			  4.Phase : 波形的初相位
*	返 回 值: 无
*********************************************************************************************************
*/
void AD9833_WaveSeting(double Freq,unsigned int Freq_SFR,unsigned int WaveMode,unsigned int Phase )
{
   10774:	defff204 	addi	sp,sp,-56
   10778:	dfc00d15 	stw	ra,52(sp)
   1077c:	df000c15 	stw	fp,48(sp)
   10780:	df000c04 	addi	fp,sp,48
   10784:	e13ffc15 	stw	r4,-16(fp)
   10788:	e17ffd15 	stw	r5,-12(fp)
   1078c:	e1bffe15 	stw	r6,-8(fp)
   10790:	e1ffff15 	stw	r7,-4(fp)
	int frequence_LSB,frequence_MSB,Phs_data;
	double   frequence_mid,frequence_DATA;
	long int frequence_hex;

	/*********************************计算频率的16进制值***********************************/
	frequence_mid=268435456/25;//适合25M晶振
   10794:	00900034 	movhi	r2,16384
   10798:	e0bff615 	stw	r2,-40(fp)
   1079c:	00905934 	movhi	r2,16740
   107a0:	109eb844 	addi	r2,r2,31457
   107a4:	e0bff715 	stw	r2,-36(fp)
	//如果时钟频率不为25MHZ，修改该处的频率值，单位MHz ，AD9833最大支持25MHz
	frequence_DATA=Freq;
   107a8:	e0bffc17 	ldw	r2,-16(fp)
   107ac:	e0bff815 	stw	r2,-32(fp)
   107b0:	e0bffd17 	ldw	r2,-12(fp)
   107b4:	e0bff915 	stw	r2,-28(fp)
	frequence_DATA=frequence_DATA/1000000;
   107b8:	000d883a 	mov	r6,zero
   107bc:	01d04bf4 	movhi	r7,16687
   107c0:	39e12004 	addi	r7,r7,-31616
   107c4:	e13ff817 	ldw	r4,-32(fp)
   107c8:	e17ff917 	ldw	r5,-28(fp)
   107cc:	00167980 	call	16798 <__divdf3>
   107d0:	1009883a 	mov	r4,r2
   107d4:	180b883a 	mov	r5,r3
   107d8:	e13ff815 	stw	r4,-32(fp)
   107dc:	e17ff915 	stw	r5,-28(fp)
	frequence_DATA=frequence_DATA*frequence_mid;
   107e0:	e1bff617 	ldw	r6,-40(fp)
   107e4:	e1fff717 	ldw	r7,-36(fp)
   107e8:	e13ff817 	ldw	r4,-32(fp)
   107ec:	e17ff917 	ldw	r5,-28(fp)
   107f0:	00171e40 	call	171e4 <__muldf3>
   107f4:	1009883a 	mov	r4,r2
   107f8:	180b883a 	mov	r5,r3
   107fc:	e13ff815 	stw	r4,-32(fp)
   10800:	e17ff915 	stw	r5,-28(fp)
	frequence_hex=frequence_DATA;  //这个frequence_hex的值是32位的一个很大的数字，需要拆分成两个14位进行处理；
   10804:	e13ff817 	ldw	r4,-32(fp)
   10808:	e17ff917 	ldw	r5,-28(fp)
   1080c:	00181f80 	call	181f8 <__fixdfsi>
   10810:	e0bffa15 	stw	r2,-24(fp)
	frequence_LSB=frequence_hex; //frequence_hex低16位送给frequence_LSB
   10814:	e0bffa17 	ldw	r2,-24(fp)
   10818:	e0bff415 	stw	r2,-48(fp)
	frequence_LSB=frequence_LSB&0x3fff;//去除最高两位，16位数换去掉高位后变成了14位
   1081c:	e0bff417 	ldw	r2,-48(fp)
   10820:	108fffcc 	andi	r2,r2,16383
   10824:	e0bff415 	stw	r2,-48(fp)
	frequence_MSB=frequence_hex>>14; //frequence_hex高16位送给frequence_HSB
   10828:	e0bffa17 	ldw	r2,-24(fp)
   1082c:	1005d3ba 	srai	r2,r2,14
   10830:	e0bff515 	stw	r2,-44(fp)
	frequence_MSB=frequence_MSB&0x3fff;//去除最高两位，16位数换去掉高位后变成了14位
   10834:	e0bff517 	ldw	r2,-44(fp)
   10838:	108fffcc 	andi	r2,r2,16383
   1083c:	e0bff515 	stw	r2,-44(fp)

	Phs_data=Phase|0xC000;	//相位值
   10840:	e0800217 	ldw	r2,8(fp)
   10844:	10b00014 	ori	r2,r2,49152
   10848:	e0bffb15 	stw	r2,-20(fp)
	AD9833_Write(0x0100); //复位AD9833,即RESET位为1
   1084c:	01004004 	movi	r4,256
   10850:	001061c0 	call	1061c <AD9833_Write>
	AD9833_Write(0x2100); //选择数据一次写入，B28位和RESET位为1
   10854:	01084004 	movi	r4,8448
   10858:	001061c0 	call	1061c <AD9833_Write>

	if(Freq_SFR==0)				  //把数据设置到设置频率寄存器0
   1085c:	e0bffe17 	ldw	r2,-8(fp)
   10860:	10000f1e 	bne	r2,zero,108a0 <AD9833_WaveSeting+0x12c>
	{
		frequence_LSB=frequence_LSB|0x4000;
   10864:	e0bff417 	ldw	r2,-48(fp)
   10868:	10900014 	ori	r2,r2,16384
   1086c:	e0bff415 	stw	r2,-48(fp)
		frequence_MSB=frequence_MSB|0x4000;
   10870:	e0bff517 	ldw	r2,-44(fp)
   10874:	10900014 	ori	r2,r2,16384
   10878:	e0bff515 	stw	r2,-44(fp)
		 //使用频率寄存器0输出波形
		AD9833_Write(frequence_LSB); //L14，选择频率寄存器0的低14位数据输入
   1087c:	e0bff417 	ldw	r2,-48(fp)
   10880:	1009883a 	mov	r4,r2
   10884:	001061c0 	call	1061c <AD9833_Write>
		AD9833_Write(frequence_MSB); //H14 频率寄存器的高14位数据输入
   10888:	e0bff517 	ldw	r2,-44(fp)
   1088c:	1009883a 	mov	r4,r2
   10890:	001061c0 	call	1061c <AD9833_Write>
		AD9833_Write(Phs_data);	//设置相位
   10894:	e0bffb17 	ldw	r2,-20(fp)
   10898:	1009883a 	mov	r4,r2
   1089c:	001061c0 	call	1061c <AD9833_Write>
		//AD9833_Write(0x2000); /**设置FSELECT位为0，芯片进入工作状态,频率寄存器0输出波形**/
	}
	if(Freq_SFR==1)				//把数据设置到设置频率寄存器1
   108a0:	e0bffe17 	ldw	r2,-8(fp)
   108a4:	10800058 	cmpnei	r2,r2,1
   108a8:	10000f1e 	bne	r2,zero,108e8 <AD9833_WaveSeting+0x174>
	{
		 frequence_LSB=frequence_LSB|0x8000;
   108ac:	e0bff417 	ldw	r2,-48(fp)
   108b0:	10a00014 	ori	r2,r2,32768
   108b4:	e0bff415 	stw	r2,-48(fp)
		 frequence_MSB=frequence_MSB|0x8000;
   108b8:	e0bff517 	ldw	r2,-44(fp)
   108bc:	10a00014 	ori	r2,r2,32768
   108c0:	e0bff515 	stw	r2,-44(fp)
		//使用频率寄存器1输出波形
		AD9833_Write(frequence_LSB); //L14，选择频率寄存器1的低14位输入
   108c4:	e0bff417 	ldw	r2,-48(fp)
   108c8:	1009883a 	mov	r4,r2
   108cc:	001061c0 	call	1061c <AD9833_Write>
		AD9833_Write(frequence_MSB); //H14 频率寄存器1为
   108d0:	e0bff517 	ldw	r2,-44(fp)
   108d4:	1009883a 	mov	r4,r2
   108d8:	001061c0 	call	1061c <AD9833_Write>
		AD9833_Write(Phs_data);	//设置相位
   108dc:	e0bffb17 	ldw	r2,-20(fp)
   108e0:	1009883a 	mov	r4,r2
   108e4:	001061c0 	call	1061c <AD9833_Write>
		//AD9833_Write(0x2800); /**设置FSELECT位为0，设置FSELECT位为1，即使用频率寄存器1的值，芯片进入工作状态,频率寄存器1输出波形**/
	}

	if(WaveMode==TRI_WAVE) //输出三角波波形
   108e8:	e0bfff17 	ldw	r2,-4(fp)
   108ec:	1000021e 	bne	r2,zero,108f8 <AD9833_WaveSeting+0x184>
		AD9833_Write(0x2002);
   108f0:	01080084 	movi	r4,8194
   108f4:	001061c0 	call	1061c <AD9833_Write>
	if(WaveMode==SQU_WAVE)	//输出方波波形
   108f8:	e0bfff17 	ldw	r2,-4(fp)
   108fc:	10800098 	cmpnei	r2,r2,2
   10900:	1000021e 	bne	r2,zero,1090c <AD9833_WaveSeting+0x198>
		AD9833_Write(0x2028);
   10904:	01080a04 	movi	r4,8232
   10908:	001061c0 	call	1061c <AD9833_Write>
	if(WaveMode==SIN_WAVE)	//输出正弦波形
   1090c:	e0bfff17 	ldw	r2,-4(fp)
   10910:	10800058 	cmpnei	r2,r2,1
   10914:	1000021e 	bne	r2,zero,10920 <AD9833_WaveSeting+0x1ac>
		AD9833_Write(0x2000);
   10918:	01080004 	movi	r4,8192
   1091c:	001061c0 	call	1061c <AD9833_Write>

}
   10920:	0001883a 	nop
   10924:	e037883a 	mov	sp,fp
   10928:	dfc00117 	ldw	ra,4(sp)
   1092c:	df000017 	ldw	fp,0(sp)
   10930:	dec00204 	addi	sp,sp,8
   10934:	f800283a 	ret

00010938 <Add_Complex>:
////////////////////////////////////////////////////////////////////  
//璇叉唉椤椤т绘挎绘ㄩ搞椤璺ㄦ锝￠℃缂杈ㄥ浮楠妯硷拷瀚瑰┑舵缂骞锟///////////////////////////////////////////////////////////////////

////////////////////////////////////////////////////////////////////  
//璇叉唉椤椤т绘挎绘ㄩ搞椤璺ㄦ锝￠℃瑰嘲宥宕椤哥浣瑰х椤婊锋慨妤风达纭舵い甯缁绘寰ｎも缂浣介哺缁诲峰┑瀣规娲㈤浠姊洪稿海兼椿跺藉传璺ㄥ凤拷///////////////////////////////////////////////////////////////////
void Add_Complex(Complex * src1,Complex *src2,Complex *dst){  
   10938:	defffb04 	addi	sp,sp,-20
   1093c:	dfc00415 	stw	ra,16(sp)
   10940:	df000315 	stw	fp,12(sp)
   10944:	df000304 	addi	fp,sp,12
   10948:	e13ffd15 	stw	r4,-12(fp)
   1094c:	e17ffe15 	stw	r5,-8(fp)
   10950:	e1bfff15 	stw	r6,-4(fp)
    dst->imagin=src1->imagin+src2->imagin;  
   10954:	e0bffd17 	ldw	r2,-12(fp)
   10958:	10c00117 	ldw	r3,4(r2)
   1095c:	e0bffe17 	ldw	r2,-8(fp)
   10960:	11000117 	ldw	r4,4(r2)
   10964:	200b883a 	mov	r5,r4
   10968:	1809883a 	mov	r4,r3
   1096c:	0014b700 	call	14b70 <__addsf3>
   10970:	1009883a 	mov	r4,r2
   10974:	2007883a 	mov	r3,r4
   10978:	e0bfff17 	ldw	r2,-4(fp)
   1097c:	10c00115 	stw	r3,4(r2)
    dst->real=src1->real+src2->real;  
   10980:	e0bffd17 	ldw	r2,-12(fp)
   10984:	10c00017 	ldw	r3,0(r2)
   10988:	e0bffe17 	ldw	r2,-8(fp)
   1098c:	11000017 	ldw	r4,0(r2)
   10990:	200b883a 	mov	r5,r4
   10994:	1809883a 	mov	r4,r3
   10998:	0014b700 	call	14b70 <__addsf3>
   1099c:	1009883a 	mov	r4,r2
   109a0:	2007883a 	mov	r3,r4
   109a4:	e0bfff17 	ldw	r2,-4(fp)
   109a8:	10c00015 	stw	r3,0(r2)
}  
   109ac:	0001883a 	nop
   109b0:	e037883a 	mov	sp,fp
   109b4:	dfc00117 	ldw	ra,4(sp)
   109b8:	df000017 	ldw	fp,0(sp)
   109bc:	dec00204 	addi	sp,sp,8
   109c0:	f800283a 	ret

000109c4 <Sub_Complex>:
void Sub_Complex(Complex * src1,Complex *src2,Complex *dst){  
   109c4:	defffb04 	addi	sp,sp,-20
   109c8:	dfc00415 	stw	ra,16(sp)
   109cc:	df000315 	stw	fp,12(sp)
   109d0:	df000304 	addi	fp,sp,12
   109d4:	e13ffd15 	stw	r4,-12(fp)
   109d8:	e17ffe15 	stw	r5,-8(fp)
   109dc:	e1bfff15 	stw	r6,-4(fp)
    dst->imagin=src1->imagin-src2->imagin;  
   109e0:	e0bffd17 	ldw	r2,-12(fp)
   109e4:	10c00117 	ldw	r3,4(r2)
   109e8:	e0bffe17 	ldw	r2,-8(fp)
   109ec:	11000117 	ldw	r4,4(r2)
   109f0:	200b883a 	mov	r5,r4
   109f4:	1809883a 	mov	r4,r3
   109f8:	00158740 	call	15874 <__subsf3>
   109fc:	1009883a 	mov	r4,r2
   10a00:	2007883a 	mov	r3,r4
   10a04:	e0bfff17 	ldw	r2,-4(fp)
   10a08:	10c00115 	stw	r3,4(r2)
    dst->real=src1->real-src2->real;  
   10a0c:	e0bffd17 	ldw	r2,-12(fp)
   10a10:	10c00017 	ldw	r3,0(r2)
   10a14:	e0bffe17 	ldw	r2,-8(fp)
   10a18:	11000017 	ldw	r4,0(r2)
   10a1c:	200b883a 	mov	r5,r4
   10a20:	1809883a 	mov	r4,r3
   10a24:	00158740 	call	15874 <__subsf3>
   10a28:	1009883a 	mov	r4,r2
   10a2c:	2007883a 	mov	r3,r4
   10a30:	e0bfff17 	ldw	r2,-4(fp)
   10a34:	10c00015 	stw	r3,0(r2)
}  
   10a38:	0001883a 	nop
   10a3c:	e037883a 	mov	sp,fp
   10a40:	dfc00117 	ldw	ra,4(sp)
   10a44:	df000017 	ldw	fp,0(sp)
   10a48:	dec00204 	addi	sp,sp,8
   10a4c:	f800283a 	ret

00010a50 <Multy_Complex>:
void Multy_Complex(Complex * src1,Complex *src2,Complex *dst){  
   10a50:	defff604 	addi	sp,sp,-40
   10a54:	dfc00915 	stw	ra,36(sp)
   10a58:	df000815 	stw	fp,32(sp)
   10a5c:	dc000715 	stw	r16,28(sp)
   10a60:	df000804 	addi	fp,sp,32
   10a64:	e13ffc15 	stw	r4,-16(fp)
   10a68:	e17ffd15 	stw	r5,-12(fp)
   10a6c:	e1bffe15 	stw	r6,-8(fp)
    float r1=0.0,r2=0.0;
   10a70:	e03ff815 	stw	zero,-32(fp)
   10a74:	e03ff915 	stw	zero,-28(fp)
    float i1=0.0,i2=0.0;
   10a78:	e03ffa15 	stw	zero,-24(fp)
   10a7c:	e03ffb15 	stw	zero,-20(fp)
    r1=src1->real;  
   10a80:	e0bffc17 	ldw	r2,-16(fp)
   10a84:	10800017 	ldw	r2,0(r2)
   10a88:	e0bff815 	stw	r2,-32(fp)
    r2=src2->real;  
   10a8c:	e0bffd17 	ldw	r2,-12(fp)
   10a90:	10800017 	ldw	r2,0(r2)
   10a94:	e0bff915 	stw	r2,-28(fp)
    i1=src1->imagin;  
   10a98:	e0bffc17 	ldw	r2,-16(fp)
   10a9c:	10800117 	ldw	r2,4(r2)
   10aa0:	e0bffa15 	stw	r2,-24(fp)
    i2=src2->imagin;  
   10aa4:	e0bffd17 	ldw	r2,-12(fp)
   10aa8:	10800117 	ldw	r2,4(r2)
   10aac:	e0bffb15 	stw	r2,-20(fp)
    dst->imagin=r1*i2+r2*i1;  
   10ab0:	e17ffb17 	ldw	r5,-20(fp)
   10ab4:	e13ff817 	ldw	r4,-32(fp)
   10ab8:	00154780 	call	15478 <__mulsf3>
   10abc:	1007883a 	mov	r3,r2
   10ac0:	1821883a 	mov	r16,r3
   10ac4:	e17ffa17 	ldw	r5,-24(fp)
   10ac8:	e13ff917 	ldw	r4,-28(fp)
   10acc:	00154780 	call	15478 <__mulsf3>
   10ad0:	1007883a 	mov	r3,r2
   10ad4:	1805883a 	mov	r2,r3
   10ad8:	100b883a 	mov	r5,r2
   10adc:	8009883a 	mov	r4,r16
   10ae0:	0014b700 	call	14b70 <__addsf3>
   10ae4:	1009883a 	mov	r4,r2
   10ae8:	2007883a 	mov	r3,r4
   10aec:	e0bffe17 	ldw	r2,-8(fp)
   10af0:	10c00115 	stw	r3,4(r2)
    dst->real=r1*r2-i1*i2;  
   10af4:	e17ff917 	ldw	r5,-28(fp)
   10af8:	e13ff817 	ldw	r4,-32(fp)
   10afc:	00154780 	call	15478 <__mulsf3>
   10b00:	1007883a 	mov	r3,r2
   10b04:	1821883a 	mov	r16,r3
   10b08:	e17ffb17 	ldw	r5,-20(fp)
   10b0c:	e13ffa17 	ldw	r4,-24(fp)
   10b10:	00154780 	call	15478 <__mulsf3>
   10b14:	1007883a 	mov	r3,r2
   10b18:	1805883a 	mov	r2,r3
   10b1c:	100b883a 	mov	r5,r2
   10b20:	8009883a 	mov	r4,r16
   10b24:	00158740 	call	15874 <__subsf3>
   10b28:	1009883a 	mov	r4,r2
   10b2c:	2007883a 	mov	r3,r4
   10b30:	e0bffe17 	ldw	r2,-8(fp)
   10b34:	10c00015 	stw	r3,0(r2)
}  
   10b38:	0001883a 	nop
   10b3c:	e6ffff04 	addi	sp,fp,-4
   10b40:	dfc00217 	ldw	ra,8(sp)
   10b44:	df000117 	ldw	fp,4(sp)
   10b48:	dc000017 	ldw	r16,0(sp)
   10b4c:	dec00304 	addi	sp,sp,12
   10b50:	f800283a 	ret

00010b54 <getWN>:
////////////////////////////////////////////////////////////////////  
//渚娼婚靛缁辩濠电村堕尖宕㈤澶垮ù锝婀遍绘ㄩ搞N浣圭归宀宕洪х鹃糕崇婢фユ″锟芥靛у伴宕妯渚娼荤煎韫娑绀妞ゆㄧ椤ㄥ┑告稿绱濡わ拷妾ㄧ殿椤㈡╅ｎ归浣告＄濠婵缁у锟界澶搁宄扳淬￠浼缍椤㈤抽宠妫濞姊洪甸瑰ゆ
///////////////////////////////////////////////////////////////////
void getWN(float n,float size_n,Complex * dst){
   10b54:	defff804 	addi	sp,sp,-32
   10b58:	dfc00715 	stw	ra,28(sp)
   10b5c:	df000615 	stw	fp,24(sp)
   10b60:	dc400515 	stw	r17,20(sp)
   10b64:	dc000415 	stw	r16,16(sp)
   10b68:	df000604 	addi	fp,sp,24
   10b6c:	e13ffb15 	stw	r4,-20(fp)
   10b70:	e17ffc15 	stw	r5,-16(fp)
   10b74:	e1bffd15 	stw	r6,-12(fp)
    float x=2.0*M_PI*n/size_n;
   10b78:	e13ffb17 	ldw	r4,-20(fp)
   10b7c:	00183fc0 	call	183fc <__extendsfdf2>
   10b80:	1011883a 	mov	r8,r2
   10b84:	1813883a 	mov	r9,r3
   10b88:	01951134 	movhi	r6,21572
   10b8c:	318b4604 	addi	r6,r6,11544
   10b90:	01d00674 	movhi	r7,16409
   10b94:	39c87ec4 	addi	r7,r7,8699
   10b98:	4009883a 	mov	r4,r8
   10b9c:	480b883a 	mov	r5,r9
   10ba0:	00171e40 	call	171e4 <__muldf3>
   10ba4:	1009883a 	mov	r4,r2
   10ba8:	180b883a 	mov	r5,r3
   10bac:	2021883a 	mov	r16,r4
   10bb0:	2823883a 	mov	r17,r5
   10bb4:	e13ffc17 	ldw	r4,-16(fp)
   10bb8:	00183fc0 	call	183fc <__extendsfdf2>
   10bbc:	1009883a 	mov	r4,r2
   10bc0:	180b883a 	mov	r5,r3
   10bc4:	200d883a 	mov	r6,r4
   10bc8:	280f883a 	mov	r7,r5
   10bcc:	8009883a 	mov	r4,r16
   10bd0:	880b883a 	mov	r5,r17
   10bd4:	00167980 	call	16798 <__divdf3>
   10bd8:	1009883a 	mov	r4,r2
   10bdc:	180b883a 	mov	r5,r3
   10be0:	2005883a 	mov	r2,r4
   10be4:	2807883a 	mov	r3,r5
   10be8:	1009883a 	mov	r4,r2
   10bec:	180b883a 	mov	r5,r3
   10bf0:	001850c0 	call	1850c <__truncdfsf2>
   10bf4:	1007883a 	mov	r3,r2
   10bf8:	e0fffa15 	stw	r3,-24(fp)
    dst->imagin=-sin(x);  
   10bfc:	e13ffa17 	ldw	r4,-24(fp)
   10c00:	00183fc0 	call	183fc <__extendsfdf2>
   10c04:	100b883a 	mov	r5,r2
   10c08:	180d883a 	mov	r6,r3
   10c0c:	2809883a 	mov	r4,r5
   10c10:	300b883a 	mov	r5,r6
   10c14:	00128340 	call	12834 <sin>
   10c18:	100b883a 	mov	r5,r2
   10c1c:	180d883a 	mov	r6,r3
   10c20:	2809883a 	mov	r4,r5
   10c24:	300b883a 	mov	r5,r6
   10c28:	001850c0 	call	1850c <__truncdfsf2>
   10c2c:	1007883a 	mov	r3,r2
   10c30:	18e0003c 	xorhi	r3,r3,32768
   10c34:	e0bffd17 	ldw	r2,-12(fp)
   10c38:	10c00115 	stw	r3,4(r2)
    dst->real=cos(x);  
   10c3c:	e13ffa17 	ldw	r4,-24(fp)
   10c40:	00183fc0 	call	183fc <__extendsfdf2>
   10c44:	100b883a 	mov	r5,r2
   10c48:	180d883a 	mov	r6,r3
   10c4c:	2809883a 	mov	r4,r5
   10c50:	300b883a 	mov	r5,r6
   10c54:	00127480 	call	12748 <cos>
   10c58:	100b883a 	mov	r5,r2
   10c5c:	180d883a 	mov	r6,r3
   10c60:	2809883a 	mov	r4,r5
   10c64:	300b883a 	mov	r5,r6
   10c68:	001850c0 	call	1850c <__truncdfsf2>
   10c6c:	1007883a 	mov	r3,r2
   10c70:	e0bffd17 	ldw	r2,-12(fp)
   10c74:	10c00015 	stw	r3,0(r2)
}  
   10c78:	0001883a 	nop
   10c7c:	e6fffe04 	addi	sp,fp,-8
   10c80:	dfc00317 	ldw	ra,12(sp)
   10c84:	df000217 	ldw	fp,8(sp)
   10c88:	dc400117 	ldw	r17,4(sp)
   10c8c:	dc000017 	ldw	r16,0(sp)
   10c90:	dec00404 	addi	sp,sp,16
   10c94:	f800283a 	ret

00010c98 <FFT_remap>:

////////////////////////////////////////////////////////////////////  
//璇叉唉椤椤т绘T浣圭归宀锟介割蹇搴绨绘いㄧ濞达椤ｈ╋拷捐绐轰礁绉舵锕妯濠电村堕搁濠电浣圭归宀锟介姹查绘х汇ユ瀵℃担版╃稻ｉ割ゅ娓锟藉堕ㄦ搁电х哄苯楠骞х娆圭款烽妤锟//////////////////////////////////////////////////////////////////
int FFT_remap(float * src,int size_n)
{
   10c98:	deffdb04 	addi	sp,sp,-148
   10c9c:	dfc02415 	stw	ra,144(sp)
   10ca0:	df002315 	stw	fp,140(sp)
   10ca4:	df002304 	addi	fp,sp,140
   10ca8:	e13ffe15 	stw	r4,-8(fp)
   10cac:	e17fff15 	stw	r5,-4(fp)
	int i;
    float temp[32] = {0};
   10cb0:	e0bfde04 	addi	r2,fp,-136
   10cb4:	00c02004 	movi	r3,128
   10cb8:	180d883a 	mov	r6,r3
   10cbc:	000b883a 	mov	r5,zero
   10cc0:	1009883a 	mov	r4,r2
   10cc4:	00187780 	call	18778 <memset>
    if(size_n == 1)
   10cc8:	e0bfff17 	ldw	r2,-4(fp)
   10ccc:	10800058 	cmpnei	r2,r2,1
   10cd0:	1000021e 	bne	r2,zero,10cdc <FFT_remap+0x44>
    {
        return 0;
   10cd4:	0005883a 	mov	r2,zero
   10cd8:	00005f06 	br	10e58 <FFT_remap+0x1c0>
    }
    for(i = 0; i < size_n; i++)
   10cdc:	e03fdd15 	stw	zero,-140(fp)
   10ce0:	00002d06 	br	10d98 <FFT_remap+0x100>
    {
        if(i % 2 == 0)
   10ce4:	e0bfdd17 	ldw	r2,-140(fp)
   10ce8:	1080004c 	andi	r2,r2,1
   10cec:	1000131e 	bne	r2,zero,10d3c <FFT_remap+0xa4>
        {
            temp[i / 2] = src[i];
   10cf0:	e0bfdd17 	ldw	r2,-140(fp)
   10cf4:	1006d7fa 	srli	r3,r2,31
   10cf8:	1885883a 	add	r2,r3,r2
   10cfc:	1005d07a 	srai	r2,r2,1
   10d00:	1007883a 	mov	r3,r2
   10d04:	e0bfdd17 	ldw	r2,-140(fp)
   10d08:	1085883a 	add	r2,r2,r2
   10d0c:	1085883a 	add	r2,r2,r2
   10d10:	1009883a 	mov	r4,r2
   10d14:	e0bffe17 	ldw	r2,-8(fp)
   10d18:	1105883a 	add	r2,r2,r4
   10d1c:	11000017 	ldw	r4,0(r2)
   10d20:	18c5883a 	add	r2,r3,r3
   10d24:	1085883a 	add	r2,r2,r2
   10d28:	e0ffdd04 	addi	r3,fp,-140
   10d2c:	1885883a 	add	r2,r3,r2
   10d30:	10800104 	addi	r2,r2,4
   10d34:	11000015 	stw	r4,0(r2)
   10d38:	00001406 	br	10d8c <FFT_remap+0xf4>
        }
        else  
        {
            temp[(size_n + i) / 2] = src[i];
   10d3c:	e0ffff17 	ldw	r3,-4(fp)
   10d40:	e0bfdd17 	ldw	r2,-140(fp)
   10d44:	1885883a 	add	r2,r3,r2
   10d48:	1006d7fa 	srli	r3,r2,31
   10d4c:	1885883a 	add	r2,r3,r2
   10d50:	1005d07a 	srai	r2,r2,1
   10d54:	1007883a 	mov	r3,r2
   10d58:	e0bfdd17 	ldw	r2,-140(fp)
   10d5c:	1085883a 	add	r2,r2,r2
   10d60:	1085883a 	add	r2,r2,r2
   10d64:	1009883a 	mov	r4,r2
   10d68:	e0bffe17 	ldw	r2,-8(fp)
   10d6c:	1105883a 	add	r2,r2,r4
   10d70:	11000017 	ldw	r4,0(r2)
   10d74:	18c5883a 	add	r2,r3,r3
   10d78:	1085883a 	add	r2,r2,r2
   10d7c:	e0ffdd04 	addi	r3,fp,-140
   10d80:	1885883a 	add	r2,r3,r2
   10d84:	10800104 	addi	r2,r2,4
   10d88:	11000015 	stw	r4,0(r2)
    float temp[32] = {0};
    if(size_n == 1)
    {
        return 0;
    }
    for(i = 0; i < size_n; i++)
   10d8c:	e0bfdd17 	ldw	r2,-140(fp)
   10d90:	10800044 	addi	r2,r2,1
   10d94:	e0bfdd15 	stw	r2,-140(fp)
   10d98:	e0ffdd17 	ldw	r3,-140(fp)
   10d9c:	e0bfff17 	ldw	r2,-4(fp)
   10da0:	18bfd016 	blt	r3,r2,10ce4 <_gp+0xfffecc84>
        else  
        {
            temp[(size_n + i) / 2] = src[i];
        }
    }
    for(i = 0; i < size_n; i++)
   10da4:	e03fdd15 	stw	zero,-140(fp)
   10da8:	00001106 	br	10df0 <FFT_remap+0x158>
    {
        src[i] = temp[i];
   10dac:	e0bfdd17 	ldw	r2,-140(fp)
   10db0:	1085883a 	add	r2,r2,r2
   10db4:	1085883a 	add	r2,r2,r2
   10db8:	1007883a 	mov	r3,r2
   10dbc:	e0bffe17 	ldw	r2,-8(fp)
   10dc0:	10c7883a 	add	r3,r2,r3
   10dc4:	e0bfdd17 	ldw	r2,-140(fp)
   10dc8:	1085883a 	add	r2,r2,r2
   10dcc:	1085883a 	add	r2,r2,r2
   10dd0:	e13fdd04 	addi	r4,fp,-140
   10dd4:	2085883a 	add	r2,r4,r2
   10dd8:	11000104 	addi	r4,r2,4
   10ddc:	20800017 	ldw	r2,0(r4)
   10de0:	18800015 	stw	r2,0(r3)
        else  
        {
            temp[(size_n + i) / 2] = src[i];
        }
    }
    for(i = 0; i < size_n; i++)
   10de4:	e0bfdd17 	ldw	r2,-140(fp)
   10de8:	10800044 	addi	r2,r2,1
   10dec:	e0bfdd15 	stw	r2,-140(fp)
   10df0:	e0ffdd17 	ldw	r3,-140(fp)
   10df4:	e0bfff17 	ldw	r2,-4(fp)
   10df8:	18bfec16 	blt	r3,r2,10dac <_gp+0xfffecd4c>
    {
        src[i] = temp[i];
    }
    FFT_remap(src, size_n/2);  
   10dfc:	e0bfff17 	ldw	r2,-4(fp)
   10e00:	1006d7fa 	srli	r3,r2,31
   10e04:	1885883a 	add	r2,r3,r2
   10e08:	1005d07a 	srai	r2,r2,1
   10e0c:	100b883a 	mov	r5,r2
   10e10:	e13ffe17 	ldw	r4,-8(fp)
   10e14:	0010c980 	call	10c98 <FFT_remap>
    FFT_remap(src+size_n/2, size_n/2);  
   10e18:	e0bfff17 	ldw	r2,-4(fp)
   10e1c:	1006d7fa 	srli	r3,r2,31
   10e20:	1885883a 	add	r2,r3,r2
   10e24:	1005d07a 	srai	r2,r2,1
   10e28:	1085883a 	add	r2,r2,r2
   10e2c:	1085883a 	add	r2,r2,r2
   10e30:	1007883a 	mov	r3,r2
   10e34:	e0bffe17 	ldw	r2,-8(fp)
   10e38:	10c9883a 	add	r4,r2,r3
   10e3c:	e0bfff17 	ldw	r2,-4(fp)
   10e40:	1006d7fa 	srli	r3,r2,31
   10e44:	1885883a 	add	r2,r3,r2
   10e48:	1005d07a 	srai	r2,r2,1
   10e4c:	100b883a 	mov	r5,r2
   10e50:	0010c980 	call	10c98 <FFT_remap>
    return 1;  
   10e54:	00800044 	movi	r2,1
}  
   10e58:	e037883a 	mov	sp,fp
   10e5c:	dfc00117 	ldw	ra,4(sp)
   10e60:	df000017 	ldw	fp,0(sp)
   10e64:	dec00204 	addi	sp,sp,8
   10e68:	f800283a 	ret

00010e6c <FFT>:

////////////////////////////////////////////////////////////////////  
//璇叉唉椤椤т绘T浣瑰х椤茬圭垮╂刊规靛诲寒缁辨╅颁焦缂缁㈠兼晶搴ㄥ纰锋俊妞块浠姊洪稿海哄瀵妯煎婵靛Тょ博绢界靛垮遍淇椤姘兼缂肩ゆい蹇瀚婵姊洪濠绗婵☆ｆ⒒峰㈤搴㈢缁绮告ㄥ锋ャュ洪轰礁绉舵锕婢跺寒瑰┑差婵浼村绢癸拷濞达灏ㄩ风芥ｉ婵澶介锛锟介搁
///////////////////////////////////////////////////////////////////  
void FFT(float * src, Complex * dst, int size_n)
{
   10e6c:	deffb104 	addi	sp,sp,-316
   10e70:	dfc04e15 	stw	ra,312(sp)
   10e74:	df004d15 	stw	fp,308(sp)
   10e78:	dc004c15 	stw	r16,304(sp)
   10e7c:	df004d04 	addi	fp,sp,308
   10e80:	e13ffc15 	stw	r4,-16(fp)
   10e84:	e17ffd15 	stw	r5,-12(fp)
   10e88:	e1bffe15 	stw	r6,-8(fp)
	int i,j;
	int k=size_n;
   10e8c:	e0bffe17 	ldw	r2,-8(fp)
   10e90:	e0bfb515 	stw	r2,-300(fp)
	int z=0;
   10e94:	e03fb615 	stw	zero,-296(fp)
    FFT_remap(src, size_n); 
   10e98:	e17ffe17 	ldw	r5,-8(fp)
   10e9c:	e13ffc17 	ldw	r4,-16(fp)
   10ea0:	0010c980 	call	10c98 <FFT_remap>

    while (k/=2)
   10ea4:	00000306 	br	10eb4 <FFT+0x48>
    {
        z++;  
   10ea8:	e0bfb617 	ldw	r2,-296(fp)
   10eac:	10800044 	addi	r2,r2,1
   10eb0:	e0bfb615 	stw	r2,-296(fp)
	int i,j;
	int k=size_n;
	int z=0;
    FFT_remap(src, size_n); 

    while (k/=2)
   10eb4:	e0bfb517 	ldw	r2,-300(fp)
   10eb8:	1006d7fa 	srli	r3,r2,31
   10ebc:	1885883a 	add	r2,r3,r2
   10ec0:	1005d07a 	srai	r2,r2,1
   10ec4:	e0bfb515 	stw	r2,-300(fp)
   10ec8:	e0bfb517 	ldw	r2,-300(fp)
   10ecc:	103ff61e 	bne	r2,zero,10ea8 <_gp+0xfffece48>
    {
        z++;  
    }  
    k=z;  
   10ed0:	e0bfb617 	ldw	r2,-296(fp)
   10ed4:	e0bfb515 	stw	r2,-300(fp)
    if(size_n!=(1<<k))
   10ed8:	00c00044 	movi	r3,1
   10edc:	e0bfb517 	ldw	r2,-300(fp)
   10ee0:	1886983a 	sll	r3,r3,r2
   10ee4:	e0bffe17 	ldw	r2,-8(fp)
   10ee8:	18800226 	beq	r3,r2,10ef4 <FFT+0x88>
    {
        exit(0);  
   10eec:	0009883a 	mov	r4,zero
   10ef0:	00187300 	call	18730 <exit>
    Complex src_com[32];
    if(src_com==NULL)  
    {
        exit(0);
    }
    for(i=0;i<size_n;i++)
   10ef4:	e03fb315 	stw	zero,-308(fp)
   10ef8:	00001606 	br	10f54 <FFT+0xe8>
    {
        src_com[i].real=src[i];  
   10efc:	e0bfb317 	ldw	r2,-308(fp)
   10f00:	1085883a 	add	r2,r2,r2
   10f04:	1085883a 	add	r2,r2,r2
   10f08:	1007883a 	mov	r3,r2
   10f0c:	e0bffc17 	ldw	r2,-16(fp)
   10f10:	10c5883a 	add	r2,r2,r3
   10f14:	10c00017 	ldw	r3,0(r2)
   10f18:	e0bfb317 	ldw	r2,-308(fp)
   10f1c:	100490fa 	slli	r2,r2,3
   10f20:	e13fb304 	addi	r4,fp,-308
   10f24:	2085883a 	add	r2,r4,r2
   10f28:	10800504 	addi	r2,r2,20
   10f2c:	10c00015 	stw	r3,0(r2)
        src_com[i].imagin=0;  
   10f30:	e0bfb317 	ldw	r2,-308(fp)
   10f34:	100490fa 	slli	r2,r2,3
   10f38:	e0ffb304 	addi	r3,fp,-308
   10f3c:	1885883a 	add	r2,r3,r2
   10f40:	10800604 	addi	r2,r2,24
   10f44:	10000015 	stw	zero,0(r2)
    Complex src_com[32];
    if(src_com==NULL)  
    {
        exit(0);
    }
    for(i=0;i<size_n;i++)
   10f48:	e0bfb317 	ldw	r2,-308(fp)
   10f4c:	10800044 	addi	r2,r2,1
   10f50:	e0bfb315 	stw	r2,-308(fp)
   10f54:	e0ffb317 	ldw	r3,-308(fp)
   10f58:	e0bffe17 	ldw	r2,-8(fp)
   10f5c:	18bfe716 	blt	r3,r2,10efc <_gp+0xfffece9c>
    {
        src_com[i].real=src[i];  
        src_com[i].imagin=0;  
    }
    for(i=0;i<k;i++)
   10f60:	e03fb315 	stw	zero,-308(fp)
   10f64:	00006d06 	br	1111c <FFT+0x2b0>
    {
        z=0;  
   10f68:	e03fb615 	stw	zero,-296(fp)
        for(j=0;j<size_n;j++)
   10f6c:	e03fb415 	stw	zero,-304(fp)
   10f70:	00006406 	br	11104 <FFT+0x298>
        {
            if((j/(1<<i))%2==1)
   10f74:	00c00044 	movi	r3,1
   10f78:	e0bfb317 	ldw	r2,-308(fp)
   10f7c:	1884983a 	sll	r2,r3,r2
   10f80:	100b883a 	mov	r5,r2
   10f84:	e13fb417 	ldw	r4,-304(fp)
   10f88:	00149bc0 	call	149bc <__divsi3>
   10f8c:	1007883a 	mov	r3,r2
   10f90:	00a00034 	movhi	r2,32768
   10f94:	10800044 	addi	r2,r2,1
   10f98:	1884703a 	and	r2,r3,r2
   10f9c:	1000040e 	bge	r2,zero,10fb0 <FFT+0x144>
   10fa0:	10bfffc4 	addi	r2,r2,-1
   10fa4:	00ffff84 	movi	r3,-2
   10fa8:	10c4b03a 	or	r2,r2,r3
   10fac:	10800044 	addi	r2,r2,1
   10fb0:	10800058 	cmpnei	r2,r2,1
   10fb4:	10004f1e 	bne	r2,zero,110f4 <FFT+0x288>
            {
                Complex wn;  
                getWN(z, size_n, &wn);  
   10fb8:	e13fb617 	ldw	r4,-296(fp)
   10fbc:	0015dc80 	call	15dc8 <__floatsisf>
   10fc0:	1021883a 	mov	r16,r2
   10fc4:	e13ffe17 	ldw	r4,-8(fp)
   10fc8:	0015dc80 	call	15dc8 <__floatsisf>
   10fcc:	1007883a 	mov	r3,r2
   10fd0:	e0bff804 	addi	r2,fp,-32
   10fd4:	100d883a 	mov	r6,r2
   10fd8:	180b883a 	mov	r5,r3
   10fdc:	8009883a 	mov	r4,r16
   10fe0:	0010b540 	call	10b54 <getWN>
                Multy_Complex(&src_com[j], &wn,&src_com[j]);  
   10fe4:	e0ffb804 	addi	r3,fp,-288
   10fe8:	e0bfb417 	ldw	r2,-304(fp)
   10fec:	100490fa 	slli	r2,r2,3
   10ff0:	1889883a 	add	r4,r3,r2
   10ff4:	e0ffb804 	addi	r3,fp,-288
   10ff8:	e0bfb417 	ldw	r2,-304(fp)
   10ffc:	100490fa 	slli	r2,r2,3
   11000:	1887883a 	add	r3,r3,r2
   11004:	e0bff804 	addi	r2,fp,-32
   11008:	180d883a 	mov	r6,r3
   1100c:	100b883a 	mov	r5,r2
   11010:	0010a500 	call	10a50 <Multy_Complex>
                z+=1<<(k-i-1);  
   11014:	e0ffb517 	ldw	r3,-300(fp)
   11018:	e0bfb317 	ldw	r2,-308(fp)
   1101c:	1885c83a 	sub	r2,r3,r2
   11020:	10bfffc4 	addi	r2,r2,-1
   11024:	00c00044 	movi	r3,1
   11028:	1884983a 	sll	r2,r3,r2
   1102c:	e0ffb617 	ldw	r3,-296(fp)
   11030:	1885883a 	add	r2,r3,r2
   11034:	e0bfb615 	stw	r2,-296(fp)
                Complex temp;  
                int neighbour=j-(1<<(i));  
   11038:	00c00044 	movi	r3,1
   1103c:	e0bfb317 	ldw	r2,-308(fp)
   11040:	1884983a 	sll	r2,r3,r2
   11044:	e0ffb417 	ldw	r3,-304(fp)
   11048:	1885c83a 	sub	r2,r3,r2
   1104c:	e0bfb715 	stw	r2,-292(fp)
                temp.real=src_com[neighbour].real;  
   11050:	e0bfb717 	ldw	r2,-292(fp)
   11054:	100490fa 	slli	r2,r2,3
   11058:	e13fb304 	addi	r4,fp,-308
   1105c:	2085883a 	add	r2,r4,r2
   11060:	10c00504 	addi	r3,r2,20
   11064:	18800017 	ldw	r2,0(r3)
   11068:	e0bffa15 	stw	r2,-24(fp)
                temp.imagin=src_com[neighbour].imagin;  
   1106c:	e0bfb717 	ldw	r2,-292(fp)
   11070:	100490fa 	slli	r2,r2,3
   11074:	e0ffb304 	addi	r3,fp,-308
   11078:	1885883a 	add	r2,r3,r2
   1107c:	10c00604 	addi	r3,r2,24
   11080:	18800017 	ldw	r2,0(r3)
   11084:	e0bffb15 	stw	r2,-20(fp)
                Add_Complex(&temp, &src_com[j], &src_com[neighbour]);  
   11088:	e0ffb804 	addi	r3,fp,-288
   1108c:	e0bfb417 	ldw	r2,-304(fp)
   11090:	100490fa 	slli	r2,r2,3
   11094:	1889883a 	add	r4,r3,r2
   11098:	e0ffb804 	addi	r3,fp,-288
   1109c:	e0bfb717 	ldw	r2,-292(fp)
   110a0:	100490fa 	slli	r2,r2,3
   110a4:	1887883a 	add	r3,r3,r2
   110a8:	e0bffa04 	addi	r2,fp,-24
   110ac:	180d883a 	mov	r6,r3
   110b0:	200b883a 	mov	r5,r4
   110b4:	1009883a 	mov	r4,r2
   110b8:	00109380 	call	10938 <Add_Complex>
                Sub_Complex(&temp, &src_com[j], &src_com[j]);  
   110bc:	e0ffb804 	addi	r3,fp,-288
   110c0:	e0bfb417 	ldw	r2,-304(fp)
   110c4:	100490fa 	slli	r2,r2,3
   110c8:	1889883a 	add	r4,r3,r2
   110cc:	e0ffb804 	addi	r3,fp,-288
   110d0:	e0bfb417 	ldw	r2,-304(fp)
   110d4:	100490fa 	slli	r2,r2,3
   110d8:	1887883a 	add	r3,r3,r2
   110dc:	e0bffa04 	addi	r2,fp,-24
   110e0:	180d883a 	mov	r6,r3
   110e4:	200b883a 	mov	r5,r4
   110e8:	1009883a 	mov	r4,r2
   110ec:	00109c40 	call	109c4 <Sub_Complex>
   110f0:	00000106 	br	110f8 <FFT+0x28c>
            }  
            else  
            {
                z=0;
   110f4:	e03fb615 	stw	zero,-296(fp)
        src_com[i].imagin=0;  
    }
    for(i=0;i<k;i++)
    {
        z=0;  
        for(j=0;j<size_n;j++)
   110f8:	e0bfb417 	ldw	r2,-304(fp)
   110fc:	10800044 	addi	r2,r2,1
   11100:	e0bfb415 	stw	r2,-304(fp)
   11104:	e0ffb417 	ldw	r3,-304(fp)
   11108:	e0bffe17 	ldw	r2,-8(fp)
   1110c:	18bf9916 	blt	r3,r2,10f74 <_gp+0xfffecf14>
    for(i=0;i<size_n;i++)
    {
        src_com[i].real=src[i];  
        src_com[i].imagin=0;  
    }
    for(i=0;i<k;i++)
   11110:	e0bfb317 	ldw	r2,-308(fp)
   11114:	10800044 	addi	r2,r2,1
   11118:	e0bfb315 	stw	r2,-308(fp)
   1111c:	e0ffb317 	ldw	r3,-308(fp)
   11120:	e0bfb517 	ldw	r2,-300(fp)
   11124:	18bf9016 	blt	r3,r2,10f68 <_gp+0xfffecf08>
//        }
//        else
//            printf("%d%dj\n",(int)(src_com[i].real * 1000000),(int)(src_com[i].imagin * 1000000));
//   }
//    LOG_DEBUG("fft result:");
    for(i=0 ; i < size_n; i++)
   11128:	e03fb315 	stw	zero,-308(fp)
   1112c:	00001906 	br	11194 <FFT+0x328>
    {
        dst[i].imagin = src_com[i].imagin;
   11130:	e0bfb317 	ldw	r2,-308(fp)
   11134:	100490fa 	slli	r2,r2,3
   11138:	e0fffd17 	ldw	r3,-12(fp)
   1113c:	1885883a 	add	r2,r3,r2
   11140:	e0ffb317 	ldw	r3,-308(fp)
   11144:	180690fa 	slli	r3,r3,3
   11148:	e13fb304 	addi	r4,fp,-308
   1114c:	20c7883a 	add	r3,r4,r3
   11150:	19000604 	addi	r4,r3,24
   11154:	20c00017 	ldw	r3,0(r4)
   11158:	10c00115 	stw	r3,4(r2)
        dst[i].real = src_com[i].real;
   1115c:	e0bfb317 	ldw	r2,-308(fp)
   11160:	100490fa 	slli	r2,r2,3
   11164:	e0fffd17 	ldw	r3,-12(fp)
   11168:	1885883a 	add	r2,r3,r2
   1116c:	e0ffb317 	ldw	r3,-308(fp)
   11170:	180690fa 	slli	r3,r3,3
   11174:	e13fb304 	addi	r4,fp,-308
   11178:	20c7883a 	add	r3,r4,r3
   1117c:	19000504 	addi	r4,r3,20
   11180:	20c00017 	ldw	r3,0(r4)
   11184:	10c00015 	stw	r3,0(r2)
//        }
//        else
//            printf("%d%dj\n",(int)(src_com[i].real * 1000000),(int)(src_com[i].imagin * 1000000));
//   }
//    LOG_DEBUG("fft result:");
    for(i=0 ; i < size_n; i++)
   11188:	e0bfb317 	ldw	r2,-308(fp)
   1118c:	10800044 	addi	r2,r2,1
   11190:	e0bfb315 	stw	r2,-308(fp)
   11194:	e0ffb317 	ldw	r3,-308(fp)
   11198:	e0bffe17 	ldw	r2,-8(fp)
   1119c:	18bfe416 	blt	r3,r2,11130 <_gp+0xfffed0d0>
    {
        dst[i].imagin = src_com[i].imagin;
        dst[i].real = src_com[i].real;
//        printf("%d + %d i\r\n", dst[i].real, dst[i].imagin);
    }
}
   111a0:	0001883a 	nop
   111a4:	e6ffff04 	addi	sp,fp,-4
   111a8:	dfc00217 	ldw	ra,8(sp)
   111ac:	df000117 	ldw	fp,4(sp)
   111b0:	dc000017 	ldw	r16,0(sp)
   111b4:	dec00304 	addi	sp,sp,12
   111b8:	f800283a 	ret

000111bc <getBeginMessge>:
FreInfo FInfo = {0,0,0,0};
TestMessage ReceiveMessage = {0,0,0,0,0};
OutputMessage Result = {0};

int getBeginMessge()
{
   111bc:	deffff04 	addi	sp,sp,-4
   111c0:	df000015 	stw	fp,0(sp)
   111c4:	d839883a 	mov	fp,sp
//	return 0;
//	return 1;
	return ReceiveMessage.getMessege;
   111c8:	008000b4 	movhi	r2,2
   111cc:	10b1f204 	addi	r2,r2,-14392
   111d0:	10800417 	ldw	r2,16(r2)
}
   111d4:	e037883a 	mov	sp,fp
   111d8:	df000017 	ldw	fp,0(sp)
   111dc:	dec00104 	addi	sp,sp,4
   111e0:	f800283a 	ret

000111e4 <setDDSFre>:

void setDDSFre()
{
   111e4:	defffd04 	addi	sp,sp,-12
   111e8:	dfc00215 	stw	ra,8(sp)
   111ec:	df000115 	stw	fp,4(sp)
   111f0:	df000104 	addi	fp,sp,4
	AD9833_WaveSeting(FInfo.CurFre, 0, SIN_WAVE, 0);
   111f4:	010000b4 	movhi	r4,2
   111f8:	2131ec04 	addi	r4,r4,-14416
   111fc:	20800017 	ldw	r2,0(r4)
   11200:	20c00117 	ldw	r3,4(r4)
   11204:	d8000015 	stw	zero,0(sp)
   11208:	01c00044 	movi	r7,1
   1120c:	000d883a 	mov	r6,zero
   11210:	1009883a 	mov	r4,r2
   11214:	180b883a 	mov	r5,r3
   11218:	00107740 	call	10774 <AD9833_WaveSeting>
	IOWR_ALTERA_AVALON_PIO_DATA(PIO_INPUT_BASE, FInfo.divideFre);
   1121c:	008000b4 	movhi	r2,2
   11220:	10b1ec04 	addi	r2,r2,-14416
   11224:	10c00417 	ldw	r3,16(r2)
   11228:	008000b4 	movhi	r2,2
   1122c:	10881c04 	addi	r2,r2,8304
   11230:	10c00035 	stwio	r3,0(r2)
	IOWR_ALTERA_AVALON_PIO_DATA(PIO_OUTPUT_BASE, FInfo.divideFre);
   11234:	008000b4 	movhi	r2,2
   11238:	10b1ec04 	addi	r2,r2,-14416
   1123c:	10c00417 	ldw	r3,16(r2)
   11240:	008000b4 	movhi	r2,2
   11244:	10882004 	addi	r2,r2,8320
   11248:	10c00035 	stwio	r3,0(r2)

	IOWR_ALTERA_AVALON_PIO_DATA(PIO_RST_BASE,0);
   1124c:	0007883a 	mov	r3,zero
   11250:	008000b4 	movhi	r2,2
   11254:	10882804 	addi	r2,r2,8352
   11258:	10c00035 	stwio	r3,0(r2)
	delay();
   1125c:	0011ba80 	call	11ba8 <delay>
	IOWR_ALTERA_AVALON_PIO_DATA(PIO_RST_BASE,1);
   11260:	00c00044 	movi	r3,1
   11264:	008000b4 	movhi	r2,2
   11268:	10882804 	addi	r2,r2,8352
   1126c:	10c00035 	stwio	r3,0(r2)
	IOWR_ALTERA_AVALON_PIO_DATA(PIO_START_BASE,1);
   11270:	00c00044 	movi	r3,1
   11274:	008000b4 	movhi	r2,2
   11278:	10882404 	addi	r2,r2,8336
   1127c:	10c00035 	stwio	r3,0(r2)

	if (FInfo.divideFre <= 200000 && FInfo.divideFre > 20000) {
   11280:	008000b4 	movhi	r2,2
   11284:	10b1ec04 	addi	r2,r2,-14416
   11288:	10c00417 	ldw	r3,16(r2)
   1128c:	008000f4 	movhi	r2,3
   11290:	10835004 	addi	r2,r2,3392
   11294:	10c00d16 	blt	r2,r3,112cc <setDDSFre+0xe8>
   11298:	008000b4 	movhi	r2,2
   1129c:	10b1ec04 	addi	r2,r2,-14416
   112a0:	10800417 	ldw	r2,16(r2)
   112a4:	10938850 	cmplti	r2,r2,20001
   112a8:	1000081e 	bne	r2,zero,112cc <setDDSFre+0xe8>
		FInfo.divideFre = FInfo.divideFre - 2000;
   112ac:	008000b4 	movhi	r2,2
   112b0:	10b1ec04 	addi	r2,r2,-14416
   112b4:	10800417 	ldw	r2,16(r2)
   112b8:	10fe0c04 	addi	r3,r2,-2000
   112bc:	008000b4 	movhi	r2,2
   112c0:	10b1ec04 	addi	r2,r2,-14416
   112c4:	10c00415 	stw	r3,16(r2)
   112c8:	00004706 	br	113e8 <setDDSFre+0x204>
	}
	else if (FInfo.divideFre <= 20000 && FInfo.divideFre > 2000) {
   112cc:	008000b4 	movhi	r2,2
   112d0:	10b1ec04 	addi	r2,r2,-14416
   112d4:	10800417 	ldw	r2,16(r2)
   112d8:	10938848 	cmpgei	r2,r2,20001
   112dc:	10000d1e 	bne	r2,zero,11314 <setDDSFre+0x130>
   112e0:	008000b4 	movhi	r2,2
   112e4:	10b1ec04 	addi	r2,r2,-14416
   112e8:	10800417 	ldw	r2,16(r2)
   112ec:	1081f450 	cmplti	r2,r2,2001
   112f0:	1000081e 	bne	r2,zero,11314 <setDDSFre+0x130>
		FInfo.divideFre = FInfo.divideFre - 200;
   112f4:	008000b4 	movhi	r2,2
   112f8:	10b1ec04 	addi	r2,r2,-14416
   112fc:	10800417 	ldw	r2,16(r2)
   11300:	10ffce04 	addi	r3,r2,-200
   11304:	008000b4 	movhi	r2,2
   11308:	10b1ec04 	addi	r2,r2,-14416
   1130c:	10c00415 	stw	r3,16(r2)
   11310:	00003506 	br	113e8 <setDDSFre+0x204>
	}
	else if (FInfo.divideFre <= 2000 && FInfo.divideFre > 200) {
   11314:	008000b4 	movhi	r2,2
   11318:	10b1ec04 	addi	r2,r2,-14416
   1131c:	10800417 	ldw	r2,16(r2)
   11320:	1081f448 	cmpgei	r2,r2,2001
   11324:	10000d1e 	bne	r2,zero,1135c <setDDSFre+0x178>
   11328:	008000b4 	movhi	r2,2
   1132c:	10b1ec04 	addi	r2,r2,-14416
   11330:	10800417 	ldw	r2,16(r2)
   11334:	10803250 	cmplti	r2,r2,201
   11338:	1000081e 	bne	r2,zero,1135c <setDDSFre+0x178>
		FInfo.divideFre = FInfo.divideFre - 20;
   1133c:	008000b4 	movhi	r2,2
   11340:	10b1ec04 	addi	r2,r2,-14416
   11344:	10800417 	ldw	r2,16(r2)
   11348:	10fffb04 	addi	r3,r2,-20
   1134c:	008000b4 	movhi	r2,2
   11350:	10b1ec04 	addi	r2,r2,-14416
   11354:	10c00415 	stw	r3,16(r2)
   11358:	00002306 	br	113e8 <setDDSFre+0x204>
	}
	else if (FInfo.divideFre <= 200 && FInfo.divideFre > 20) {
   1135c:	008000b4 	movhi	r2,2
   11360:	10b1ec04 	addi	r2,r2,-14416
   11364:	10800417 	ldw	r2,16(r2)
   11368:	10803248 	cmpgei	r2,r2,201
   1136c:	10000d1e 	bne	r2,zero,113a4 <setDDSFre+0x1c0>
   11370:	008000b4 	movhi	r2,2
   11374:	10b1ec04 	addi	r2,r2,-14416
   11378:	10800417 	ldw	r2,16(r2)
   1137c:	10800550 	cmplti	r2,r2,21
   11380:	1000081e 	bne	r2,zero,113a4 <setDDSFre+0x1c0>
		FInfo.divideFre = FInfo.divideFre - 2;
   11384:	008000b4 	movhi	r2,2
   11388:	10b1ec04 	addi	r2,r2,-14416
   1138c:	10800417 	ldw	r2,16(r2)
   11390:	10ffff84 	addi	r3,r2,-2
   11394:	008000b4 	movhi	r2,2
   11398:	10b1ec04 	addi	r2,r2,-14416
   1139c:	10c00415 	stw	r3,16(r2)
   113a0:	00001106 	br	113e8 <setDDSFre+0x204>
	}
	else if (FInfo.divideFre <= 20 && FInfo.divideFre > 2) {
   113a4:	008000b4 	movhi	r2,2
   113a8:	10b1ec04 	addi	r2,r2,-14416
   113ac:	10800417 	ldw	r2,16(r2)
   113b0:	10800548 	cmpgei	r2,r2,21
   113b4:	10000c1e 	bne	r2,zero,113e8 <setDDSFre+0x204>
   113b8:	008000b4 	movhi	r2,2
   113bc:	10b1ec04 	addi	r2,r2,-14416
   113c0:	10800417 	ldw	r2,16(r2)
   113c4:	108000d0 	cmplti	r2,r2,3
   113c8:	1000071e 	bne	r2,zero,113e8 <setDDSFre+0x204>
		FInfo.divideFre = FInfo.divideFre - 1;
   113cc:	008000b4 	movhi	r2,2
   113d0:	10b1ec04 	addi	r2,r2,-14416
   113d4:	10800417 	ldw	r2,16(r2)
   113d8:	10ffffc4 	addi	r3,r2,-1
   113dc:	008000b4 	movhi	r2,2
   113e0:	10b1ec04 	addi	r2,r2,-14416
   113e4:	10c00415 	stw	r3,16(r2)
	}

	FInfo.CurFre = 3125000 / (float)FInfo.divideFre;
   113e8:	008000b4 	movhi	r2,2
   113ec:	10b1ec04 	addi	r2,r2,-14416
   113f0:	10800417 	ldw	r2,16(r2)
   113f4:	1009883a 	mov	r4,r2
   113f8:	0015dc80 	call	15dc8 <__floatsisf>
   113fc:	1007883a 	mov	r3,r2
   11400:	180b883a 	mov	r5,r3
   11404:	01128ff4 	movhi	r4,19007
   11408:	212f0804 	addi	r4,r4,-17376
   1140c:	00150380 	call	15038 <__divsf3>
   11410:	1007883a 	mov	r3,r2
   11414:	1805883a 	mov	r2,r3
   11418:	1009883a 	mov	r4,r2
   1141c:	00183fc0 	call	183fc <__extendsfdf2>
   11420:	1009883a 	mov	r4,r2
   11424:	180b883a 	mov	r5,r3
   11428:	008000b4 	movhi	r2,2
   1142c:	10b1ec04 	addi	r2,r2,-14416
   11430:	11000015 	stw	r4,0(r2)
   11434:	11400115 	stw	r5,4(r2)

//	LOG_DEBUG("next fre %d", (int)(FInfo.CurFre));
//	LOG_DEBUG("next num %d", FInfo.divideFre);
	if(FInfo.divideFre <= 3) {
   11438:	008000b4 	movhi	r2,2
   1143c:	10b1ec04 	addi	r2,r2,-14416
   11440:	10800417 	ldw	r2,16(r2)
   11444:	10800108 	cmpgei	r2,r2,4
   11448:	10000f1e 	bne	r2,zero,11488 <setDDSFre+0x2a4>
		FInfo.endTest = 1;
   1144c:	008000b4 	movhi	r2,2
   11450:	10b1ec04 	addi	r2,r2,-14416
   11454:	00c00044 	movi	r3,1
   11458:	10c00515 	stw	r3,20(r2)
		LOG_DEBUG("end test ");
   1145c:	01c000b4 	movhi	r7,2
   11460:	39ed1304 	addi	r7,r7,-19380
   11464:	01801504 	movi	r6,84
   11468:	014000b4 	movhi	r5,2
   1146c:	296cd004 	addi	r5,r5,-19648
   11470:	010000b4 	movhi	r4,2
   11474:	212cd404 	addi	r4,r4,-19632
   11478:	00187d40 	call	187d4 <printf>
   1147c:	010000b4 	movhi	r4,2
   11480:	212cda04 	addi	r4,r4,-19608
   11484:	00188c40 	call	188c4 <puts>
	}

	uart_input.receive_flag = 0;
   11488:	008000b4 	movhi	r2,2
   1148c:	10aeda04 	addi	r2,r2,-17560
   11490:	10000015 	stw	zero,0(r2)
	uart_output.receive_flag = 0;
   11494:	008000b4 	movhi	r2,2
   11498:	10af1204 	addi	r2,r2,-17336
   1149c:	10000015 	stw	zero,0(r2)
}
   114a0:	0001883a 	nop
   114a4:	e037883a 	mov	sp,fp
   114a8:	dfc00117 	ldw	ra,4(sp)
   114ac:	df000017 	ldw	fp,0(sp)
   114b0:	dec00204 	addi	sp,sp,8
   114b4:	f800283a 	ret

000114b8 <testIsOver>:

int testIsOver()
{
   114b8:	deffff04 	addi	sp,sp,-4
   114bc:	df000015 	stw	fp,0(sp)
   114c0:	d839883a 	mov	fp,sp
//	return 0;
	return FInfo.endTest;
   114c4:	008000b4 	movhi	r2,2
   114c8:	10b1ec04 	addi	r2,r2,-14416
   114cc:	10800517 	ldw	r2,20(r2)
}
   114d0:	e037883a 	mov	sp,fp
   114d4:	df000017 	ldw	fp,0(sp)
   114d8:	dec00104 	addi	sp,sp,4
   114dc:	f800283a 	ret

000114e0 <beginFFT>:

void beginFFT()
{
   114e0:	deffbd04 	addi	sp,sp,-268
   114e4:	dfc04215 	stw	ra,264(sp)
   114e8:	df004115 	stw	fp,260(sp)
   114ec:	dc004015 	stw	r16,256(sp)
   114f0:	df004104 	addi	fp,sp,260
	Complex result[SIZE];
	FFT(input,result,SIZE);
   114f4:	01800804 	movi	r6,32
   114f8:	e17fbf04 	addi	r5,fp,-260
   114fc:	010000b4 	movhi	r4,2
   11500:	2131ac04 	addi	r4,r4,-14672
   11504:	0010e6c0 	call	10e6c <FFT>

	Result.inputIm = result[1].imagin;
   11508:	e0ffc217 	ldw	r3,-248(fp)
   1150c:	008000b4 	movhi	r2,2
   11510:	10b1f704 	addi	r2,r2,-14372
   11514:	10c00115 	stw	r3,4(r2)
	Result.inputRe = result[1].real;
   11518:	e0ffc117 	ldw	r3,-252(fp)
   1151c:	008000b4 	movhi	r2,2
   11520:	10b1f704 	addi	r2,r2,-14372
   11524:	10c00015 	stw	r3,0(r2)
//	LOG_DEBUG("OK");
	printf("complex(%d, %d),\r\n", (int)(Result.inputRe * 10000), (int)(Result.inputIm * 10000));
   11528:	008000b4 	movhi	r2,2
   1152c:	10b1f704 	addi	r2,r2,-14372
   11530:	10c00017 	ldw	r3,0(r2)
   11534:	01518734 	movhi	r5,17948
   11538:	29500004 	addi	r5,r5,16384
   1153c:	1809883a 	mov	r4,r3
   11540:	00154780 	call	15478 <__mulsf3>
   11544:	1007883a 	mov	r3,r2
   11548:	1805883a 	mov	r2,r3
   1154c:	1009883a 	mov	r4,r2
   11550:	0015d580 	call	15d58 <__fixsfsi>
   11554:	1021883a 	mov	r16,r2
   11558:	008000b4 	movhi	r2,2
   1155c:	10b1f704 	addi	r2,r2,-14372
   11560:	10c00117 	ldw	r3,4(r2)
   11564:	01518734 	movhi	r5,17948
   11568:	29500004 	addi	r5,r5,16384
   1156c:	1809883a 	mov	r4,r3
   11570:	00154780 	call	15478 <__mulsf3>
   11574:	1007883a 	mov	r3,r2
   11578:	1805883a 	mov	r2,r3
   1157c:	1009883a 	mov	r4,r2
   11580:	0015d580 	call	15d58 <__fixsfsi>
   11584:	100d883a 	mov	r6,r2
   11588:	800b883a 	mov	r5,r16
   1158c:	010000b4 	movhi	r4,2
   11590:	212cdb04 	addi	r4,r4,-19604
   11594:	00187d40 	call	187d4 <printf>

	FFT(output,result,SIZE);
   11598:	01800804 	movi	r6,32
   1159c:	e17fbf04 	addi	r5,fp,-260
   115a0:	010000b4 	movhi	r4,2
   115a4:	2131cc04 	addi	r4,r4,-14544
   115a8:	0010e6c0 	call	10e6c <FFT>
	Result.outIm = result[1].imagin;
   115ac:	e0ffc217 	ldw	r3,-248(fp)
   115b0:	008000b4 	movhi	r2,2
   115b4:	10b1f704 	addi	r2,r2,-14372
   115b8:	10c00315 	stw	r3,12(r2)
	Result.outRe = result[1].real;
   115bc:	e0ffc117 	ldw	r3,-252(fp)
   115c0:	008000b4 	movhi	r2,2
   115c4:	10b1f704 	addi	r2,r2,-14372
   115c8:	10c00215 	stw	r3,8(r2)


	Result.fre = FInfo.CurFre;
   115cc:	010000b4 	movhi	r4,2
   115d0:	2131ec04 	addi	r4,r4,-14416
   115d4:	20800017 	ldw	r2,0(r4)
   115d8:	20c00117 	ldw	r3,4(r4)
   115dc:	010000b4 	movhi	r4,2
   115e0:	2131f704 	addi	r4,r4,-14372
   115e4:	20800415 	stw	r2,16(r4)
   115e8:	20c00515 	stw	r3,20(r4)
}
   115ec:	0001883a 	nop
   115f0:	e6ffff04 	addi	sp,fp,-4
   115f4:	dfc00217 	ldw	ra,8(sp)
   115f8:	df000117 	ldw	fp,4(sp)
   115fc:	dc000017 	ldw	r16,0(sp)
   11600:	dec00304 	addi	sp,sp,12
   11604:	f800283a 	ret

00011608 <sendMessage>:

void sendMessage()
{
   11608:	deffd104 	addi	sp,sp,-188
   1160c:	dfc02e15 	stw	ra,184(sp)
   11610:	df002d15 	stw	fp,180(sp)
   11614:	dcc02c15 	stw	r19,176(sp)
   11618:	dc802b15 	stw	r18,172(sp)
   1161c:	dc402a15 	stw	r17,168(sp)
   11620:	dc002915 	stw	r16,164(sp)
   11624:	df002d04 	addi	fp,sp,180
	unsigned char str[150] = {0};
   11628:	e0ffd604 	addi	r3,fp,-168
   1162c:	00802584 	movi	r2,150
   11630:	100d883a 	mov	r6,r2
   11634:	000b883a 	mov	r5,zero
   11638:	1809883a 	mov	r4,r3
   1163c:	00187780 	call	18778 <memset>

	sprintf(str,"{\"start\":\"data\",\"inRe\":%d,\"inIm\":%d,\"outRe\":%d,\"outIm\":%d,\"fre\":%u,\"end\":\"end\"}\n",
			(int)(Result.inputRe * 100000),(int)(Result.inputIm * 100000),(int)(Result.outRe * 100000),
   11640:	008000b4 	movhi	r2,2
   11644:	10b1f704 	addi	r2,r2,-14372
   11648:	10c00017 	ldw	r3,0(r2)
   1164c:	0151f0f4 	movhi	r5,18371
   11650:	29540004 	addi	r5,r5,20480
   11654:	1809883a 	mov	r4,r3
   11658:	00154780 	call	15478 <__mulsf3>
   1165c:	1007883a 	mov	r3,r2
   11660:	1805883a 	mov	r2,r3

void sendMessage()
{
	unsigned char str[150] = {0};

	sprintf(str,"{\"start\":\"data\",\"inRe\":%d,\"inIm\":%d,\"outRe\":%d,\"outIm\":%d,\"fre\":%u,\"end\":\"end\"}\n",
   11664:	1009883a 	mov	r4,r2
   11668:	0015d580 	call	15d58 <__fixsfsi>
   1166c:	1025883a 	mov	r18,r2
			(int)(Result.inputRe * 100000),(int)(Result.inputIm * 100000),(int)(Result.outRe * 100000),
   11670:	008000b4 	movhi	r2,2
   11674:	10b1f704 	addi	r2,r2,-14372
   11678:	10c00117 	ldw	r3,4(r2)
   1167c:	0151f0f4 	movhi	r5,18371
   11680:	29540004 	addi	r5,r5,20480
   11684:	1809883a 	mov	r4,r3
   11688:	00154780 	call	15478 <__mulsf3>
   1168c:	1007883a 	mov	r3,r2
   11690:	1805883a 	mov	r2,r3

void sendMessage()
{
	unsigned char str[150] = {0};

	sprintf(str,"{\"start\":\"data\",\"inRe\":%d,\"inIm\":%d,\"outRe\":%d,\"outIm\":%d,\"fre\":%u,\"end\":\"end\"}\n",
   11694:	1009883a 	mov	r4,r2
   11698:	0015d580 	call	15d58 <__fixsfsi>
   1169c:	1027883a 	mov	r19,r2
			(int)(Result.inputRe * 100000),(int)(Result.inputIm * 100000),(int)(Result.outRe * 100000),
   116a0:	008000b4 	movhi	r2,2
   116a4:	10b1f704 	addi	r2,r2,-14372
   116a8:	10c00217 	ldw	r3,8(r2)
   116ac:	0151f0f4 	movhi	r5,18371
   116b0:	29540004 	addi	r5,r5,20480
   116b4:	1809883a 	mov	r4,r3
   116b8:	00154780 	call	15478 <__mulsf3>
   116bc:	1007883a 	mov	r3,r2
   116c0:	1805883a 	mov	r2,r3

void sendMessage()
{
	unsigned char str[150] = {0};

	sprintf(str,"{\"start\":\"data\",\"inRe\":%d,\"inIm\":%d,\"outRe\":%d,\"outIm\":%d,\"fre\":%u,\"end\":\"end\"}\n",
   116c4:	1009883a 	mov	r4,r2
   116c8:	0015d580 	call	15d58 <__fixsfsi>
   116cc:	1021883a 	mov	r16,r2
			(int)(Result.inputRe * 100000),(int)(Result.inputIm * 100000),(int)(Result.outRe * 100000),
			(int)(Result.outIm * 100000),(unsigned int)(Result.fre * 100000));
   116d0:	008000b4 	movhi	r2,2
   116d4:	10b1f704 	addi	r2,r2,-14372
   116d8:	10c00317 	ldw	r3,12(r2)
   116dc:	0151f0f4 	movhi	r5,18371
   116e0:	29540004 	addi	r5,r5,20480
   116e4:	1809883a 	mov	r4,r3
   116e8:	00154780 	call	15478 <__mulsf3>
   116ec:	1007883a 	mov	r3,r2
   116f0:	1805883a 	mov	r2,r3

void sendMessage()
{
	unsigned char str[150] = {0};

	sprintf(str,"{\"start\":\"data\",\"inRe\":%d,\"inIm\":%d,\"outRe\":%d,\"outIm\":%d,\"fre\":%u,\"end\":\"end\"}\n",
   116f4:	1009883a 	mov	r4,r2
   116f8:	0015d580 	call	15d58 <__fixsfsi>
   116fc:	1023883a 	mov	r17,r2
			(int)(Result.inputRe * 100000),(int)(Result.inputIm * 100000),(int)(Result.outRe * 100000),
			(int)(Result.outIm * 100000),(unsigned int)(Result.fre * 100000));
   11700:	010000b4 	movhi	r4,2
   11704:	2131f704 	addi	r4,r4,-14372
   11708:	20800417 	ldw	r2,16(r4)
   1170c:	20c00517 	ldw	r3,20(r4)
   11710:	000d883a 	mov	r6,zero
   11714:	01d03e34 	movhi	r7,16632
   11718:	39da8004 	addi	r7,r7,27136
   1171c:	1009883a 	mov	r4,r2
   11720:	180b883a 	mov	r5,r3
   11724:	00171e40 	call	171e4 <__muldf3>
   11728:	1009883a 	mov	r4,r2
   1172c:	180b883a 	mov	r5,r3
   11730:	2005883a 	mov	r2,r4
   11734:	2807883a 	mov	r3,r5

void sendMessage()
{
	unsigned char str[150] = {0};

	sprintf(str,"{\"start\":\"data\",\"inRe\":%d,\"inIm\":%d,\"outRe\":%d,\"outIm\":%d,\"fre\":%u,\"end\":\"end\"}\n",
   11738:	1009883a 	mov	r4,r2
   1173c:	180b883a 	mov	r5,r3
   11740:	00149480 	call	14948 <__fixunsdfsi>
   11744:	d8800215 	stw	r2,8(sp)
   11748:	dc400115 	stw	r17,4(sp)
   1174c:	dc000015 	stw	r16,0(sp)
   11750:	980f883a 	mov	r7,r19
   11754:	900d883a 	mov	r6,r18
   11758:	014000b4 	movhi	r5,2
   1175c:	296ce004 	addi	r5,r5,-19584
   11760:	e13fd604 	addi	r4,fp,-168
   11764:	001893c0 	call	1893c <sprintf>
			(int)(Result.inputRe * 100000),(int)(Result.inputIm * 100000),(int)(Result.outRe * 100000),
			(int)(Result.outIm * 100000),(unsigned int)(Result.fre * 100000));
//	log_hex(str,strlen(str));
	uart.send_string(strlen(str),str);
   11768:	008000b4 	movhi	r2,2
   1176c:	10aea204 	addi	r2,r2,-17784
   11770:	14003517 	ldw	r16,212(r2)
   11774:	e13fd604 	addi	r4,fp,-168
   11778:	00189e40 	call	189e4 <strlen>
   1177c:	e17fd604 	addi	r5,fp,-168
   11780:	1009883a 	mov	r4,r2
   11784:	803ee83a 	callr	r16
	delay();
   11788:	0011ba80 	call	11ba8 <delay>
}
   1178c:	0001883a 	nop
   11790:	e6fffc04 	addi	sp,fp,-16
   11794:	dfc00517 	ldw	ra,20(sp)
   11798:	df000417 	ldw	fp,16(sp)
   1179c:	dcc00317 	ldw	r19,12(sp)
   117a0:	dc800217 	ldw	r18,8(sp)
   117a4:	dc400117 	ldw	r17,4(sp)
   117a8:	dc000017 	ldw	r16,0(sp)
   117ac:	dec00604 	addi	sp,sp,24
   117b0:	f800283a 	ret

000117b4 <sampleIsReady>:

int sampleIsReady()
{
   117b4:	deffff04 	addi	sp,sp,-4
   117b8:	df000015 	stw	fp,0(sp)
   117bc:	d839883a 	mov	fp,sp
//	return 1;
	return uart_input.receive_flag && uart_output.receive_flag;
   117c0:	008000b4 	movhi	r2,2
   117c4:	10aeda04 	addi	r2,r2,-17560
   117c8:	10800017 	ldw	r2,0(r2)
   117cc:	10000626 	beq	r2,zero,117e8 <sampleIsReady+0x34>
   117d0:	008000b4 	movhi	r2,2
   117d4:	10af1204 	addi	r2,r2,-17336
   117d8:	10800017 	ldw	r2,0(r2)
   117dc:	10000226 	beq	r2,zero,117e8 <sampleIsReady+0x34>
   117e0:	00800044 	movi	r2,1
   117e4:	00000106 	br	117ec <sampleIsReady+0x38>
   117e8:	0005883a 	mov	r2,zero
//	return uart_input.receive_flag;
}
   117ec:	e037883a 	mov	sp,fp
   117f0:	df000017 	ldw	fp,0(sp)
   117f4:	dec00104 	addi	sp,sp,4
   117f8:	f800283a 	ret

000117fc <init>:

void init()
{
   117fc:	defffe04 	addi	sp,sp,-8
   11800:	dfc00115 	stw	ra,4(sp)
   11804:	df000015 	stw	fp,0(sp)
   11808:	d839883a 	mov	fp,sp
	memset(&FInfo, 0, sizeof(FInfo));
   1180c:	01800604 	movi	r6,24
   11810:	000b883a 	mov	r5,zero
   11814:	010000b4 	movhi	r4,2
   11818:	2131ec04 	addi	r4,r4,-14416
   1181c:	00187780 	call	18778 <memset>
	memset(&ReceiveMessage, 0, sizeof(ReceiveMessage));
   11820:	01800504 	movi	r6,20
   11824:	000b883a 	mov	r5,zero
   11828:	010000b4 	movhi	r4,2
   1182c:	2131f204 	addi	r4,r4,-14392
   11830:	00187780 	call	18778 <memset>
	memset(&Result, 0, sizeof(Result));
   11834:	01800604 	movi	r6,24
   11838:	000b883a 	mov	r5,zero
   1183c:	010000b4 	movhi	r4,2
   11840:	2131f704 	addi	r4,r4,-14372
   11844:	00187780 	call	18778 <memset>
}
   11848:	0001883a 	nop
   1184c:	e037883a 	mov	sp,fp
   11850:	dfc00117 	ldw	ra,4(sp)
   11854:	df000017 	ldw	fp,0(sp)
   11858:	dec00204 	addi	sp,sp,8
   1185c:	f800283a 	ret

00011860 <show>:

void show(OutputMessage Result) {
   11860:	defffb04 	addi	sp,sp,-20
   11864:	df000015 	stw	fp,0(sp)
   11868:	d839883a 	mov	fp,sp
   1186c:	e1000115 	stw	r4,4(fp)
   11870:	e1400215 	stw	r5,8(fp)
   11874:	e1800315 	stw	r6,12(fp)
   11878:	e1c00415 	stw	r7,16(fp)
//	LOG_DEBUG("inputRe: %d", (int)(Result.inputRe));
//	LOG_DEBUG("inputIm: %d", (int)(Result.inputIm));
//	LOG_DEBUG("outRe: %d", (int)(Result.outRe));
//	LOG_DEBUG("outIm: %d", (int)(Result.outIm));
//	LOG_DEBUG("fre: %d", (int)(Result.fre));
}
   1187c:	0001883a 	nop
   11880:	e037883a 	mov	sp,fp
   11884:	df000017 	ldw	fp,0(sp)
   11888:	dec00504 	addi	sp,sp,20
   1188c:	f800283a 	ret

00011890 <msg_proc>:

int msg_proc(unsigned char *data, int length)
{
   11890:	defffc04 	addi	sp,sp,-16
   11894:	dfc00315 	stw	ra,12(sp)
   11898:	df000215 	stw	fp,8(sp)
   1189c:	df000204 	addi	fp,sp,8
   118a0:	e13ffe15 	stw	r4,-8(fp)
   118a4:	e17fff15 	stw	r5,-4(fp)
	if(NULL != strstr(data, "S f"))
   118a8:	014000b4 	movhi	r5,2
   118ac:	296cf504 	addi	r5,r5,-19500
   118b0:	e13ffe17 	ldw	r4,-8(fp)
   118b4:	0018a000 	call	18a00 <strstr>
   118b8:	10001326 	beq	r2,zero,11908 <msg_proc+0x78>
	{
		ReceiveMessage.getMessege = 1;
   118bc:	008000b4 	movhi	r2,2
   118c0:	10b1f204 	addi	r2,r2,-14392
   118c4:	00c00044 	movi	r3,1
   118c8:	10c00415 	stw	r3,16(r2)
		FInfo.CurFre = 15.625;
   118cc:	008000b4 	movhi	r2,2
   118d0:	10b1ec04 	addi	r2,r2,-14416
   118d4:	10000015 	stw	zero,0(r2)
   118d8:	00d00bf4 	movhi	r3,16431
   118dc:	18d00004 	addi	r3,r3,16384
   118e0:	10c00115 	stw	r3,4(r2)
		FInfo.divideFre = 100000;
   118e4:	008000b4 	movhi	r2,2
   118e8:	10b1ec04 	addi	r2,r2,-14416
   118ec:	00c000b4 	movhi	r3,2
   118f0:	18e1a804 	addi	r3,r3,-31072
   118f4:	10c00415 	stw	r3,16(r2)
		FInfo.endTest = 0;
   118f8:	008000b4 	movhi	r2,2
   118fc:	10b1ec04 	addi	r2,r2,-14416
   11900:	10000515 	stw	zero,20(r2)
   11904:	00000806 	br	11928 <msg_proc+0x98>

//		LOG_DEBUG("start");
	}
	else if(NULL != strstr(data, "stop"))
   11908:	014000b4 	movhi	r5,2
   1190c:	296cf604 	addi	r5,r5,-19496
   11910:	e13ffe17 	ldw	r4,-8(fp)
   11914:	0018a000 	call	18a00 <strstr>
   11918:	10000326 	beq	r2,zero,11928 <msg_proc+0x98>
	{
		ReceiveMessage.getMessege = 0;
   1191c:	008000b4 	movhi	r2,2
   11920:	10b1f204 	addi	r2,r2,-14392
   11924:	10000415 	stw	zero,16(r2)
//		LOG_DEBUG("end");
	}
	return 0;
   11928:	0005883a 	mov	r2,zero
}
   1192c:	e037883a 	mov	sp,fp
   11930:	dfc00117 	ldw	ra,4(sp)
   11934:	df000017 	ldw	fp,0(sp)
   11938:	dec00204 	addi	sp,sp,8
   1193c:	f800283a 	ret

00011940 <main>:
extern unsigned char inputData[64];
extern unsigned char outputData[64];

int main()
{
   11940:	defff904 	addi	sp,sp,-28
   11944:	dfc00615 	stw	ra,24(sp)
   11948:	df000515 	stw	fp,20(sp)
   1194c:	dc000415 	stw	r16,16(sp)
   11950:	df000504 	addi	fp,sp,20
	LOG_DEBUG("Hello from Nios II!");
   11954:	d1e00004 	addi	r7,gp,-32768
   11958:	01802b04 	movi	r6,172
   1195c:	014000b4 	movhi	r5,2
   11960:	296cd004 	addi	r5,r5,-19648
   11964:	010000b4 	movhi	r4,2
   11968:	212cf804 	addi	r4,r4,-19488
   1196c:	00187d40 	call	187d4 <printf>
   11970:	010000b4 	movhi	r4,2
   11974:	212cda04 	addi	r4,r4,-19608
   11978:	00188c40 	call	188c4 <puts>
	int i = 0,j = 0;
   1197c:	e03ffc15 	stw	zero,-16(fp)
   11980:	e03ffd15 	stw	zero,-12(fp)
	char str = "{\"start\":\"finished\",\"end\":\"end\"}\n";
   11984:	008000b4 	movhi	r2,2
   11988:	10ad0104 	addi	r2,r2,-19452
   1198c:	e0bffe05 	stb	r2,-8(fp)
	uart.init();
   11990:	008000b4 	movhi	r2,2
   11994:	10aea204 	addi	r2,r2,-17784
   11998:	10803617 	ldw	r2,216(r2)
   1199c:	103ee83a 	callr	r2
	uart_input.init();
   119a0:	008000b4 	movhi	r2,2
   119a4:	10aeda04 	addi	r2,r2,-17560
   119a8:	10803617 	ldw	r2,216(r2)
   119ac:	103ee83a 	callr	r2
	uart_output.init();
   119b0:	008000b4 	movhi	r2,2
   119b4:	10af1204 	addi	r2,r2,-17336
   119b8:	10803617 	ldw	r2,216(r2)
   119bc:	103ee83a 	callr	r2

	init();
   119c0:	00117fc0 	call	117fc <init>
	FInfo.CurFre = 15.625;
   119c4:	008000b4 	movhi	r2,2
   119c8:	10b1ec04 	addi	r2,r2,-14416
   119cc:	10000015 	stw	zero,0(r2)
   119d0:	00d00bf4 	movhi	r3,16431
   119d4:	18d00004 	addi	r3,r3,16384
   119d8:	10c00115 	stw	r3,4(r2)
	FInfo.divideFre = 200000;
   119dc:	008000b4 	movhi	r2,2
   119e0:	10b1ec04 	addi	r2,r2,-14416
   119e4:	00c000f4 	movhi	r3,3
   119e8:	18c35004 	addi	r3,r3,3392
   119ec:	10c00415 	stw	r3,16(r2)
	FInfo.endTest = 0;
   119f0:	008000b4 	movhi	r2,2
   119f4:	10b1ec04 	addi	r2,r2,-14416
   119f8:	10000515 	stw	zero,20(r2)

	for(i = 0; ;i++)
   119fc:	e03ffc15 	stw	zero,-16(fp)
	{
		if(uart.receive_flag == 1)
   11a00:	008000b4 	movhi	r2,2
   11a04:	10aea204 	addi	r2,r2,-17784
   11a08:	10800017 	ldw	r2,0(r2)
   11a0c:	10800058 	cmpnei	r2,r2,1
   11a10:	1000051e 	bne	r2,zero,11a28 <main+0xe8>
		{
			j = 1;
   11a14:	00800044 	movi	r2,1
   11a18:	e0bffd15 	stw	r2,-12(fp)
			uart.receive_flag = 0;
   11a1c:	008000b4 	movhi	r2,2
   11a20:	10aea204 	addi	r2,r2,-17784
   11a24:	10000015 	stw	zero,0(r2)
		}
		if(j != 0)
   11a28:	e0bffd17 	ldw	r2,-12(fp)
   11a2c:	10002626 	beq	r2,zero,11ac8 <main+0x188>
		{
			j++;
   11a30:	e0bffd17 	ldw	r2,-12(fp)
   11a34:	10800044 	addi	r2,r2,1
   11a38:	e0bffd15 	stw	r2,-12(fp)
			if(j > 1000)
   11a3c:	e0bffd17 	ldw	r2,-12(fp)
   11a40:	1080fa50 	cmplti	r2,r2,1001
   11a44:	1000201e 	bne	r2,zero,11ac8 <main+0x188>
			{
				LOG_DEBUG("wifi recieve %d data:", uart.receive_count);
   11a48:	008000b4 	movhi	r2,2
   11a4c:	10aea204 	addi	r2,r2,-17784
   11a50:	10800117 	ldw	r2,4(r2)
   11a54:	d8800015 	stw	r2,0(sp)
   11a58:	d1e00004 	addi	r7,gp,-32768
   11a5c:	01803104 	movi	r6,196
   11a60:	014000b4 	movhi	r5,2
   11a64:	296cd004 	addi	r5,r5,-19648
   11a68:	010000b4 	movhi	r4,2
   11a6c:	212d0a04 	addi	r4,r4,-19416
   11a70:	00187d40 	call	187d4 <printf>
   11a74:	010000b4 	movhi	r4,2
   11a78:	212cda04 	addi	r4,r4,-19608
   11a7c:	00188c40 	call	188c4 <puts>
				log_hex(uart.receive_buffer, uart.receive_count);
   11a80:	008000b4 	movhi	r2,2
   11a84:	10aea204 	addi	r2,r2,-17784
   11a88:	10800117 	ldw	r2,4(r2)
   11a8c:	100b883a 	mov	r5,r2
   11a90:	010000b4 	movhi	r4,2
   11a94:	212ea404 	addi	r4,r4,-17776
   11a98:	0011be80 	call	11be8 <log_hex>
				msg_proc(uart.receive_buffer, uart.receive_count);
   11a9c:	008000b4 	movhi	r2,2
   11aa0:	10aea204 	addi	r2,r2,-17784
   11aa4:	10800117 	ldw	r2,4(r2)
   11aa8:	100b883a 	mov	r5,r2
   11aac:	010000b4 	movhi	r4,2
   11ab0:	212ea404 	addi	r4,r4,-17776
   11ab4:	00118900 	call	11890 <msg_proc>
				uart.receive_count = 0;
   11ab8:	008000b4 	movhi	r2,2
   11abc:	10aea204 	addi	r2,r2,-17784
   11ac0:	10000115 	stw	zero,4(r2)
				j = 0;
   11ac4:	e03ffd15 	stw	zero,-12(fp)
			}
		}

		if(getBeginMessge())
   11ac8:	00111bc0 	call	111bc <getBeginMessge>
   11acc:	10003126 	beq	r2,zero,11b94 <main+0x254>
		{
			if(testIsOver())
   11ad0:	00114b80 	call	114b8 <testIsOver>
   11ad4:	10001226 	beq	r2,zero,11b20 <main+0x1e0>
			{
				uart.send_string(strlen(str),str);
   11ad8:	008000b4 	movhi	r2,2
   11adc:	10aea204 	addi	r2,r2,-17784
   11ae0:	14003517 	ldw	r16,212(r2)
   11ae4:	e0bffe07 	ldb	r2,-8(fp)
   11ae8:	1009883a 	mov	r4,r2
   11aec:	00189e40 	call	189e4 <strlen>
   11af0:	1007883a 	mov	r3,r2
   11af4:	e0bffe07 	ldb	r2,-8(fp)
   11af8:	100b883a 	mov	r5,r2
   11afc:	1809883a 	mov	r4,r3
   11b00:	803ee83a 	callr	r16
				FInfo.endTest = 0;
   11b04:	008000b4 	movhi	r2,2
   11b08:	10b1ec04 	addi	r2,r2,-14416
   11b0c:	10000515 	stw	zero,20(r2)
				ReceiveMessage.getMessege = 0;
   11b10:	008000b4 	movhi	r2,2
   11b14:	10b1f204 	addi	r2,r2,-14392
   11b18:	10000415 	stw	zero,16(r2)
				continue;
   11b1c:	00001e06 	br	11b98 <main+0x258>
		else
		{
			continue;
		}

		setDDSFre();
   11b20:	00111e40 	call	111e4 <setDDSFre>
		while(!sampleIsReady());
   11b24:	0001883a 	nop
   11b28:	00117b40 	call	117b4 <sampleIsReady>
   11b2c:	103ffe26 	beq	r2,zero,11b28 <_gp+0xfffedac8>
		parseAdData(input, uart_input.receive_buffer);
   11b30:	014000b4 	movhi	r5,2
   11b34:	296edc04 	addi	r5,r5,-17552
   11b38:	010000b4 	movhi	r4,2
   11b3c:	2131ac04 	addi	r4,r4,-14672
   11b40:	00101fc0 	call	101fc <parseAdData>
		parseAdData(output, uart_output.receive_buffer);
   11b44:	014000b4 	movhi	r5,2
   11b48:	296f1404 	addi	r5,r5,-17328
   11b4c:	010000b4 	movhi	r4,2
   11b50:	2131cc04 	addi	r4,r4,-14544
   11b54:	00101fc0 	call	101fc <parseAdData>
		beginFFT();
   11b58:	00114e00 	call	114e0 <beginFFT>
		IOWR_ALTERA_AVALON_PIO_DATA(PIO_START_BASE,0);
   11b5c:	0007883a 	mov	r3,zero
   11b60:	008000b4 	movhi	r2,2
   11b64:	10882404 	addi	r2,r2,8336
   11b68:	10c00035 	stwio	r3,0(r2)
		IOWR_ALTERA_AVALON_PIO_DATA(PIO_RST_BASE,0);
   11b6c:	0007883a 	mov	r3,zero
   11b70:	008000b4 	movhi	r2,2
   11b74:	10882804 	addi	r2,r2,8352
   11b78:	10c00035 	stwio	r3,0(r2)
		sendMessage();
   11b7c:	00116080 	call	11608 <sendMessage>
		if(j > 0)
   11b80:	e0bffd17 	ldw	r2,-12(fp)
   11b84:	0080040e 	bge	zero,r2,11b98 <main+0x258>
		{
			j = 1000;
   11b88:	0080fa04 	movi	r2,1000
   11b8c:	e0bffd15 	stw	r2,-12(fp)
   11b90:	00000106 	br	11b98 <main+0x258>
				continue;
			}
		}
		else
		{
			continue;
   11b94:	0001883a 	nop
	init();
	FInfo.CurFre = 15.625;
	FInfo.divideFre = 200000;
	FInfo.endTest = 0;

	for(i = 0; ;i++)
   11b98:	e0bffc17 	ldw	r2,-16(fp)
   11b9c:	10800044 	addi	r2,r2,1
   11ba0:	e0bffc15 	stw	r2,-16(fp)
		if(j > 0)
		{
			j = 1000;
		}
//		show(Result);
	}
   11ba4:	003f9606 	br	11a00 <_gp+0xfffed9a0>

00011ba8 <delay>:
	LOG_DEBUG("end main");
	return 0;
}

void delay() {
   11ba8:	defffe04 	addi	sp,sp,-8
   11bac:	df000115 	stw	fp,4(sp)
   11bb0:	df000104 	addi	fp,sp,4
	int i = 0;
   11bb4:	e03fff15 	stw	zero,-4(fp)
	for(; i < 100; i ++);
   11bb8:	00000306 	br	11bc8 <delay+0x20>
   11bbc:	e0bfff17 	ldw	r2,-4(fp)
   11bc0:	10800044 	addi	r2,r2,1
   11bc4:	e0bfff15 	stw	r2,-4(fp)
   11bc8:	e0bfff17 	ldw	r2,-4(fp)
   11bcc:	10801910 	cmplti	r2,r2,100
   11bd0:	103ffa1e 	bne	r2,zero,11bbc <_gp+0xfffedb5c>
}
   11bd4:	0001883a 	nop
   11bd8:	e037883a 	mov	sp,fp
   11bdc:	df000017 	ldw	fp,0(sp)
   11be0:	dec00104 	addi	sp,sp,4
   11be4:	f800283a 	ret

00011be8 <log_hex>:
 * 02  30 34 39 30 31 36 38 30 00 00 00 00 00 00 00 00     04901680........
 * 03  00 00 00 00 00 00 00 00 00 00 00 00                 ............
 *
 */
void log_hex(const char* data, int length)
{
   11be8:	defffa04 	addi	sp,sp,-24
   11bec:	dfc00515 	stw	ra,20(sp)
   11bf0:	df000415 	stw	fp,16(sp)
   11bf4:	df000404 	addi	fp,sp,16
   11bf8:	e13ffe15 	stw	r4,-8(fp)
   11bfc:	e17fff15 	stw	r5,-4(fp)
    int i = 0, j = 0;
   11c00:	e03ffc15 	stw	zero,-16(fp)
   11c04:	e03ffd15 	stw	zero,-12(fp)

    printf("    ");
   11c08:	010000b4 	movhi	r4,2
   11c0c:	212d1604 	addi	r4,r4,-19368
   11c10:	00187d40 	call	187d4 <printf>
    for (i  = 0; i < 16; i++)
   11c14:	e03ffc15 	stw	zero,-16(fp)
   11c18:	00000706 	br	11c38 <log_hex+0x50>
    {
        printf("%X  ", i);
   11c1c:	e17ffc17 	ldw	r5,-16(fp)
   11c20:	010000b4 	movhi	r4,2
   11c24:	212d1804 	addi	r4,r4,-19360
   11c28:	00187d40 	call	187d4 <printf>
void log_hex(const char* data, int length)
{
    int i = 0, j = 0;

    printf("    ");
    for (i  = 0; i < 16; i++)
   11c2c:	e0bffc17 	ldw	r2,-16(fp)
   11c30:	10800044 	addi	r2,r2,1
   11c34:	e0bffc15 	stw	r2,-16(fp)
   11c38:	e0bffc17 	ldw	r2,-16(fp)
   11c3c:	10800410 	cmplti	r2,r2,16
   11c40:	103ff61e 	bne	r2,zero,11c1c <_gp+0xfffedbbc>
    {
        printf("%X  ", i);
    }
    printf("    ");
   11c44:	010000b4 	movhi	r4,2
   11c48:	212d1604 	addi	r4,r4,-19368
   11c4c:	00187d40 	call	187d4 <printf>
    for (i = 0; i < 16; i++)
   11c50:	e03ffc15 	stw	zero,-16(fp)
   11c54:	00000706 	br	11c74 <log_hex+0x8c>
    {
        printf("%X", i);
   11c58:	e17ffc17 	ldw	r5,-16(fp)
   11c5c:	010000b4 	movhi	r4,2
   11c60:	212d1a04 	addi	r4,r4,-19352
   11c64:	00187d40 	call	187d4 <printf>
    for (i  = 0; i < 16; i++)
    {
        printf("%X  ", i);
    }
    printf("    ");
    for (i = 0; i < 16; i++)
   11c68:	e0bffc17 	ldw	r2,-16(fp)
   11c6c:	10800044 	addi	r2,r2,1
   11c70:	e0bffc15 	stw	r2,-16(fp)
   11c74:	e0bffc17 	ldw	r2,-16(fp)
   11c78:	10800410 	cmplti	r2,r2,16
   11c7c:	103ff61e 	bne	r2,zero,11c58 <_gp+0xfffedbf8>
    {
        printf("%X", i);
    }

    printf("\r\n");
   11c80:	010000b4 	movhi	r4,2
   11c84:	212d1b04 	addi	r4,r4,-19348
   11c88:	00188c40 	call	188c4 <puts>

    for (i = 0; i < length; i += 16)
   11c8c:	e03ffc15 	stw	zero,-16(fp)
   11c90:	00007306 	br	11e60 <log_hex+0x278>
    {
        printf("%02d  ", i / 16 + 1);
   11c94:	e0bffc17 	ldw	r2,-16(fp)
   11c98:	1000010e 	bge	r2,zero,11ca0 <log_hex+0xb8>
   11c9c:	108003c4 	addi	r2,r2,15
   11ca0:	1005d13a 	srai	r2,r2,4
   11ca4:	10800044 	addi	r2,r2,1
   11ca8:	100b883a 	mov	r5,r2
   11cac:	010000b4 	movhi	r4,2
   11cb0:	212d1c04 	addi	r4,r4,-19344
   11cb4:	00187d40 	call	187d4 <printf>
        for (j = i; j < i + 16 && j < length; j++)
   11cb8:	e0bffc17 	ldw	r2,-16(fp)
   11cbc:	e0bffd15 	stw	r2,-12(fp)
   11cc0:	00000f06 	br	11d00 <log_hex+0x118>
        {
            printf("%02x ", data[j] & 0xff);
   11cc4:	e0bffd17 	ldw	r2,-12(fp)
   11cc8:	e0fffe17 	ldw	r3,-8(fp)
   11ccc:	1885883a 	add	r2,r3,r2
   11cd0:	10800003 	ldbu	r2,0(r2)
   11cd4:	10803fcc 	andi	r2,r2,255
   11cd8:	1080201c 	xori	r2,r2,128
   11cdc:	10bfe004 	addi	r2,r2,-128
   11ce0:	10803fcc 	andi	r2,r2,255
   11ce4:	100b883a 	mov	r5,r2
   11ce8:	010000b4 	movhi	r4,2
   11cec:	212d1e04 	addi	r4,r4,-19336
   11cf0:	00187d40 	call	187d4 <printf>
    printf("\r\n");

    for (i = 0; i < length; i += 16)
    {
        printf("%02d  ", i / 16 + 1);
        for (j = i; j < i + 16 && j < length; j++)
   11cf4:	e0bffd17 	ldw	r2,-12(fp)
   11cf8:	10800044 	addi	r2,r2,1
   11cfc:	e0bffd15 	stw	r2,-12(fp)
   11d00:	e0bffc17 	ldw	r2,-16(fp)
   11d04:	10800404 	addi	r2,r2,16
   11d08:	e0fffd17 	ldw	r3,-12(fp)
   11d0c:	1880030e 	bge	r3,r2,11d1c <log_hex+0x134>
   11d10:	e0fffd17 	ldw	r3,-12(fp)
   11d14:	e0bfff17 	ldw	r2,-4(fp)
   11d18:	18bfea16 	blt	r3,r2,11cc4 <_gp+0xfffedc64>
        {
            printf("%02x ", data[j] & 0xff);
        }
        if (j == length && length % 16)
   11d1c:	e0fffd17 	ldw	r3,-12(fp)
   11d20:	e0bfff17 	ldw	r2,-4(fp)
   11d24:	1880191e 	bne	r3,r2,11d8c <log_hex+0x1a4>
   11d28:	e0bfff17 	ldw	r2,-4(fp)
   11d2c:	108003cc 	andi	r2,r2,15
   11d30:	10001626 	beq	r2,zero,11d8c <log_hex+0x1a4>
        {
            for (j = 0; j < (16 - length % 16); j++)
   11d34:	e03ffd15 	stw	zero,-12(fp)
   11d38:	00000606 	br	11d54 <log_hex+0x16c>
            {
                printf("   ");
   11d3c:	010000b4 	movhi	r4,2
   11d40:	212d2004 	addi	r4,r4,-19328
   11d44:	00187d40 	call	187d4 <printf>
        {
            printf("%02x ", data[j] & 0xff);
        }
        if (j == length && length % 16)
        {
            for (j = 0; j < (16 - length % 16); j++)
   11d48:	e0bffd17 	ldw	r2,-12(fp)
   11d4c:	10800044 	addi	r2,r2,1
   11d50:	e0bffd15 	stw	r2,-12(fp)
   11d54:	e0ffff17 	ldw	r3,-4(fp)
   11d58:	00a00034 	movhi	r2,32768
   11d5c:	108003c4 	addi	r2,r2,15
   11d60:	1884703a 	and	r2,r3,r2
   11d64:	1000040e 	bge	r2,zero,11d78 <log_hex+0x190>
   11d68:	10bfffc4 	addi	r2,r2,-1
   11d6c:	00fffc04 	movi	r3,-16
   11d70:	10c4b03a 	or	r2,r2,r3
   11d74:	10800044 	addi	r2,r2,1
   11d78:	1007883a 	mov	r3,r2
   11d7c:	00800404 	movi	r2,16
   11d80:	10c5c83a 	sub	r2,r2,r3
   11d84:	e0fffd17 	ldw	r3,-12(fp)
   11d88:	18bfec16 	blt	r3,r2,11d3c <_gp+0xfffedcdc>
            {
                printf("   ");
            }
        }
        printf("    ");
   11d8c:	010000b4 	movhi	r4,2
   11d90:	212d1604 	addi	r4,r4,-19368
   11d94:	00187d40 	call	187d4 <printf>
        for (j = i; j < i + 16 && j < length; j++)
   11d98:	e0bffc17 	ldw	r2,-16(fp)
   11d9c:	e0bffd15 	stw	r2,-12(fp)
   11da0:	00002206 	br	11e2c <log_hex+0x244>
        {
            if (data[j] < 32 || data[j] >= 127)
   11da4:	e0bffd17 	ldw	r2,-12(fp)
   11da8:	e0fffe17 	ldw	r3,-8(fp)
   11dac:	1885883a 	add	r2,r3,r2
   11db0:	10800003 	ldbu	r2,0(r2)
   11db4:	10803fcc 	andi	r2,r2,255
   11db8:	1080201c 	xori	r2,r2,128
   11dbc:	10bfe004 	addi	r2,r2,-128
   11dc0:	10800810 	cmplti	r2,r2,32
   11dc4:	1000091e 	bne	r2,zero,11dec <log_hex+0x204>
   11dc8:	e0bffd17 	ldw	r2,-12(fp)
   11dcc:	e0fffe17 	ldw	r3,-8(fp)
   11dd0:	1885883a 	add	r2,r3,r2
   11dd4:	10800003 	ldbu	r2,0(r2)
   11dd8:	10803fcc 	andi	r2,r2,255
   11ddc:	1080201c 	xori	r2,r2,128
   11de0:	10bfe004 	addi	r2,r2,-128
   11de4:	10801fd8 	cmpnei	r2,r2,127
   11de8:	1000031e 	bne	r2,zero,11df8 <log_hex+0x210>
            {
                printf(".");
   11dec:	01000b84 	movi	r4,46
   11df0:	00188280 	call	18828 <putchar>
   11df4:	00000a06 	br	11e20 <log_hex+0x238>
            }
            else
            {
                printf("%c", data[j] & 0xff);
   11df8:	e0bffd17 	ldw	r2,-12(fp)
   11dfc:	e0fffe17 	ldw	r3,-8(fp)
   11e00:	1885883a 	add	r2,r3,r2
   11e04:	10800003 	ldbu	r2,0(r2)
   11e08:	10803fcc 	andi	r2,r2,255
   11e0c:	1080201c 	xori	r2,r2,128
   11e10:	10bfe004 	addi	r2,r2,-128
   11e14:	10803fcc 	andi	r2,r2,255
   11e18:	1009883a 	mov	r4,r2
   11e1c:	00188280 	call	18828 <putchar>
            {
                printf("   ");
            }
        }
        printf("    ");
        for (j = i; j < i + 16 && j < length; j++)
   11e20:	e0bffd17 	ldw	r2,-12(fp)
   11e24:	10800044 	addi	r2,r2,1
   11e28:	e0bffd15 	stw	r2,-12(fp)
   11e2c:	e0bffc17 	ldw	r2,-16(fp)
   11e30:	10800404 	addi	r2,r2,16
   11e34:	e0fffd17 	ldw	r3,-12(fp)
   11e38:	1880030e 	bge	r3,r2,11e48 <log_hex+0x260>
   11e3c:	e0fffd17 	ldw	r3,-12(fp)
   11e40:	e0bfff17 	ldw	r2,-4(fp)
   11e44:	18bfd716 	blt	r3,r2,11da4 <_gp+0xfffedd44>
            {
                printf("%c", data[j] & 0xff);
            }
        }

        printf("\r\n");
   11e48:	010000b4 	movhi	r4,2
   11e4c:	212d1b04 	addi	r4,r4,-19348
   11e50:	00188c40 	call	188c4 <puts>
        printf("%X", i);
    }

    printf("\r\n");

    for (i = 0; i < length; i += 16)
   11e54:	e0bffc17 	ldw	r2,-16(fp)
   11e58:	10800404 	addi	r2,r2,16
   11e5c:	e0bffc15 	stw	r2,-16(fp)
   11e60:	e0fffc17 	ldw	r3,-16(fp)
   11e64:	e0bfff17 	ldw	r2,-4(fp)
   11e68:	18bf8a16 	blt	r3,r2,11c94 <_gp+0xfffedc34>
            }
        }

        printf("\r\n");
    }
}
   11e6c:	0001883a 	nop
   11e70:	e037883a 	mov	sp,fp
   11e74:	dfc00117 	ldw	ra,4(sp)
   11e78:	df000017 	ldw	fp,0(sp)
   11e7c:	dec00204 	addi	sp,sp,8
   11e80:	f800283a 	ret

00011e84 <getStartMessge>:
 */

#include "message.h"

int getStartMessge(char* message)
{
   11e84:	defffd04 	addi	sp,sp,-12
   11e88:	dfc00215 	stw	ra,8(sp)
   11e8c:	df000115 	stw	fp,4(sp)
   11e90:	df000104 	addi	fp,sp,4
   11e94:	e13fff15 	stw	r4,-4(fp)
    return NULL != strchr(message,'S') && NULL != strchr(message,'E');
   11e98:	014014c4 	movi	r5,83
   11e9c:	e13fff17 	ldw	r4,-4(fp)
   11ea0:	00189b40 	call	189b4 <strchr>
   11ea4:	10000626 	beq	r2,zero,11ec0 <getStartMessge+0x3c>
   11ea8:	01401144 	movi	r5,69
   11eac:	e13fff17 	ldw	r4,-4(fp)
   11eb0:	00189b40 	call	189b4 <strchr>
   11eb4:	10000226 	beq	r2,zero,11ec0 <getStartMessge+0x3c>
   11eb8:	00800044 	movi	r2,1
   11ebc:	00000106 	br	11ec4 <getStartMessge+0x40>
   11ec0:	0005883a 	mov	r2,zero
}
   11ec4:	e037883a 	mov	sp,fp
   11ec8:	dfc00117 	ldw	ra,4(sp)
   11ecc:	df000017 	ldw	fp,0(sp)
   11ed0:	dec00204 	addi	sp,sp,8
   11ed4:	f800283a 	ret

00011ed8 <parseMessage>:

void parseMessage(char* result, TestMessage* message)
{
   11ed8:	defff804 	addi	sp,sp,-32
   11edc:	dfc00715 	stw	ra,28(sp)
   11ee0:	df000615 	stw	fp,24(sp)
   11ee4:	df000604 	addi	fp,sp,24
   11ee8:	e13ffe15 	stw	r4,-8(fp)
   11eec:	e17fff15 	stw	r5,-4(fp)
    char temp[8] = {0};
   11ef0:	e03ffc15 	stw	zero,-16(fp)
   11ef4:	e03ffd15 	stw	zero,-12(fp)

    //get start fre
    printf("message %s \n",result);
   11ef8:	e17ffe17 	ldw	r5,-8(fp)
   11efc:	010000b4 	movhi	r4,2
   11f00:	212d2104 	addi	r4,r4,-19324
   11f04:	00187d40 	call	187d4 <printf>

    char *cur = strchr(result, 'f') + 2;
   11f08:	01401984 	movi	r5,102
   11f0c:	e13ffe17 	ldw	r4,-8(fp)
   11f10:	00189b40 	call	189b4 <strchr>
   11f14:	10800084 	addi	r2,r2,2
   11f18:	e0bffa15 	stw	r2,-24(fp)
    char *space = strchr(cur, ' ');
   11f1c:	01400804 	movi	r5,32
   11f20:	e13ffa17 	ldw	r4,-24(fp)
   11f24:	00189b40 	call	189b4 <strchr>
   11f28:	e0bffb15 	stw	r2,-20(fp)
    memcpy(temp,cur, space - cur);
   11f2c:	e0fffb17 	ldw	r3,-20(fp)
   11f30:	e0bffa17 	ldw	r2,-24(fp)
   11f34:	1885c83a 	sub	r2,r3,r2
   11f38:	1007883a 	mov	r3,r2
   11f3c:	e0bffc04 	addi	r2,fp,-16
   11f40:	180d883a 	mov	r6,r3
   11f44:	e17ffa17 	ldw	r5,-24(fp)
   11f48:	1009883a 	mov	r4,r2
   11f4c:	00187500 	call	18750 <memcpy>
    message->startFre = atoi(temp);
   11f50:	e0bffc04 	addi	r2,fp,-16
   11f54:	1009883a 	mov	r4,r2
   11f58:	00187180 	call	18718 <atoi>
   11f5c:	1007883a 	mov	r3,r2
   11f60:	e0bfff17 	ldw	r2,-4(fp)
   11f64:	10c00015 	stw	r3,0(r2)
    printf("start fre %d \n", message->startFre);
   11f68:	e0bfff17 	ldw	r2,-4(fp)
   11f6c:	10800017 	ldw	r2,0(r2)
   11f70:	100b883a 	mov	r5,r2
   11f74:	010000b4 	movhi	r4,2
   11f78:	212d2504 	addi	r4,r4,-19308
   11f7c:	00187d40 	call	187d4 <printf>

    //get end fre
    cur = space + 1;
   11f80:	e0bffb17 	ldw	r2,-20(fp)
   11f84:	10800044 	addi	r2,r2,1
   11f88:	e0bffa15 	stw	r2,-24(fp)
    space = strchr(cur, ' ');
   11f8c:	01400804 	movi	r5,32
   11f90:	e13ffa17 	ldw	r4,-24(fp)
   11f94:	00189b40 	call	189b4 <strchr>
   11f98:	e0bffb15 	stw	r2,-20(fp)
    memset(temp, 0, 8);
   11f9c:	e0bffc04 	addi	r2,fp,-16
   11fa0:	01800204 	movi	r6,8
   11fa4:	000b883a 	mov	r5,zero
   11fa8:	1009883a 	mov	r4,r2
   11fac:	00187780 	call	18778 <memset>
    memcpy(temp,cur, space - cur);
   11fb0:	e0fffb17 	ldw	r3,-20(fp)
   11fb4:	e0bffa17 	ldw	r2,-24(fp)
   11fb8:	1885c83a 	sub	r2,r3,r2
   11fbc:	1007883a 	mov	r3,r2
   11fc0:	e0bffc04 	addi	r2,fp,-16
   11fc4:	180d883a 	mov	r6,r3
   11fc8:	e17ffa17 	ldw	r5,-24(fp)
   11fcc:	1009883a 	mov	r4,r2
   11fd0:	00187500 	call	18750 <memcpy>
    message->endFre = atoi(temp);
   11fd4:	e0bffc04 	addi	r2,fp,-16
   11fd8:	1009883a 	mov	r4,r2
   11fdc:	00187180 	call	18718 <atoi>
   11fe0:	1007883a 	mov	r3,r2
   11fe4:	e0bfff17 	ldw	r2,-4(fp)
   11fe8:	10c00115 	stw	r3,4(r2)
    printf("end fre %d \n",message->endFre);
   11fec:	e0bfff17 	ldw	r2,-4(fp)
   11ff0:	10800117 	ldw	r2,4(r2)
   11ff4:	100b883a 	mov	r5,r2
   11ff8:	010000b4 	movhi	r4,2
   11ffc:	212d2904 	addi	r4,r4,-19292
   12000:	00187d40 	call	187d4 <printf>

    //get num
    cur = strchr(cur, 'N') + 2;
   12004:	01401384 	movi	r5,78
   12008:	e13ffa17 	ldw	r4,-24(fp)
   1200c:	00189b40 	call	189b4 <strchr>
   12010:	10800084 	addi	r2,r2,2
   12014:	e0bffa15 	stw	r2,-24(fp)
    space = strchr(cur, ' ');
   12018:	01400804 	movi	r5,32
   1201c:	e13ffa17 	ldw	r4,-24(fp)
   12020:	00189b40 	call	189b4 <strchr>
   12024:	e0bffb15 	stw	r2,-20(fp)
    memset(temp, 0, 8);
   12028:	e0bffc04 	addi	r2,fp,-16
   1202c:	01800204 	movi	r6,8
   12030:	000b883a 	mov	r5,zero
   12034:	1009883a 	mov	r4,r2
   12038:	00187780 	call	18778 <memset>
    memcpy(temp,cur, space - cur);
   1203c:	e0fffb17 	ldw	r3,-20(fp)
   12040:	e0bffa17 	ldw	r2,-24(fp)
   12044:	1885c83a 	sub	r2,r3,r2
   12048:	1007883a 	mov	r3,r2
   1204c:	e0bffc04 	addi	r2,fp,-16
   12050:	180d883a 	mov	r6,r3
   12054:	e17ffa17 	ldw	r5,-24(fp)
   12058:	1009883a 	mov	r4,r2
   1205c:	00187500 	call	18750 <memcpy>
    message->sweepNum = atoi(temp);
   12060:	e0bffc04 	addi	r2,fp,-16
   12064:	1009883a 	mov	r4,r2
   12068:	00187180 	call	18718 <atoi>
   1206c:	1007883a 	mov	r3,r2
   12070:	e0bfff17 	ldw	r2,-4(fp)
   12074:	10c00215 	stw	r3,8(r2)
    printf("num %d \n",message->sweepNum);
   12078:	e0bfff17 	ldw	r2,-4(fp)
   1207c:	10800217 	ldw	r2,8(r2)
   12080:	100b883a 	mov	r5,r2
   12084:	010000b4 	movhi	r4,2
   12088:	212d2d04 	addi	r4,r4,-19276
   1208c:	00187d40 	call	187d4 <printf>

    //get form
    cur = strchr(cur, 'F') + 2;
   12090:	01401184 	movi	r5,70
   12094:	e13ffa17 	ldw	r4,-24(fp)
   12098:	00189b40 	call	189b4 <strchr>
   1209c:	10800084 	addi	r2,r2,2
   120a0:	e0bffa15 	stw	r2,-24(fp)
    memset(temp, 0, 8);
   120a4:	e0bffc04 	addi	r2,fp,-16
   120a8:	01800204 	movi	r6,8
   120ac:	000b883a 	mov	r5,zero
   120b0:	1009883a 	mov	r4,r2
   120b4:	00187780 	call	18778 <memset>
    memcpy(temp,cur, 1);
   120b8:	e0bffa17 	ldw	r2,-24(fp)
   120bc:	10800003 	ldbu	r2,0(r2)
   120c0:	e0bffc05 	stb	r2,-16(fp)
    message->showForm = atoi(temp);
   120c4:	e0bffc04 	addi	r2,fp,-16
   120c8:	1009883a 	mov	r4,r2
   120cc:	00187180 	call	18718 <atoi>
   120d0:	1007883a 	mov	r3,r2
   120d4:	e0bfff17 	ldw	r2,-4(fp)
   120d8:	10c00315 	stw	r3,12(r2)
    printf("form %d \n",message->showForm);
   120dc:	e0bfff17 	ldw	r2,-4(fp)
   120e0:	10800317 	ldw	r2,12(r2)
   120e4:	100b883a 	mov	r5,r2
   120e8:	010000b4 	movhi	r4,2
   120ec:	212d3004 	addi	r4,r4,-19264
   120f0:	00187d40 	call	187d4 <printf>

    message->getMessege = 1;
   120f4:	e0bfff17 	ldw	r2,-4(fp)
   120f8:	00c00044 	movi	r3,1
   120fc:	10c00415 	stw	r3,16(r2)
}
   12100:	0001883a 	nop
   12104:	e037883a 	mov	sp,fp
   12108:	dfc00117 	ldw	ra,4(sp)
   1210c:	df000017 	ldw	fp,0(sp)
   12110:	dec00204 	addi	sp,sp,8
   12114:	f800283a 	ret

00012118 <uart_send_byte>:
 *  * Description: 发送一个Byte
 *  * ======================================================================
 *  */

int uart_send_byte(unsigned char data)
{
   12118:	defffe04 	addi	sp,sp,-8
   1211c:	df000115 	stw	fp,4(sp)
   12120:	df000104 	addi	fp,sp,4
   12124:	2005883a 	mov	r2,r4
   12128:	e0bfff05 	stb	r2,-4(fp)
	UART->TXDATA.BITS.TRANSMIT_DATA = data;
   1212c:	008000b4 	movhi	r2,2
   12130:	10880004 	addi	r2,r2,8192
   12134:	e0ffff03 	ldbu	r3,-4(fp)
   12138:	10c00105 	stb	r3,4(r2)
	while(!UART->STATUS.BITS.TRDY);
   1213c:	0001883a 	nop
   12140:	008000b4 	movhi	r2,2
   12144:	10880004 	addi	r2,r2,8192
   12148:	10800217 	ldw	r2,8(r2)
   1214c:	1004d1ba 	srli	r2,r2,6
   12150:	1080004c 	andi	r2,r2,1
   12154:	10803fcc 	andi	r2,r2,255
   12158:	103ff926 	beq	r2,zero,12140 <_gp+0xfffee0e0>
	return 0;
   1215c:	0005883a 	mov	r2,zero
}
   12160:	e037883a 	mov	sp,fp
   12164:	df000017 	ldw	fp,0(sp)
   12168:	dec00104 	addi	sp,sp,4
   1216c:	f800283a 	ret

00012170 <uart_send_string>:
 * Description: 串口发送函数 *
 * ======================================================================
 * */

void uart_send_string(unsigned int len, unsigned char *str)
{
   12170:	defffc04 	addi	sp,sp,-16
   12174:	dfc00315 	stw	ra,12(sp)
   12178:	df000215 	stw	fp,8(sp)
   1217c:	df000204 	addi	fp,sp,8
   12180:	e13ffe15 	stw	r4,-8(fp)
   12184:	e17fff15 	stw	r5,-4(fp)
	while(len--)
   12188:	00000706 	br	121a8 <uart_send_string+0x38>
	{
		uart_send_byte(*str++);
   1218c:	e0bfff17 	ldw	r2,-4(fp)
   12190:	10c00044 	addi	r3,r2,1
   12194:	e0ffff15 	stw	r3,-4(fp)
   12198:	10800003 	ldbu	r2,0(r2)
   1219c:	10803fcc 	andi	r2,r2,255
   121a0:	1009883a 	mov	r4,r2
   121a4:	00121180 	call	12118 <uart_send_byte>
 * ======================================================================
 * */

void uart_send_string(unsigned int len, unsigned char *str)
{
	while(len--)
   121a8:	e0bffe17 	ldw	r2,-8(fp)
   121ac:	10ffffc4 	addi	r3,r2,-1
   121b0:	e0fffe15 	stw	r3,-8(fp)
   121b4:	103ff51e 	bne	r2,zero,1218c <_gp+0xfffee12c>
	{
		uart_send_byte(*str++);
	}
}
   121b8:	0001883a 	nop
   121bc:	e037883a 	mov	sp,fp
   121c0:	dfc00117 	ldw	ra,4(sp)
   121c4:	df000017 	ldw	fp,0(sp)
   121c8:	dec00204 	addi	sp,sp,8
   121cc:	f800283a 	ret

000121d0 <uart_init>:
 * Description: 串口初始化 *
 * ======================================================================
 */

int uart_init(void)
{
   121d0:	defffd04 	addi	sp,sp,-12
   121d4:	dfc00215 	stw	ra,8(sp)
   121d8:	df000115 	stw	fp,4(sp)
   121dc:	df000104 	addi	fp,sp,4
	set_baudrate(57600);
   121e0:	01384014 	movui	r4,57600
   121e4:	00125980 	call	12598 <set_baudrate>
	UART->CONTROL.BITS.IRRDY=1;
   121e8:	008000b4 	movhi	r2,2
   121ec:	10880004 	addi	r2,r2,8192
   121f0:	10c00317 	ldw	r3,12(r2)
   121f4:	18c02014 	ori	r3,r3,128
   121f8:	10c00315 	stw	r3,12(r2)
	UART->STATUS.WORD=0;
   121fc:	008000b4 	movhi	r2,2
   12200:	10880004 	addi	r2,r2,8192
   12204:	10000215 	stw	zero,8(r2)
	alt_ic_isr_register(UART_IRQ_INTERRUPT_CONTROLLER_ID,UART_IRQ,uart_ISR,NULL,0x0);
   12208:	d8000015 	stw	zero,0(sp)
   1220c:	000f883a 	mov	r7,zero
   12210:	01800074 	movhi	r6,1
   12214:	3188c704 	addi	r6,r6,8988
   12218:	01400044 	movi	r5,1
   1221c:	0009883a 	mov	r4,zero
   12220:	0019c6c0 	call	19c6c <alt_ic_isr_register>
	return 0;
   12224:	0005883a 	mov	r2,zero
}
   12228:	e037883a 	mov	sp,fp
   1222c:	dfc00117 	ldw	ra,4(sp)
   12230:	df000017 	ldw	fp,0(sp)
   12234:	dec00204 	addi	sp,sp,8
   12238:	f800283a 	ret

0001223c <uart_input_init>:

int uart_input_init(void) {
   1223c:	defffd04 	addi	sp,sp,-12
   12240:	dfc00215 	stw	ra,8(sp)
   12244:	df000115 	stw	fp,4(sp)
   12248:	df000104 	addi	fp,sp,4
	set_baudrate_input(115200);
   1224c:	010000b4 	movhi	r4,2
   12250:	21308004 	addi	r4,r4,-15872
   12254:	00126280 	call	12628 <set_baudrate_input>
	UART_INPUT->CONTROL.BITS.IRRDY=1;
   12258:	008000b4 	movhi	r2,2
   1225c:	10880804 	addi	r2,r2,8224
   12260:	10c00317 	ldw	r3,12(r2)
   12264:	18c02014 	ori	r3,r3,128
   12268:	10c00315 	stw	r3,12(r2)
	UART_INPUT->STATUS.WORD=0;
   1226c:	008000b4 	movhi	r2,2
   12270:	10880804 	addi	r2,r2,8224
   12274:	10000215 	stw	zero,8(r2)
	alt_ic_isr_register(UART_INPUT_IRQ_INTERRUPT_CONTROLLER_ID,UART_INPUT_IRQ,uart_input_ISR,NULL,0x0);
   12278:	d8000015 	stw	zero,0(sp)
   1227c:	000f883a 	mov	r7,zero
   12280:	01800074 	movhi	r6,1
   12284:	3188ec04 	addi	r6,r6,9136
   12288:	01400084 	movi	r5,2
   1228c:	0009883a 	mov	r4,zero
   12290:	0019c6c0 	call	19c6c <alt_ic_isr_register>
	return 0;
   12294:	0005883a 	mov	r2,zero
}
   12298:	e037883a 	mov	sp,fp
   1229c:	dfc00117 	ldw	ra,4(sp)
   122a0:	df000017 	ldw	fp,0(sp)
   122a4:	dec00204 	addi	sp,sp,8
   122a8:	f800283a 	ret

000122ac <uart_output_init>:

int uart_output_init(void) {
   122ac:	defffd04 	addi	sp,sp,-12
   122b0:	dfc00215 	stw	ra,8(sp)
   122b4:	df000115 	stw	fp,4(sp)
   122b8:	df000104 	addi	fp,sp,4
	set_baudrate_output(115200);
   122bc:	010000b4 	movhi	r4,2
   122c0:	21308004 	addi	r4,r4,-15872
   122c4:	00126b80 	call	126b8 <set_baudrate_output>
	UART_OUTPUT->CONTROL.BITS.IRRDY=1;
   122c8:	008000b4 	movhi	r2,2
   122cc:	10881004 	addi	r2,r2,8256
   122d0:	10c00317 	ldw	r3,12(r2)
   122d4:	18c02014 	ori	r3,r3,128
   122d8:	10c00315 	stw	r3,12(r2)
	UART_OUTPUT->STATUS.WORD=0;
   122dc:	008000b4 	movhi	r2,2
   122e0:	10881004 	addi	r2,r2,8256
   122e4:	10000215 	stw	zero,8(r2)
	alt_ic_isr_register(UART_OUTPUT_IRQ_INTERRUPT_CONTROLLER_ID,UART_OUTPUT_IRQ,uart_output_ISR,NULL,0x0);
   122e8:	d8000015 	stw	zero,0(sp)
   122ec:	000f883a 	mov	r7,zero
   122f0:	01800074 	movhi	r6,1
   122f4:	31892904 	addi	r6,r6,9380
   122f8:	014000c4 	movi	r5,3
   122fc:	0009883a 	mov	r4,zero
   12300:	0019c6c0 	call	19c6c <alt_ic_isr_register>
	return 0;
   12304:	0005883a 	mov	r2,zero
}
   12308:	e037883a 	mov	sp,fp
   1230c:	dfc00117 	ldw	ra,4(sp)
   12310:	df000017 	ldw	fp,0(sp)
   12314:	dec00204 	addi	sp,sp,8
   12318:	f800283a 	ret

0001231c <uart_ISR>:
 * Description: 串口中断服务函数 *
 * ======================================================================
 * */

static void uart_ISR(void *context)
{
   1231c:	defffe04 	addi	sp,sp,-8
   12320:	df000115 	stw	fp,4(sp)
   12324:	df000104 	addi	fp,sp,4
   12328:	e13fff15 	stw	r4,-4(fp)
	//等待状态寄存器RRDY置1，当RRDY为1时表示接收的数据已经传输到RXDATA中
	while(!(UART->STATUS.BITS.RRDY));
   1232c:	0001883a 	nop
   12330:	008000b4 	movhi	r2,2
   12334:	10880004 	addi	r2,r2,8192
   12338:	10800217 	ldw	r2,8(r2)
   1233c:	1004d1fa 	srli	r2,r2,7
   12340:	1080004c 	andi	r2,r2,1
   12344:	10803fcc 	andi	r2,r2,255
   12348:	103ff926 	beq	r2,zero,12330 <_gp+0xfffee2d0>
	uart.receive_buffer[uart.receive_count++] = UART->RXDATA.BITS.RECEIVE_DATA;
   1234c:	008000b4 	movhi	r2,2
   12350:	10aea204 	addi	r2,r2,-17784
   12354:	10c00117 	ldw	r3,4(r2)
   12358:	19000044 	addi	r4,r3,1
   1235c:	008000b4 	movhi	r2,2
   12360:	10aea204 	addi	r2,r2,-17784
   12364:	11000115 	stw	r4,4(r2)
   12368:	008000b4 	movhi	r2,2
   1236c:	10880004 	addi	r2,r2,8192
   12370:	10800003 	ldbu	r2,0(r2)
   12374:	1009883a 	mov	r4,r2
   12378:	008000b4 	movhi	r2,2
   1237c:	10aea204 	addi	r2,r2,-17784
   12380:	10c5883a 	add	r2,r2,r3
   12384:	10800204 	addi	r2,r2,8
   12388:	11000005 	stb	r4,0(r2)
	uart.receive_flag = 1;
   1238c:	008000b4 	movhi	r2,2
   12390:	10aea204 	addi	r2,r2,-17784
   12394:	00c00044 	movi	r3,1
   12398:	10c00015 	stw	r3,0(r2)
//		FInfo.log = 1;
//		uart.receive_buffer[uart.receive_count]='\0';
//		uart.receive_count=0;
//		uart.receive_flag=1;
//	}
}
   1239c:	0001883a 	nop
   123a0:	e037883a 	mov	sp,fp
   123a4:	df000017 	ldw	fp,0(sp)
   123a8:	dec00104 	addi	sp,sp,4
   123ac:	f800283a 	ret

000123b0 <uart_input_ISR>:

unsigned char inputData[65];

static void uart_input_ISR(void *context) {
   123b0:	defffd04 	addi	sp,sp,-12
   123b4:	dfc00215 	stw	ra,8(sp)
   123b8:	df000115 	stw	fp,4(sp)
   123bc:	df000104 	addi	fp,sp,4
   123c0:	e13fff15 	stw	r4,-4(fp)
	//等待状态寄存器RRDY置1，当RRDY为1时表示接收的数据已经传输到RXDATA中
	while(!(UART_INPUT->STATUS.BITS.RRDY));
   123c4:	0001883a 	nop
   123c8:	008000b4 	movhi	r2,2
   123cc:	10880804 	addi	r2,r2,8224
   123d0:	10800217 	ldw	r2,8(r2)
   123d4:	1004d1fa 	srli	r2,r2,7
   123d8:	1080004c 	andi	r2,r2,1
   123dc:	10803fcc 	andi	r2,r2,255
   123e0:	103ff926 	beq	r2,zero,123c8 <_gp+0xfffee368>
	uart_input.receive_buffer[uart_input.receive_count++] = UART_INPUT->RXDATA.BITS.RECEIVE_DATA;
   123e4:	008000b4 	movhi	r2,2
   123e8:	10aeda04 	addi	r2,r2,-17560
   123ec:	10c00117 	ldw	r3,4(r2)
   123f0:	19000044 	addi	r4,r3,1
   123f4:	008000b4 	movhi	r2,2
   123f8:	10aeda04 	addi	r2,r2,-17560
   123fc:	11000115 	stw	r4,4(r2)
   12400:	008000b4 	movhi	r2,2
   12404:	10880804 	addi	r2,r2,8224
   12408:	10800003 	ldbu	r2,0(r2)
   1240c:	1009883a 	mov	r4,r2
   12410:	008000b4 	movhi	r2,2
   12414:	10aeda04 	addi	r2,r2,-17560
   12418:	10c5883a 	add	r2,r2,r3
   1241c:	10800204 	addi	r2,r2,8
   12420:	11000005 	stb	r4,0(r2)
	if(uart_input.receive_count == 64){
   12424:	008000b4 	movhi	r2,2
   12428:	10aeda04 	addi	r2,r2,-17560
   1242c:	10800117 	ldw	r2,4(r2)
   12430:	10801018 	cmpnei	r2,r2,64
   12434:	1000151e 	bne	r2,zero,1248c <uart_input_ISR+0xdc>
		uart_input.receive_buffer[uart_input.receive_count]='\0';
   12438:	008000b4 	movhi	r2,2
   1243c:	10aeda04 	addi	r2,r2,-17560
   12440:	10c00117 	ldw	r3,4(r2)
   12444:	008000b4 	movhi	r2,2
   12448:	10aeda04 	addi	r2,r2,-17560
   1244c:	10c5883a 	add	r2,r2,r3
   12450:	10800204 	addi	r2,r2,8
   12454:	10000005 	stb	zero,0(r2)
		memcpy(inputData, uart_input.receive_buffer, 64);
   12458:	01801004 	movi	r6,64
   1245c:	014000b4 	movhi	r5,2
   12460:	296edc04 	addi	r5,r5,-17552
   12464:	010000b4 	movhi	r4,2
   12468:	21320d44 	addi	r4,r4,-14283
   1246c:	00187500 	call	18750 <memcpy>
//		LOG_DEBUG("uart input data:");
//		log_hex(inputData, 64);
		uart_input.receive_count=0;
   12470:	008000b4 	movhi	r2,2
   12474:	10aeda04 	addi	r2,r2,-17560
   12478:	10000115 	stw	zero,4(r2)
		uart_input.receive_flag=1;
   1247c:	008000b4 	movhi	r2,2
   12480:	10aeda04 	addi	r2,r2,-17560
   12484:	00c00044 	movi	r3,1
   12488:	10c00015 	stw	r3,0(r2)
	}
}
   1248c:	0001883a 	nop
   12490:	e037883a 	mov	sp,fp
   12494:	dfc00117 	ldw	ra,4(sp)
   12498:	df000017 	ldw	fp,0(sp)
   1249c:	dec00204 	addi	sp,sp,8
   124a0:	f800283a 	ret

000124a4 <uart_output_ISR>:

unsigned char outputData[65];

static void uart_output_ISR(void *context) {
   124a4:	defffd04 	addi	sp,sp,-12
   124a8:	dfc00215 	stw	ra,8(sp)
   124ac:	df000115 	stw	fp,4(sp)
   124b0:	df000104 	addi	fp,sp,4
   124b4:	e13fff15 	stw	r4,-4(fp)
	while(!(UART_OUTPUT->STATUS.BITS.RRDY));
   124b8:	0001883a 	nop
   124bc:	008000b4 	movhi	r2,2
   124c0:	10881004 	addi	r2,r2,8256
   124c4:	10800217 	ldw	r2,8(r2)
   124c8:	1004d1fa 	srli	r2,r2,7
   124cc:	1080004c 	andi	r2,r2,1
   124d0:	10803fcc 	andi	r2,r2,255
   124d4:	103ff926 	beq	r2,zero,124bc <_gp+0xfffee45c>
	uart_output.receive_buffer[uart_output.receive_count++] = UART_OUTPUT->RXDATA.BITS.RECEIVE_DATA;
   124d8:	008000b4 	movhi	r2,2
   124dc:	10af1204 	addi	r2,r2,-17336
   124e0:	10c00117 	ldw	r3,4(r2)
   124e4:	19000044 	addi	r4,r3,1
   124e8:	008000b4 	movhi	r2,2
   124ec:	10af1204 	addi	r2,r2,-17336
   124f0:	11000115 	stw	r4,4(r2)
   124f4:	008000b4 	movhi	r2,2
   124f8:	10881004 	addi	r2,r2,8256
   124fc:	10800003 	ldbu	r2,0(r2)
   12500:	1009883a 	mov	r4,r2
   12504:	008000b4 	movhi	r2,2
   12508:	10af1204 	addi	r2,r2,-17336
   1250c:	10c5883a 	add	r2,r2,r3
   12510:	10800204 	addi	r2,r2,8
   12514:	11000005 	stb	r4,0(r2)
	if(uart_output.receive_count == 64){
   12518:	008000b4 	movhi	r2,2
   1251c:	10af1204 	addi	r2,r2,-17336
   12520:	10800117 	ldw	r2,4(r2)
   12524:	10801018 	cmpnei	r2,r2,64
   12528:	1000151e 	bne	r2,zero,12580 <uart_output_ISR+0xdc>
		uart_output.receive_buffer[uart_output.receive_count]='\0';
   1252c:	008000b4 	movhi	r2,2
   12530:	10af1204 	addi	r2,r2,-17336
   12534:	10c00117 	ldw	r3,4(r2)
   12538:	008000b4 	movhi	r2,2
   1253c:	10af1204 	addi	r2,r2,-17336
   12540:	10c5883a 	add	r2,r2,r3
   12544:	10800204 	addi	r2,r2,8
   12548:	10000005 	stb	zero,0(r2)
		memcpy(outputData, uart_output.receive_buffer, 64);
   1254c:	01801004 	movi	r6,64
   12550:	014000b4 	movhi	r5,2
   12554:	296f1404 	addi	r5,r5,-17328
   12558:	010000b4 	movhi	r4,2
   1255c:	2131fd04 	addi	r4,r4,-14348
   12560:	00187500 	call	18750 <memcpy>
//		LOG_DEBUG("uart output data:");
//		log_hex(outputData, 64);
		uart_output.receive_count=0;
   12564:	008000b4 	movhi	r2,2
   12568:	10af1204 	addi	r2,r2,-17336
   1256c:	10000115 	stw	zero,4(r2)
		uart_output.receive_flag=1;
   12570:	008000b4 	movhi	r2,2
   12574:	10af1204 	addi	r2,r2,-17336
   12578:	00c00044 	movi	r3,1
   1257c:	10c00015 	stw	r3,0(r2)
	}
}
   12580:	0001883a 	nop
   12584:	e037883a 	mov	sp,fp
   12588:	dfc00117 	ldw	ra,4(sp)
   1258c:	df000017 	ldw	fp,0(sp)
   12590:	dec00204 	addi	sp,sp,8
   12594:	f800283a 	ret

00012598 <set_baudrate>:

int set_baudrate(unsigned int baudrate)
{
   12598:	defffc04 	addi	sp,sp,-16
   1259c:	dfc00315 	stw	ra,12(sp)
   125a0:	df000215 	stw	fp,8(sp)
   125a4:	dc000115 	stw	r16,4(sp)
   125a8:	df000204 	addi	fp,sp,8
   125ac:	e13ffe15 	stw	r4,-8(fp)
	UART->DIVISOR.WORD=(unsigned int)(ALT_CPU_FREQ/baudrate+0.5);
   125b0:	040000b4 	movhi	r16,2
   125b4:	84080004 	addi	r16,r16,8192
   125b8:	e17ffe17 	ldw	r5,-8(fp)
   125bc:	0100bef4 	movhi	r4,763
   125c0:	213c2004 	addi	r4,r4,-3968
   125c4:	0014ab40 	call	14ab4 <__udivsi3>
   125c8:	1009883a 	mov	r4,r2
   125cc:	00183540 	call	18354 <__floatunsidf>
   125d0:	1011883a 	mov	r8,r2
   125d4:	1813883a 	mov	r9,r3
   125d8:	000d883a 	mov	r6,zero
   125dc:	01cff834 	movhi	r7,16352
   125e0:	4009883a 	mov	r4,r8
   125e4:	480b883a 	mov	r5,r9
   125e8:	0015eec0 	call	15eec <__adddf3>
   125ec:	1009883a 	mov	r4,r2
   125f0:	180b883a 	mov	r5,r3
   125f4:	2005883a 	mov	r2,r4
   125f8:	2807883a 	mov	r3,r5
   125fc:	1009883a 	mov	r4,r2
   12600:	180b883a 	mov	r5,r3
   12604:	00149480 	call	14948 <__fixunsdfsi>
   12608:	80800415 	stw	r2,16(r16)
	return 0;
   1260c:	0005883a 	mov	r2,zero
}
   12610:	e6ffff04 	addi	sp,fp,-4
   12614:	dfc00217 	ldw	ra,8(sp)
   12618:	df000117 	ldw	fp,4(sp)
   1261c:	dc000017 	ldw	r16,0(sp)
   12620:	dec00304 	addi	sp,sp,12
   12624:	f800283a 	ret

00012628 <set_baudrate_input>:

int set_baudrate_input(unsigned int baudrate) {
   12628:	defffc04 	addi	sp,sp,-16
   1262c:	dfc00315 	stw	ra,12(sp)
   12630:	df000215 	stw	fp,8(sp)
   12634:	dc000115 	stw	r16,4(sp)
   12638:	df000204 	addi	fp,sp,8
   1263c:	e13ffe15 	stw	r4,-8(fp)
	UART_INPUT->DIVISOR.WORD=(unsigned int)(ALT_CPU_FREQ/baudrate+0.5);
   12640:	040000b4 	movhi	r16,2
   12644:	84080804 	addi	r16,r16,8224
   12648:	e17ffe17 	ldw	r5,-8(fp)
   1264c:	0100bef4 	movhi	r4,763
   12650:	213c2004 	addi	r4,r4,-3968
   12654:	0014ab40 	call	14ab4 <__udivsi3>
   12658:	1009883a 	mov	r4,r2
   1265c:	00183540 	call	18354 <__floatunsidf>
   12660:	1011883a 	mov	r8,r2
   12664:	1813883a 	mov	r9,r3
   12668:	000d883a 	mov	r6,zero
   1266c:	01cff834 	movhi	r7,16352
   12670:	4009883a 	mov	r4,r8
   12674:	480b883a 	mov	r5,r9
   12678:	0015eec0 	call	15eec <__adddf3>
   1267c:	1009883a 	mov	r4,r2
   12680:	180b883a 	mov	r5,r3
   12684:	2005883a 	mov	r2,r4
   12688:	2807883a 	mov	r3,r5
   1268c:	1009883a 	mov	r4,r2
   12690:	180b883a 	mov	r5,r3
   12694:	00149480 	call	14948 <__fixunsdfsi>
   12698:	80800415 	stw	r2,16(r16)
	return 0;
   1269c:	0005883a 	mov	r2,zero
}
   126a0:	e6ffff04 	addi	sp,fp,-4
   126a4:	dfc00217 	ldw	ra,8(sp)
   126a8:	df000117 	ldw	fp,4(sp)
   126ac:	dc000017 	ldw	r16,0(sp)
   126b0:	dec00304 	addi	sp,sp,12
   126b4:	f800283a 	ret

000126b8 <set_baudrate_output>:

int set_baudrate_output(unsigned int baudrate) {
   126b8:	defffc04 	addi	sp,sp,-16
   126bc:	dfc00315 	stw	ra,12(sp)
   126c0:	df000215 	stw	fp,8(sp)
   126c4:	dc000115 	stw	r16,4(sp)
   126c8:	df000204 	addi	fp,sp,8
   126cc:	e13ffe15 	stw	r4,-8(fp)
	UART_OUTPUT->DIVISOR.WORD=(unsigned int)(ALT_CPU_FREQ/baudrate+0.5);
   126d0:	040000b4 	movhi	r16,2
   126d4:	84081004 	addi	r16,r16,8256
   126d8:	e17ffe17 	ldw	r5,-8(fp)
   126dc:	0100bef4 	movhi	r4,763
   126e0:	213c2004 	addi	r4,r4,-3968
   126e4:	0014ab40 	call	14ab4 <__udivsi3>
   126e8:	1009883a 	mov	r4,r2
   126ec:	00183540 	call	18354 <__floatunsidf>
   126f0:	1011883a 	mov	r8,r2
   126f4:	1813883a 	mov	r9,r3
   126f8:	000d883a 	mov	r6,zero
   126fc:	01cff834 	movhi	r7,16352
   12700:	4009883a 	mov	r4,r8
   12704:	480b883a 	mov	r5,r9
   12708:	0015eec0 	call	15eec <__adddf3>
   1270c:	1009883a 	mov	r4,r2
   12710:	180b883a 	mov	r5,r3
   12714:	2005883a 	mov	r2,r4
   12718:	2807883a 	mov	r3,r5
   1271c:	1009883a 	mov	r4,r2
   12720:	180b883a 	mov	r5,r3
   12724:	00149480 	call	14948 <__fixunsdfsi>
   12728:	80800415 	stw	r2,16(r16)
	return 0;
   1272c:	0005883a 	mov	r2,zero
}
   12730:	e6ffff04 	addi	sp,fp,-4
   12734:	dfc00217 	ldw	ra,8(sp)
   12738:	df000117 	ldw	fp,4(sp)
   1273c:	dc000017 	ldw	r16,0(sp)
   12740:	dec00304 	addi	sp,sp,12
   12744:	f800283a 	ret

00012748 <cos>:
   12748:	00a00034 	movhi	r2,32768
   1274c:	defffa04 	addi	sp,sp,-24
   12750:	10bfffc4 	addi	r2,r2,-1
   12754:	00cffa74 	movhi	r3,16361
   12758:	dfc00515 	stw	ra,20(sp)
   1275c:	2884703a 	and	r2,r5,r2
   12760:	18c87ec4 	addi	r3,r3,8699
   12764:	1880180e 	bge	r3,r2,127c8 <cos+0x80>
   12768:	00dffc34 	movhi	r3,32752
   1276c:	18ffffc4 	addi	r3,r3,-1
   12770:	1880060e 	bge	r3,r2,1278c <cos+0x44>
   12774:	280f883a 	mov	r7,r5
   12778:	200d883a 	mov	r6,r4
   1277c:	00178fc0 	call	178fc <__subdf3>
   12780:	dfc00517 	ldw	ra,20(sp)
   12784:	dec00604 	addi	sp,sp,24
   12788:	f800283a 	ret
   1278c:	d9800104 	addi	r6,sp,4
   12790:	00129240 	call	12924 <__ieee754_rem_pio2>
   12794:	108000cc 	andi	r2,r2,3
   12798:	00c00044 	movi	r3,1
   1279c:	10c01726 	beq	r2,r3,127fc <cos+0xb4>
   127a0:	01000084 	movi	r4,2
   127a4:	11000e26 	beq	r2,r4,127e0 <cos+0x98>
   127a8:	10001c26 	beq	r2,zero,1281c <cos+0xd4>
   127ac:	d9800317 	ldw	r6,12(sp)
   127b0:	d9c00417 	ldw	r7,16(sp)
   127b4:	d9000117 	ldw	r4,4(sp)
   127b8:	d9400217 	ldw	r5,8(sp)
   127bc:	d8c00015 	stw	r3,0(sp)
   127c0:	00142c40 	call	142c4 <__kernel_sin>
   127c4:	003fee06 	br	12780 <_gp+0xfffee720>
   127c8:	000d883a 	mov	r6,zero
   127cc:	000f883a 	mov	r7,zero
   127d0:	00130900 	call	13090 <__kernel_cos>
   127d4:	dfc00517 	ldw	ra,20(sp)
   127d8:	dec00604 	addi	sp,sp,24
   127dc:	f800283a 	ret
   127e0:	d9800317 	ldw	r6,12(sp)
   127e4:	d9c00417 	ldw	r7,16(sp)
   127e8:	d9000117 	ldw	r4,4(sp)
   127ec:	d9400217 	ldw	r5,8(sp)
   127f0:	00130900 	call	13090 <__kernel_cos>
   127f4:	18e0003c 	xorhi	r3,r3,32768
   127f8:	003fe106 	br	12780 <_gp+0xfffee720>
   127fc:	d9800317 	ldw	r6,12(sp)
   12800:	d9c00417 	ldw	r7,16(sp)
   12804:	d9000117 	ldw	r4,4(sp)
   12808:	d9400217 	ldw	r5,8(sp)
   1280c:	d8800015 	stw	r2,0(sp)
   12810:	00142c40 	call	142c4 <__kernel_sin>
   12814:	18e0003c 	xorhi	r3,r3,32768
   12818:	003fd906 	br	12780 <_gp+0xfffee720>
   1281c:	d9800317 	ldw	r6,12(sp)
   12820:	d9c00417 	ldw	r7,16(sp)
   12824:	d9000117 	ldw	r4,4(sp)
   12828:	d9400217 	ldw	r5,8(sp)
   1282c:	00130900 	call	13090 <__kernel_cos>
   12830:	003fd306 	br	12780 <_gp+0xfffee720>

00012834 <sin>:
   12834:	00a00034 	movhi	r2,32768
   12838:	defffa04 	addi	sp,sp,-24
   1283c:	10bfffc4 	addi	r2,r2,-1
   12840:	00cffa74 	movhi	r3,16361
   12844:	dfc00515 	stw	ra,20(sp)
   12848:	2884703a 	and	r2,r5,r2
   1284c:	18c87ec4 	addi	r3,r3,8699
   12850:	1880180e 	bge	r3,r2,128b4 <sin+0x80>
   12854:	00dffc34 	movhi	r3,32752
   12858:	18ffffc4 	addi	r3,r3,-1
   1285c:	1880060e 	bge	r3,r2,12878 <sin+0x44>
   12860:	280f883a 	mov	r7,r5
   12864:	200d883a 	mov	r6,r4
   12868:	00178fc0 	call	178fc <__subdf3>
   1286c:	dfc00517 	ldw	ra,20(sp)
   12870:	dec00604 	addi	sp,sp,24
   12874:	f800283a 	ret
   12878:	d9800104 	addi	r6,sp,4
   1287c:	00129240 	call	12924 <__ieee754_rem_pio2>
   12880:	108000cc 	andi	r2,r2,3
   12884:	00c00044 	movi	r3,1
   12888:	10c01926 	beq	r2,r3,128f0 <sin+0xbc>
   1288c:	01000084 	movi	r4,2
   12890:	11000f26 	beq	r2,r4,128d0 <sin+0x9c>
   12894:	10001c26 	beq	r2,zero,12908 <sin+0xd4>
   12898:	d9800317 	ldw	r6,12(sp)
   1289c:	d9c00417 	ldw	r7,16(sp)
   128a0:	d9000117 	ldw	r4,4(sp)
   128a4:	d9400217 	ldw	r5,8(sp)
   128a8:	00130900 	call	13090 <__kernel_cos>
   128ac:	18e0003c 	xorhi	r3,r3,32768
   128b0:	003fee06 	br	1286c <_gp+0xfffee80c>
   128b4:	d8000015 	stw	zero,0(sp)
   128b8:	000d883a 	mov	r6,zero
   128bc:	000f883a 	mov	r7,zero
   128c0:	00142c40 	call	142c4 <__kernel_sin>
   128c4:	dfc00517 	ldw	ra,20(sp)
   128c8:	dec00604 	addi	sp,sp,24
   128cc:	f800283a 	ret
   128d0:	d9800317 	ldw	r6,12(sp)
   128d4:	d9c00417 	ldw	r7,16(sp)
   128d8:	d9000117 	ldw	r4,4(sp)
   128dc:	d9400217 	ldw	r5,8(sp)
   128e0:	d8c00015 	stw	r3,0(sp)
   128e4:	00142c40 	call	142c4 <__kernel_sin>
   128e8:	18e0003c 	xorhi	r3,r3,32768
   128ec:	003fdf06 	br	1286c <_gp+0xfffee80c>
   128f0:	d9800317 	ldw	r6,12(sp)
   128f4:	d9c00417 	ldw	r7,16(sp)
   128f8:	d9000117 	ldw	r4,4(sp)
   128fc:	d9400217 	ldw	r5,8(sp)
   12900:	00130900 	call	13090 <__kernel_cos>
   12904:	003fd906 	br	1286c <_gp+0xfffee80c>
   12908:	d9800317 	ldw	r6,12(sp)
   1290c:	d9c00417 	ldw	r7,16(sp)
   12910:	d9000117 	ldw	r4,4(sp)
   12914:	d9400217 	ldw	r5,8(sp)
   12918:	d8c00015 	stw	r3,0(sp)
   1291c:	00142c40 	call	142c4 <__kernel_sin>
   12920:	003fd206 	br	1286c <_gp+0xfffee80c>

00012924 <__ieee754_rem_pio2>:
   12924:	02200034 	movhi	r8,32768
   12928:	deffea04 	addi	sp,sp,-88
   1292c:	423fffc4 	addi	r8,r8,-1
   12930:	00cffa74 	movhi	r3,16361
   12934:	ddc01315 	stw	r23,76(sp)
   12938:	dc400d15 	stw	r17,52(sp)
   1293c:	dfc01515 	stw	ra,84(sp)
   12940:	df001415 	stw	fp,80(sp)
   12944:	dd801215 	stw	r22,72(sp)
   12948:	dd401115 	stw	r21,68(sp)
   1294c:	dd001015 	stw	r20,64(sp)
   12950:	dcc00f15 	stw	r19,60(sp)
   12954:	dc800e15 	stw	r18,56(sp)
   12958:	dc000c15 	stw	r16,48(sp)
   1295c:	2a2e703a 	and	r23,r5,r8
   12960:	18c87ec4 	addi	r3,r3,8699
   12964:	2823883a 	mov	r17,r5
   12968:	1dc0790e 	bge	r3,r23,12b50 <__ieee754_rem_pio2+0x22c>
   1296c:	009000f4 	movhi	r2,16387
   12970:	10b65ec4 	addi	r2,r2,-9861
   12974:	3021883a 	mov	r16,r6
   12978:	2027883a 	mov	r19,r4
   1297c:	15c02316 	blt	r2,r23,12a0c <__ieee754_rem_pio2+0xe8>
   12980:	01cffe74 	movhi	r7,16377
   12984:	39c87ec4 	addi	r7,r7,8699
   12988:	01951034 	movhi	r6,21568
   1298c:	01417a0e 	bge	zero,r5,12f78 <__ieee754_rem_pio2+0x654>
   12990:	00178fc0 	call	178fc <__subdf3>
   12994:	1025883a 	mov	r18,r2
   12998:	008ffe74 	movhi	r2,16377
   1299c:	10887ec4 	addi	r2,r2,8699
   129a0:	1823883a 	mov	r17,r3
   129a4:	b8808426 	beq	r23,r2,12bb8 <__ieee754_rem_pio2+0x294>
   129a8:	018698b4 	movhi	r6,6754
   129ac:	01cf7474 	movhi	r7,15825
   129b0:	3198cc44 	addi	r6,r6,25393
   129b4:	39ed1844 	addi	r7,r7,-19359
   129b8:	9009883a 	mov	r4,r18
   129bc:	180b883a 	mov	r5,r3
   129c0:	00178fc0 	call	178fc <__subdf3>
   129c4:	100d883a 	mov	r6,r2
   129c8:	180f883a 	mov	r7,r3
   129cc:	9009883a 	mov	r4,r18
   129d0:	880b883a 	mov	r5,r17
   129d4:	80800015 	stw	r2,0(r16)
   129d8:	80c00115 	stw	r3,4(r16)
   129dc:	00178fc0 	call	178fc <__subdf3>
   129e0:	018698b4 	movhi	r6,6754
   129e4:	01cf7474 	movhi	r7,15825
   129e8:	3198cc44 	addi	r6,r6,25393
   129ec:	39ed1844 	addi	r7,r7,-19359
   129f0:	1009883a 	mov	r4,r2
   129f4:	180b883a 	mov	r5,r3
   129f8:	00178fc0 	call	178fc <__subdf3>
   129fc:	80800215 	stw	r2,8(r16)
   12a00:	80c00315 	stw	r3,12(r16)
   12a04:	00800044 	movi	r2,1
   12a08:	00005606 	br	12b64 <__ieee754_rem_pio2+0x240>
   12a0c:	00904e74 	movhi	r2,16697
   12a10:	10887ec4 	addi	r2,r2,8699
   12a14:	15c0830e 	bge	r2,r23,12c24 <__ieee754_rem_pio2+0x300>
   12a18:	009ffc34 	movhi	r2,32752
   12a1c:	10bfffc4 	addi	r2,r2,-1
   12a20:	15c05c16 	blt	r2,r23,12b94 <__ieee754_rem_pio2+0x270>
   12a24:	b829d53a 	srai	r20,r23,20
   12a28:	a53efa84 	addi	r20,r20,-1046
   12a2c:	a024953a 	slli	r18,r20,20
   12a30:	bca5c83a 	sub	r18,r23,r18
   12a34:	900b883a 	mov	r5,r18
   12a38:	00181f80 	call	181f8 <__fixdfsi>
   12a3c:	1009883a 	mov	r4,r2
   12a40:	00182780 	call	18278 <__floatsidf>
   12a44:	9809883a 	mov	r4,r19
   12a48:	900b883a 	mov	r5,r18
   12a4c:	100d883a 	mov	r6,r2
   12a50:	180f883a 	mov	r7,r3
   12a54:	d8800215 	stw	r2,8(sp)
   12a58:	d8c00315 	stw	r3,12(sp)
   12a5c:	00178fc0 	call	178fc <__subdf3>
   12a60:	000d883a 	mov	r6,zero
   12a64:	01d05c34 	movhi	r7,16752
   12a68:	1009883a 	mov	r4,r2
   12a6c:	180b883a 	mov	r5,r3
   12a70:	00171e40 	call	171e4 <__muldf3>
   12a74:	180b883a 	mov	r5,r3
   12a78:	1009883a 	mov	r4,r2
   12a7c:	182b883a 	mov	r21,r3
   12a80:	102d883a 	mov	r22,r2
   12a84:	00181f80 	call	181f8 <__fixdfsi>
   12a88:	1009883a 	mov	r4,r2
   12a8c:	00182780 	call	18278 <__floatsidf>
   12a90:	100d883a 	mov	r6,r2
   12a94:	180f883a 	mov	r7,r3
   12a98:	b009883a 	mov	r4,r22
   12a9c:	a80b883a 	mov	r5,r21
   12aa0:	1027883a 	mov	r19,r2
   12aa4:	1825883a 	mov	r18,r3
   12aa8:	d8800415 	stw	r2,16(sp)
   12aac:	d8c00515 	stw	r3,20(sp)
   12ab0:	00178fc0 	call	178fc <__subdf3>
   12ab4:	000d883a 	mov	r6,zero
   12ab8:	01d05c34 	movhi	r7,16752
   12abc:	1009883a 	mov	r4,r2
   12ac0:	180b883a 	mov	r5,r3
   12ac4:	00171e40 	call	171e4 <__muldf3>
   12ac8:	000d883a 	mov	r6,zero
   12acc:	000f883a 	mov	r7,zero
   12ad0:	1009883a 	mov	r4,r2
   12ad4:	180b883a 	mov	r5,r3
   12ad8:	d8800615 	stw	r2,24(sp)
   12adc:	d8c00715 	stw	r3,28(sp)
   12ae0:	00170800 	call	17080 <__eqdf2>
   12ae4:	1001431e 	bne	r2,zero,12ff4 <__ieee754_rem_pio2+0x6d0>
   12ae8:	000f883a 	mov	r7,zero
   12aec:	000d883a 	mov	r6,zero
   12af0:	9809883a 	mov	r4,r19
   12af4:	900b883a 	mov	r5,r18
   12af8:	00170800 	call	17080 <__eqdf2>
   12afc:	100f003a 	cmpeq	r7,r2,zero
   12b00:	00800084 	movi	r2,2
   12b04:	11cfc83a 	sub	r7,r2,r7
   12b08:	00800084 	movi	r2,2
   12b0c:	d8800015 	stw	r2,0(sp)
   12b10:	008000b4 	movhi	r2,2
   12b14:	10ad5304 	addi	r2,r2,-19124
   12b18:	d8800115 	stw	r2,4(sp)
   12b1c:	a00d883a 	mov	r6,r20
   12b20:	800b883a 	mov	r5,r16
   12b24:	d9000204 	addi	r4,sp,8
   12b28:	00135340 	call	13534 <__kernel_rem_pio2>
   12b2c:	88000d0e 	bge	r17,zero,12b64 <__ieee754_rem_pio2+0x240>
   12b30:	81000117 	ldw	r4,4(r16)
   12b34:	80c00317 	ldw	r3,12(r16)
   12b38:	0085c83a 	sub	r2,zero,r2
   12b3c:	2120003c 	xorhi	r4,r4,32768
   12b40:	18e0003c 	xorhi	r3,r3,32768
   12b44:	81000115 	stw	r4,4(r16)
   12b48:	80c00315 	stw	r3,12(r16)
   12b4c:	00000506 	br	12b64 <__ieee754_rem_pio2+0x240>
   12b50:	31000015 	stw	r4,0(r6)
   12b54:	31400115 	stw	r5,4(r6)
   12b58:	30000215 	stw	zero,8(r6)
   12b5c:	30000315 	stw	zero,12(r6)
   12b60:	0005883a 	mov	r2,zero
   12b64:	dfc01517 	ldw	ra,84(sp)
   12b68:	df001417 	ldw	fp,80(sp)
   12b6c:	ddc01317 	ldw	r23,76(sp)
   12b70:	dd801217 	ldw	r22,72(sp)
   12b74:	dd401117 	ldw	r21,68(sp)
   12b78:	dd001017 	ldw	r20,64(sp)
   12b7c:	dcc00f17 	ldw	r19,60(sp)
   12b80:	dc800e17 	ldw	r18,56(sp)
   12b84:	dc400d17 	ldw	r17,52(sp)
   12b88:	dc000c17 	ldw	r16,48(sp)
   12b8c:	dec01604 	addi	sp,sp,88
   12b90:	f800283a 	ret
   12b94:	200d883a 	mov	r6,r4
   12b98:	280f883a 	mov	r7,r5
   12b9c:	00178fc0 	call	178fc <__subdf3>
   12ba0:	80800215 	stw	r2,8(r16)
   12ba4:	80800015 	stw	r2,0(r16)
   12ba8:	80c00315 	stw	r3,12(r16)
   12bac:	80c00115 	stw	r3,4(r16)
   12bb0:	0005883a 	mov	r2,zero
   12bb4:	003feb06 	br	12b64 <_gp+0xfffeeb04>
   12bb8:	01cf7474 	movhi	r7,15825
   12bbc:	9009883a 	mov	r4,r18
   12bc0:	39ed1844 	addi	r7,r7,-19359
   12bc4:	01869834 	movhi	r6,6752
   12bc8:	180b883a 	mov	r5,r3
   12bcc:	00178fc0 	call	178fc <__subdf3>
   12bd0:	018b80f4 	movhi	r6,11779
   12bd4:	01cee8f4 	movhi	r7,15267
   12bd8:	319c1cc4 	addi	r6,r6,28787
   12bdc:	39c66284 	addi	r7,r7,6538
   12be0:	1009883a 	mov	r4,r2
   12be4:	180b883a 	mov	r5,r3
   12be8:	1025883a 	mov	r18,r2
   12bec:	1823883a 	mov	r17,r3
   12bf0:	00178fc0 	call	178fc <__subdf3>
   12bf4:	100d883a 	mov	r6,r2
   12bf8:	180f883a 	mov	r7,r3
   12bfc:	9009883a 	mov	r4,r18
   12c00:	880b883a 	mov	r5,r17
   12c04:	80800015 	stw	r2,0(r16)
   12c08:	80c00115 	stw	r3,4(r16)
   12c0c:	00178fc0 	call	178fc <__subdf3>
   12c10:	018b80f4 	movhi	r6,11779
   12c14:	01cee8f4 	movhi	r7,15267
   12c18:	319c1cc4 	addi	r6,r6,28787
   12c1c:	39c66284 	addi	r7,r7,6538
   12c20:	003f7306 	br	129f0 <_gp+0xfffee990>
   12c24:	00145900 	call	14590 <fabs>
   12c28:	019b72b4 	movhi	r6,28106
   12c2c:	01cff934 	movhi	r7,16356
   12c30:	31b220c4 	addi	r6,r6,-14205
   12c34:	39d7cc04 	addi	r7,r7,24368
   12c38:	1009883a 	mov	r4,r2
   12c3c:	180b883a 	mov	r5,r3
   12c40:	102d883a 	mov	r22,r2
   12c44:	182b883a 	mov	r21,r3
   12c48:	00171e40 	call	171e4 <__muldf3>
   12c4c:	000d883a 	mov	r6,zero
   12c50:	01cff834 	movhi	r7,16352
   12c54:	1009883a 	mov	r4,r2
   12c58:	180b883a 	mov	r5,r3
   12c5c:	0015eec0 	call	15eec <__adddf3>
   12c60:	180b883a 	mov	r5,r3
   12c64:	1009883a 	mov	r4,r2
   12c68:	00181f80 	call	181f8 <__fixdfsi>
   12c6c:	1009883a 	mov	r4,r2
   12c70:	1025883a 	mov	r18,r2
   12c74:	00182780 	call	18278 <__floatsidf>
   12c78:	01cffe74 	movhi	r7,16377
   12c7c:	39c87ec4 	addi	r7,r7,8699
   12c80:	01951034 	movhi	r6,21568
   12c84:	1009883a 	mov	r4,r2
   12c88:	180b883a 	mov	r5,r3
   12c8c:	1029883a 	mov	r20,r2
   12c90:	1827883a 	mov	r19,r3
   12c94:	00171e40 	call	171e4 <__muldf3>
   12c98:	b009883a 	mov	r4,r22
   12c9c:	a80b883a 	mov	r5,r21
   12ca0:	100d883a 	mov	r6,r2
   12ca4:	180f883a 	mov	r7,r3
   12ca8:	00178fc0 	call	178fc <__subdf3>
   12cac:	018698b4 	movhi	r6,6754
   12cb0:	01cf7474 	movhi	r7,15825
   12cb4:	a009883a 	mov	r4,r20
   12cb8:	3198cc44 	addi	r6,r6,25393
   12cbc:	39ed1844 	addi	r7,r7,-19359
   12cc0:	980b883a 	mov	r5,r19
   12cc4:	1039883a 	mov	fp,r2
   12cc8:	d8c00815 	stw	r3,32(sp)
   12ccc:	00171e40 	call	171e4 <__muldf3>
   12cd0:	010007c4 	movi	r4,31
   12cd4:	e017883a 	mov	r11,fp
   12cd8:	da800817 	ldw	r10,32(sp)
   12cdc:	102d883a 	mov	r22,r2
   12ce0:	182b883a 	mov	r21,r3
   12ce4:	24802816 	blt	r4,r18,12d88 <__ieee754_rem_pio2+0x464>
   12ce8:	913fffc4 	addi	r4,r18,-1
   12cec:	2109883a 	add	r4,r4,r4
   12cf0:	014000b4 	movhi	r5,2
   12cf4:	2109883a 	add	r4,r4,r4
   12cf8:	296d3304 	addi	r5,r5,-19252
   12cfc:	2909883a 	add	r4,r5,r4
   12d00:	21000017 	ldw	r4,0(r4)
   12d04:	b9002026 	beq	r23,r4,12d88 <__ieee754_rem_pio2+0x464>
   12d08:	100d883a 	mov	r6,r2
   12d0c:	180f883a 	mov	r7,r3
   12d10:	e009883a 	mov	r4,fp
   12d14:	500b883a 	mov	r5,r10
   12d18:	da800b15 	stw	r10,44(sp)
   12d1c:	df000a15 	stw	fp,40(sp)
   12d20:	00178fc0 	call	178fc <__subdf3>
   12d24:	da800b17 	ldw	r10,44(sp)
   12d28:	dac00a17 	ldw	r11,40(sp)
   12d2c:	1019883a 	mov	r12,r2
   12d30:	1813883a 	mov	r9,r3
   12d34:	80800015 	stw	r2,0(r16)
   12d38:	80c00115 	stw	r3,4(r16)
   12d3c:	600d883a 	mov	r6,r12
   12d40:	480f883a 	mov	r7,r9
   12d44:	5809883a 	mov	r4,r11
   12d48:	500b883a 	mov	r5,r10
   12d4c:	da400b15 	stw	r9,44(sp)
   12d50:	db000a15 	stw	r12,40(sp)
   12d54:	00178fc0 	call	178fc <__subdf3>
   12d58:	b00d883a 	mov	r6,r22
   12d5c:	a80f883a 	mov	r7,r21
   12d60:	1009883a 	mov	r4,r2
   12d64:	180b883a 	mov	r5,r3
   12d68:	00178fc0 	call	178fc <__subdf3>
   12d6c:	80800215 	stw	r2,8(r16)
   12d70:	80c00315 	stw	r3,12(r16)
   12d74:	da400b17 	ldw	r9,44(sp)
   12d78:	db000a17 	ldw	r12,40(sp)
   12d7c:	88009f16 	blt	r17,zero,12ffc <__ieee754_rem_pio2+0x6d8>
   12d80:	9005883a 	mov	r2,r18
   12d84:	003f7706 	br	12b64 <_gp+0xfffeeb04>
   12d88:	d9400817 	ldw	r5,32(sp)
   12d8c:	100d883a 	mov	r6,r2
   12d90:	180f883a 	mov	r7,r3
   12d94:	e009883a 	mov	r4,fp
   12d98:	da800b15 	stw	r10,44(sp)
   12d9c:	dac00a15 	stw	r11,40(sp)
   12da0:	00178fc0 	call	178fc <__subdf3>
   12da4:	1019883a 	mov	r12,r2
   12da8:	1804d53a 	srli	r2,r3,20
   12dac:	b811d53a 	srai	r8,r23,20
   12db0:	1813883a 	mov	r9,r3
   12db4:	1081ffcc 	andi	r2,r2,2047
   12db8:	80c00115 	stw	r3,4(r16)
   12dbc:	83000015 	stw	r12,0(r16)
   12dc0:	4085c83a 	sub	r2,r8,r2
   12dc4:	00c00404 	movi	r3,16
   12dc8:	da800b17 	ldw	r10,44(sp)
   12dcc:	dac00a17 	ldw	r11,40(sp)
   12dd0:	18bfda0e 	bge	r3,r2,12d3c <_gp+0xfffeecdc>
   12dd4:	01cf7474 	movhi	r7,15825
   12dd8:	39ed1844 	addi	r7,r7,-19359
   12ddc:	01869834 	movhi	r6,6752
   12de0:	a009883a 	mov	r4,r20
   12de4:	980b883a 	mov	r5,r19
   12de8:	da000a15 	stw	r8,40(sp)
   12dec:	00171e40 	call	171e4 <__muldf3>
   12df0:	d9400817 	ldw	r5,32(sp)
   12df4:	100d883a 	mov	r6,r2
   12df8:	180f883a 	mov	r7,r3
   12dfc:	e009883a 	mov	r4,fp
   12e00:	102d883a 	mov	r22,r2
   12e04:	182b883a 	mov	r21,r3
   12e08:	00178fc0 	call	178fc <__subdf3>
   12e0c:	d9400817 	ldw	r5,32(sp)
   12e10:	100d883a 	mov	r6,r2
   12e14:	180f883a 	mov	r7,r3
   12e18:	e009883a 	mov	r4,fp
   12e1c:	182f883a 	mov	r23,r3
   12e20:	d8800915 	stw	r2,36(sp)
   12e24:	00178fc0 	call	178fc <__subdf3>
   12e28:	b00d883a 	mov	r6,r22
   12e2c:	a80f883a 	mov	r7,r21
   12e30:	1009883a 	mov	r4,r2
   12e34:	180b883a 	mov	r5,r3
   12e38:	00178fc0 	call	178fc <__subdf3>
   12e3c:	018b80f4 	movhi	r6,11779
   12e40:	01cee8f4 	movhi	r7,15267
   12e44:	319c1cc4 	addi	r6,r6,28787
   12e48:	39c66284 	addi	r7,r7,6538
   12e4c:	a009883a 	mov	r4,r20
   12e50:	980b883a 	mov	r5,r19
   12e54:	102d883a 	mov	r22,r2
   12e58:	182b883a 	mov	r21,r3
   12e5c:	00171e40 	call	171e4 <__muldf3>
   12e60:	b00d883a 	mov	r6,r22
   12e64:	a80f883a 	mov	r7,r21
   12e68:	1009883a 	mov	r4,r2
   12e6c:	180b883a 	mov	r5,r3
   12e70:	00178fc0 	call	178fc <__subdf3>
   12e74:	d9000917 	ldw	r4,36(sp)
   12e78:	100d883a 	mov	r6,r2
   12e7c:	180f883a 	mov	r7,r3
   12e80:	b80b883a 	mov	r5,r23
   12e84:	102d883a 	mov	r22,r2
   12e88:	182b883a 	mov	r21,r3
   12e8c:	00178fc0 	call	178fc <__subdf3>
   12e90:	1019883a 	mov	r12,r2
   12e94:	1804d53a 	srli	r2,r3,20
   12e98:	da000a17 	ldw	r8,40(sp)
   12e9c:	83000015 	stw	r12,0(r16)
   12ea0:	1081ffcc 	andi	r2,r2,2047
   12ea4:	4091c83a 	sub	r8,r8,r2
   12ea8:	80c00115 	stw	r3,4(r16)
   12eac:	00800c44 	movi	r2,49
   12eb0:	1813883a 	mov	r9,r3
   12eb4:	1200730e 	bge	r2,r8,13084 <__ieee754_rem_pio2+0x760>
   12eb8:	01cee8f4 	movhi	r7,15267
   12ebc:	39c66284 	addi	r7,r7,6538
   12ec0:	018b8034 	movhi	r6,11776
   12ec4:	a009883a 	mov	r4,r20
   12ec8:	980b883a 	mov	r5,r19
   12ecc:	00171e40 	call	171e4 <__muldf3>
   12ed0:	d9000917 	ldw	r4,36(sp)
   12ed4:	100d883a 	mov	r6,r2
   12ed8:	180f883a 	mov	r7,r3
   12edc:	b80b883a 	mov	r5,r23
   12ee0:	102d883a 	mov	r22,r2
   12ee4:	182b883a 	mov	r21,r3
   12ee8:	00178fc0 	call	178fc <__subdf3>
   12eec:	d9000917 	ldw	r4,36(sp)
   12ef0:	100d883a 	mov	r6,r2
   12ef4:	180f883a 	mov	r7,r3
   12ef8:	b80b883a 	mov	r5,r23
   12efc:	d8c00b15 	stw	r3,44(sp)
   12f00:	d8800a15 	stw	r2,40(sp)
   12f04:	00178fc0 	call	178fc <__subdf3>
   12f08:	b00d883a 	mov	r6,r22
   12f0c:	a80f883a 	mov	r7,r21
   12f10:	1009883a 	mov	r4,r2
   12f14:	180b883a 	mov	r5,r3
   12f18:	00178fc0 	call	178fc <__subdf3>
   12f1c:	01894834 	movhi	r6,9504
   12f20:	01ce5f34 	movhi	r7,14716
   12f24:	31927044 	addi	r6,r6,18881
   12f28:	39e0e684 	addi	r7,r7,-31846
   12f2c:	a009883a 	mov	r4,r20
   12f30:	980b883a 	mov	r5,r19
   12f34:	102d883a 	mov	r22,r2
   12f38:	182b883a 	mov	r21,r3
   12f3c:	00171e40 	call	171e4 <__muldf3>
   12f40:	b00d883a 	mov	r6,r22
   12f44:	a80f883a 	mov	r7,r21
   12f48:	1009883a 	mov	r4,r2
   12f4c:	180b883a 	mov	r5,r3
   12f50:	00178fc0 	call	178fc <__subdf3>
   12f54:	dac00a17 	ldw	r11,40(sp)
   12f58:	da800b17 	ldw	r10,44(sp)
   12f5c:	102d883a 	mov	r22,r2
   12f60:	182b883a 	mov	r21,r3
   12f64:	100d883a 	mov	r6,r2
   12f68:	180f883a 	mov	r7,r3
   12f6c:	5809883a 	mov	r4,r11
   12f70:	500b883a 	mov	r5,r10
   12f74:	003f6a06 	br	12d20 <_gp+0xfffeecc0>
   12f78:	0015eec0 	call	15eec <__adddf3>
   12f7c:	1025883a 	mov	r18,r2
   12f80:	008ffe74 	movhi	r2,16377
   12f84:	10887ec4 	addi	r2,r2,8699
   12f88:	1823883a 	mov	r17,r3
   12f8c:	b8802226 	beq	r23,r2,13018 <__ieee754_rem_pio2+0x6f4>
   12f90:	018698b4 	movhi	r6,6754
   12f94:	01cf7474 	movhi	r7,15825
   12f98:	3198cc44 	addi	r6,r6,25393
   12f9c:	39ed1844 	addi	r7,r7,-19359
   12fa0:	9009883a 	mov	r4,r18
   12fa4:	180b883a 	mov	r5,r3
   12fa8:	0015eec0 	call	15eec <__adddf3>
   12fac:	100d883a 	mov	r6,r2
   12fb0:	180f883a 	mov	r7,r3
   12fb4:	9009883a 	mov	r4,r18
   12fb8:	880b883a 	mov	r5,r17
   12fbc:	80800015 	stw	r2,0(r16)
   12fc0:	80c00115 	stw	r3,4(r16)
   12fc4:	00178fc0 	call	178fc <__subdf3>
   12fc8:	018698b4 	movhi	r6,6754
   12fcc:	01cf7474 	movhi	r7,15825
   12fd0:	3198cc44 	addi	r6,r6,25393
   12fd4:	39ed1844 	addi	r7,r7,-19359
   12fd8:	1009883a 	mov	r4,r2
   12fdc:	180b883a 	mov	r5,r3
   12fe0:	0015eec0 	call	15eec <__adddf3>
   12fe4:	80800215 	stw	r2,8(r16)
   12fe8:	80c00315 	stw	r3,12(r16)
   12fec:	00bfffc4 	movi	r2,-1
   12ff0:	003edc06 	br	12b64 <_gp+0xfffeeb04>
   12ff4:	01c000c4 	movi	r7,3
   12ff8:	003ec306 	br	12b08 <_gp+0xfffeeaa8>
   12ffc:	4a60003c 	xorhi	r9,r9,32768
   13000:	18e0003c 	xorhi	r3,r3,32768
   13004:	83000015 	stw	r12,0(r16)
   13008:	82400115 	stw	r9,4(r16)
   1300c:	80c00315 	stw	r3,12(r16)
   13010:	0485c83a 	sub	r2,zero,r18
   13014:	003ed306 	br	12b64 <_gp+0xfffeeb04>
   13018:	01cf7474 	movhi	r7,15825
   1301c:	9009883a 	mov	r4,r18
   13020:	39ed1844 	addi	r7,r7,-19359
   13024:	01869834 	movhi	r6,6752
   13028:	180b883a 	mov	r5,r3
   1302c:	0015eec0 	call	15eec <__adddf3>
   13030:	018b80f4 	movhi	r6,11779
   13034:	01cee8f4 	movhi	r7,15267
   13038:	319c1cc4 	addi	r6,r6,28787
   1303c:	39c66284 	addi	r7,r7,6538
   13040:	1009883a 	mov	r4,r2
   13044:	180b883a 	mov	r5,r3
   13048:	1025883a 	mov	r18,r2
   1304c:	1823883a 	mov	r17,r3
   13050:	0015eec0 	call	15eec <__adddf3>
   13054:	100d883a 	mov	r6,r2
   13058:	180f883a 	mov	r7,r3
   1305c:	9009883a 	mov	r4,r18
   13060:	880b883a 	mov	r5,r17
   13064:	80800015 	stw	r2,0(r16)
   13068:	80c00115 	stw	r3,4(r16)
   1306c:	00178fc0 	call	178fc <__subdf3>
   13070:	018b80f4 	movhi	r6,11779
   13074:	01cee8f4 	movhi	r7,15267
   13078:	319c1cc4 	addi	r6,r6,28787
   1307c:	39c66284 	addi	r7,r7,6538
   13080:	003fd506 	br	12fd8 <_gp+0xfffeef78>
   13084:	dac00917 	ldw	r11,36(sp)
   13088:	b815883a 	mov	r10,r23
   1308c:	003f2b06 	br	12d3c <_gp+0xfffeecdc>

00013090 <__kernel_cos>:
   13090:	defff304 	addi	sp,sp,-52
   13094:	dc000315 	stw	r16,12(sp)
   13098:	04200034 	movhi	r16,32768
   1309c:	843fffc4 	addi	r16,r16,-1
   130a0:	008f9034 	movhi	r2,15936
   130a4:	df000b15 	stw	fp,44(sp)
   130a8:	ddc00a15 	stw	r23,40(sp)
   130ac:	dd800915 	stw	r22,36(sp)
   130b0:	dcc00615 	stw	r19,24(sp)
   130b4:	dfc00c15 	stw	ra,48(sp)
   130b8:	dd400815 	stw	r21,32(sp)
   130bc:	dd000715 	stw	r20,28(sp)
   130c0:	dc800515 	stw	r18,20(sp)
   130c4:	dc400415 	stw	r17,16(sp)
   130c8:	2c20703a 	and	r16,r5,r16
   130cc:	10bfffc4 	addi	r2,r2,-1
   130d0:	2827883a 	mov	r19,r5
   130d4:	202d883a 	mov	r22,r4
   130d8:	302f883a 	mov	r23,r6
   130dc:	3839883a 	mov	fp,r7
   130e0:	14007516 	blt	r2,r16,132b8 <__kernel_cos+0x228>
   130e4:	00181f80 	call	181f8 <__fixdfsi>
   130e8:	10010f26 	beq	r2,zero,13528 <__kernel_cos+0x498>
   130ec:	b00d883a 	mov	r6,r22
   130f0:	980f883a 	mov	r7,r19
   130f4:	b009883a 	mov	r4,r22
   130f8:	980b883a 	mov	r5,r19
   130fc:	00171e40 	call	171e4 <__muldf3>
   13100:	01afa234 	movhi	r6,48776
   13104:	01ef6a74 	movhi	r7,48553
   13108:	318e3504 	addi	r6,r6,14548
   1310c:	39feba44 	addi	r7,r7,-1303
   13110:	1009883a 	mov	r4,r2
   13114:	180b883a 	mov	r5,r3
   13118:	102b883a 	mov	r21,r2
   1311c:	1829883a 	mov	r20,r3
   13120:	00171e40 	call	171e4 <__muldf3>
   13124:	01af6d74 	movhi	r6,48565
   13128:	01cf88b4 	movhi	r7,15906
   1312c:	31ac7104 	addi	r6,r6,-20028
   13130:	39fba784 	addi	r7,r7,-4450
   13134:	1009883a 	mov	r4,r2
   13138:	180b883a 	mov	r5,r3
   1313c:	0015eec0 	call	15eec <__adddf3>
   13140:	a80d883a 	mov	r6,r21
   13144:	a00f883a 	mov	r7,r20
   13148:	1009883a 	mov	r4,r2
   1314c:	180b883a 	mov	r5,r3
   13150:	00171e40 	call	171e4 <__muldf3>
   13154:	01a02734 	movhi	r6,32924
   13158:	01cfa4b4 	movhi	r7,16018
   1315c:	3194ab44 	addi	r6,r6,21165
   13160:	39df93c4 	addi	r7,r7,32335
   13164:	1009883a 	mov	r4,r2
   13168:	180b883a 	mov	r5,r3
   1316c:	00178fc0 	call	178fc <__subdf3>
   13170:	a80d883a 	mov	r6,r21
   13174:	a00f883a 	mov	r7,r20
   13178:	1009883a 	mov	r4,r2
   1317c:	180b883a 	mov	r5,r3
   13180:	00171e40 	call	171e4 <__muldf3>
   13184:	018672f4 	movhi	r6,6603
   13188:	01cfbeb4 	movhi	r7,16122
   1318c:	31856404 	addi	r6,r6,5520
   13190:	39c06804 	addi	r7,r7,416
   13194:	1009883a 	mov	r4,r2
   13198:	180b883a 	mov	r5,r3
   1319c:	0015eec0 	call	15eec <__adddf3>
   131a0:	a80d883a 	mov	r6,r21
   131a4:	a00f883a 	mov	r7,r20
   131a8:	1009883a 	mov	r4,r2
   131ac:	180b883a 	mov	r5,r3
   131b0:	00171e40 	call	171e4 <__muldf3>
   131b4:	0185b074 	movhi	r6,5825
   131b8:	01cfd5f4 	movhi	r7,16215
   131bc:	31945dc4 	addi	r6,r6,20855
   131c0:	39f05b04 	addi	r7,r7,-16020
   131c4:	1009883a 	mov	r4,r2
   131c8:	180b883a 	mov	r5,r3
   131cc:	00178fc0 	call	178fc <__subdf3>
   131d0:	a80d883a 	mov	r6,r21
   131d4:	a00f883a 	mov	r7,r20
   131d8:	1009883a 	mov	r4,r2
   131dc:	180b883a 	mov	r5,r3
   131e0:	00171e40 	call	171e4 <__muldf3>
   131e4:	01955574 	movhi	r6,21845
   131e8:	01cfe974 	movhi	r7,16293
   131ec:	31955304 	addi	r6,r6,21836
   131f0:	39d55544 	addi	r7,r7,21845
   131f4:	1009883a 	mov	r4,r2
   131f8:	180b883a 	mov	r5,r3
   131fc:	0015eec0 	call	15eec <__adddf3>
   13200:	a80d883a 	mov	r6,r21
   13204:	a00f883a 	mov	r7,r20
   13208:	1009883a 	mov	r4,r2
   1320c:	180b883a 	mov	r5,r3
   13210:	00171e40 	call	171e4 <__muldf3>
   13214:	1017883a 	mov	r11,r2
   13218:	1815883a 	mov	r10,r3
   1321c:	a809883a 	mov	r4,r21
   13220:	a00b883a 	mov	r5,r20
   13224:	000d883a 	mov	r6,zero
   13228:	01cff834 	movhi	r7,16352
   1322c:	da800215 	stw	r10,8(sp)
   13230:	dac00115 	stw	r11,4(sp)
   13234:	00171e40 	call	171e4 <__muldf3>
   13238:	dac00117 	ldw	r11,4(sp)
   1323c:	da800217 	ldw	r10,8(sp)
   13240:	a809883a 	mov	r4,r21
   13244:	580d883a 	mov	r6,r11
   13248:	500f883a 	mov	r7,r10
   1324c:	a00b883a 	mov	r5,r20
   13250:	1023883a 	mov	r17,r2
   13254:	1821883a 	mov	r16,r3
   13258:	00171e40 	call	171e4 <__muldf3>
   1325c:	b80d883a 	mov	r6,r23
   13260:	e00f883a 	mov	r7,fp
   13264:	b009883a 	mov	r4,r22
   13268:	980b883a 	mov	r5,r19
   1326c:	1029883a 	mov	r20,r2
   13270:	1825883a 	mov	r18,r3
   13274:	00171e40 	call	171e4 <__muldf3>
   13278:	a009883a 	mov	r4,r20
   1327c:	900b883a 	mov	r5,r18
   13280:	100d883a 	mov	r6,r2
   13284:	180f883a 	mov	r7,r3
   13288:	00178fc0 	call	178fc <__subdf3>
   1328c:	8809883a 	mov	r4,r17
   13290:	800b883a 	mov	r5,r16
   13294:	100d883a 	mov	r6,r2
   13298:	180f883a 	mov	r7,r3
   1329c:	00178fc0 	call	178fc <__subdf3>
   132a0:	100d883a 	mov	r6,r2
   132a4:	180f883a 	mov	r7,r3
   132a8:	0009883a 	mov	r4,zero
   132ac:	014ffc34 	movhi	r5,16368
   132b0:	00178fc0 	call	178fc <__subdf3>
   132b4:	00008b06 	br	134e4 <__kernel_cos+0x454>
   132b8:	200d883a 	mov	r6,r4
   132bc:	280f883a 	mov	r7,r5
   132c0:	00171e40 	call	171e4 <__muldf3>
   132c4:	01afa234 	movhi	r6,48776
   132c8:	01ef6a74 	movhi	r7,48553
   132cc:	318e3504 	addi	r6,r6,14548
   132d0:	39feba44 	addi	r7,r7,-1303
   132d4:	1009883a 	mov	r4,r2
   132d8:	180b883a 	mov	r5,r3
   132dc:	1025883a 	mov	r18,r2
   132e0:	1823883a 	mov	r17,r3
   132e4:	00171e40 	call	171e4 <__muldf3>
   132e8:	01af6d74 	movhi	r6,48565
   132ec:	01cf88b4 	movhi	r7,15906
   132f0:	31ac7104 	addi	r6,r6,-20028
   132f4:	39fba784 	addi	r7,r7,-4450
   132f8:	1009883a 	mov	r4,r2
   132fc:	180b883a 	mov	r5,r3
   13300:	0015eec0 	call	15eec <__adddf3>
   13304:	900d883a 	mov	r6,r18
   13308:	880f883a 	mov	r7,r17
   1330c:	1009883a 	mov	r4,r2
   13310:	180b883a 	mov	r5,r3
   13314:	00171e40 	call	171e4 <__muldf3>
   13318:	01a02734 	movhi	r6,32924
   1331c:	01cfa4b4 	movhi	r7,16018
   13320:	3194ab44 	addi	r6,r6,21165
   13324:	39df93c4 	addi	r7,r7,32335
   13328:	1009883a 	mov	r4,r2
   1332c:	180b883a 	mov	r5,r3
   13330:	00178fc0 	call	178fc <__subdf3>
   13334:	900d883a 	mov	r6,r18
   13338:	880f883a 	mov	r7,r17
   1333c:	1009883a 	mov	r4,r2
   13340:	180b883a 	mov	r5,r3
   13344:	00171e40 	call	171e4 <__muldf3>
   13348:	018672f4 	movhi	r6,6603
   1334c:	01cfbeb4 	movhi	r7,16122
   13350:	31856404 	addi	r6,r6,5520
   13354:	39c06804 	addi	r7,r7,416
   13358:	1009883a 	mov	r4,r2
   1335c:	180b883a 	mov	r5,r3
   13360:	0015eec0 	call	15eec <__adddf3>
   13364:	900d883a 	mov	r6,r18
   13368:	880f883a 	mov	r7,r17
   1336c:	1009883a 	mov	r4,r2
   13370:	180b883a 	mov	r5,r3
   13374:	00171e40 	call	171e4 <__muldf3>
   13378:	0185b074 	movhi	r6,5825
   1337c:	01cfd5f4 	movhi	r7,16215
   13380:	31945dc4 	addi	r6,r6,20855
   13384:	39f05b04 	addi	r7,r7,-16020
   13388:	1009883a 	mov	r4,r2
   1338c:	180b883a 	mov	r5,r3
   13390:	00178fc0 	call	178fc <__subdf3>
   13394:	900d883a 	mov	r6,r18
   13398:	880f883a 	mov	r7,r17
   1339c:	1009883a 	mov	r4,r2
   133a0:	180b883a 	mov	r5,r3
   133a4:	00171e40 	call	171e4 <__muldf3>
   133a8:	01955574 	movhi	r6,21845
   133ac:	01cfe974 	movhi	r7,16293
   133b0:	31955304 	addi	r6,r6,21836
   133b4:	39d55544 	addi	r7,r7,21845
   133b8:	1009883a 	mov	r4,r2
   133bc:	180b883a 	mov	r5,r3
   133c0:	0015eec0 	call	15eec <__adddf3>
   133c4:	900d883a 	mov	r6,r18
   133c8:	880f883a 	mov	r7,r17
   133cc:	1009883a 	mov	r4,r2
   133d0:	180b883a 	mov	r5,r3
   133d4:	00171e40 	call	171e4 <__muldf3>
   133d8:	1013883a 	mov	r9,r2
   133dc:	1017883a 	mov	r11,r2
   133e0:	008ff4f4 	movhi	r2,16339
   133e4:	108ccc84 	addi	r2,r2,13106
   133e8:	1811883a 	mov	r8,r3
   133ec:	902b883a 	mov	r21,r18
   133f0:	8829883a 	mov	r20,r17
   133f4:	1815883a 	mov	r10,r3
   133f8:	143f880e 	bge	r2,r16,1321c <_gp+0xfffef1bc>
   133fc:	008ffa74 	movhi	r2,16361
   13400:	14004416 	blt	r2,r16,13514 <__kernel_cos+0x484>
   13404:	00bff834 	movhi	r2,65504
   13408:	80a1883a 	add	r16,r16,r2
   1340c:	000d883a 	mov	r6,zero
   13410:	800f883a 	mov	r7,r16
   13414:	0009883a 	mov	r4,zero
   13418:	014ffc34 	movhi	r5,16368
   1341c:	da400115 	stw	r9,4(sp)
   13420:	d8c00215 	stw	r3,8(sp)
   13424:	00178fc0 	call	178fc <__subdf3>
   13428:	da000217 	ldw	r8,8(sp)
   1342c:	da400117 	ldw	r9,4(sp)
   13430:	102b883a 	mov	r21,r2
   13434:	d8c00015 	stw	r3,0(sp)
   13438:	9009883a 	mov	r4,r18
   1343c:	880b883a 	mov	r5,r17
   13440:	000d883a 	mov	r6,zero
   13444:	01cff834 	movhi	r7,16352
   13448:	da000215 	stw	r8,8(sp)
   1344c:	da400115 	stw	r9,4(sp)
   13450:	00171e40 	call	171e4 <__muldf3>
   13454:	800f883a 	mov	r7,r16
   13458:	000d883a 	mov	r6,zero
   1345c:	1009883a 	mov	r4,r2
   13460:	180b883a 	mov	r5,r3
   13464:	00178fc0 	call	178fc <__subdf3>
   13468:	da400117 	ldw	r9,4(sp)
   1346c:	da000217 	ldw	r8,8(sp)
   13470:	9009883a 	mov	r4,r18
   13474:	480d883a 	mov	r6,r9
   13478:	400f883a 	mov	r7,r8
   1347c:	880b883a 	mov	r5,r17
   13480:	1029883a 	mov	r20,r2
   13484:	1821883a 	mov	r16,r3
   13488:	00171e40 	call	171e4 <__muldf3>
   1348c:	b80d883a 	mov	r6,r23
   13490:	e00f883a 	mov	r7,fp
   13494:	b009883a 	mov	r4,r22
   13498:	980b883a 	mov	r5,r19
   1349c:	1025883a 	mov	r18,r2
   134a0:	1823883a 	mov	r17,r3
   134a4:	00171e40 	call	171e4 <__muldf3>
   134a8:	100d883a 	mov	r6,r2
   134ac:	180f883a 	mov	r7,r3
   134b0:	9009883a 	mov	r4,r18
   134b4:	880b883a 	mov	r5,r17
   134b8:	00178fc0 	call	178fc <__subdf3>
   134bc:	100d883a 	mov	r6,r2
   134c0:	180f883a 	mov	r7,r3
   134c4:	a009883a 	mov	r4,r20
   134c8:	800b883a 	mov	r5,r16
   134cc:	00178fc0 	call	178fc <__subdf3>
   134d0:	d9400017 	ldw	r5,0(sp)
   134d4:	100d883a 	mov	r6,r2
   134d8:	180f883a 	mov	r7,r3
   134dc:	a809883a 	mov	r4,r21
   134e0:	00178fc0 	call	178fc <__subdf3>
   134e4:	dfc00c17 	ldw	ra,48(sp)
   134e8:	df000b17 	ldw	fp,44(sp)
   134ec:	ddc00a17 	ldw	r23,40(sp)
   134f0:	dd800917 	ldw	r22,36(sp)
   134f4:	dd400817 	ldw	r21,32(sp)
   134f8:	dd000717 	ldw	r20,28(sp)
   134fc:	dcc00617 	ldw	r19,24(sp)
   13500:	dc800517 	ldw	r18,20(sp)
   13504:	dc400417 	ldw	r17,16(sp)
   13508:	dc000317 	ldw	r16,12(sp)
   1350c:	dec00d04 	addi	sp,sp,52
   13510:	f800283a 	ret
   13514:	008ff9f4 	movhi	r2,16359
   13518:	002b883a 	mov	r21,zero
   1351c:	d8800015 	stw	r2,0(sp)
   13520:	040ff4b4 	movhi	r16,16338
   13524:	003fc406 	br	13438 <_gp+0xfffef3d8>
   13528:	0005883a 	mov	r2,zero
   1352c:	00cffc34 	movhi	r3,16368
   13530:	003fec06 	br	134e4 <_gp+0xfffef484>

00013534 <__kernel_rem_pio2>:
   13534:	deff5a04 	addi	sp,sp,-664
   13538:	da00a617 	ldw	r8,664(sp)
   1353c:	00c000b4 	movhi	r3,2
   13540:	18eda504 	addi	r3,r3,-18796
   13544:	4205883a 	add	r2,r8,r8
   13548:	1085883a 	add	r2,r2,r2
   1354c:	1885883a 	add	r2,r3,r2
   13550:	d9008e15 	stw	r4,568(sp)
   13554:	d9408f15 	stw	r5,572(sp)
   13558:	313fff44 	addi	r4,r6,-3
   1355c:	01400604 	movi	r5,24
   13560:	dd80a215 	stw	r22,648(sp)
   13564:	dc009c15 	stw	r16,624(sp)
   13568:	dfc0a515 	stw	ra,660(sp)
   1356c:	df00a415 	stw	fp,656(sp)
   13570:	ddc0a315 	stw	r23,652(sp)
   13574:	dd40a115 	stw	r21,644(sp)
   13578:	dd00a015 	stw	r20,640(sp)
   1357c:	dcc09f15 	stw	r19,636(sp)
   13580:	dc809e15 	stw	r18,632(sp)
   13584:	dc409d15 	stw	r17,628(sp)
   13588:	3021883a 	mov	r16,r6
   1358c:	d9c09315 	stw	r7,588(sp)
   13590:	15800017 	ldw	r22,0(r2)
   13594:	00149bc0 	call	149bc <__divsi3>
   13598:	da009317 	ldw	r8,588(sp)
   1359c:	d8809215 	stw	r2,584(sp)
   135a0:	423fffc4 	addi	r8,r8,-1
   135a4:	da008d15 	stw	r8,564(sp)
   135a8:	10033b16 	blt	r2,zero,14298 <__kernel_rem_pio2+0xd64>
   135ac:	da009217 	ldw	r8,584(sp)
   135b0:	d9009217 	ldw	r4,584(sp)
   135b4:	42000044 	addi	r8,r8,1
   135b8:	40fffa24 	muli	r3,r8,-24
   135bc:	da009515 	stw	r8,596(sp)
   135c0:	da008d17 	ldw	r8,564(sp)
   135c4:	1c07883a 	add	r3,r3,r16
   135c8:	d8c09015 	stw	r3,576(sp)
   135cc:	b205883a 	add	r2,r22,r8
   135d0:	2223c83a 	sub	r17,r4,r8
   135d4:	10001016 	blt	r2,zero,13618 <__kernel_rem_pio2+0xe4>
   135d8:	da00a717 	ldw	r8,668(sp)
   135dc:	8c65883a 	add	r18,r17,r17
   135e0:	94a5883a 	add	r18,r18,r18
   135e4:	1445883a 	add	r2,r2,r17
   135e8:	dcc05004 	addi	r19,sp,320
   135ec:	44a5883a 	add	r18,r8,r18
   135f0:	14000044 	addi	r16,r2,1
   135f4:	88015316 	blt	r17,zero,13b44 <__kernel_rem_pio2+0x610>
   135f8:	91000017 	ldw	r4,0(r18)
   135fc:	00182780 	call	18278 <__floatsidf>
   13600:	98800015 	stw	r2,0(r19)
   13604:	98c00115 	stw	r3,4(r19)
   13608:	8c400044 	addi	r17,r17,1
   1360c:	9cc00204 	addi	r19,r19,8
   13610:	94800104 	addi	r18,r18,4
   13614:	8c3ff71e 	bne	r17,r16,135f4 <_gp+0xfffef594>
   13618:	b0002816 	blt	r22,zero,136bc <__kernel_rem_pio2+0x188>
   1361c:	da008d17 	ldw	r8,564(sp)
   13620:	b4c00044 	addi	r19,r22,1
   13624:	982690fa 	slli	r19,r19,3
   13628:	402490fa 	slli	r18,r8,3
   1362c:	da008e17 	ldw	r8,568(sp)
   13630:	d8805004 	addi	r2,sp,320
   13634:	94000204 	addi	r16,r18,8
   13638:	d823883a 	mov	r17,sp
   1363c:	14a5883a 	add	r18,r2,r18
   13640:	dcef883a 	add	r23,sp,r19
   13644:	4421883a 	add	r16,r8,r16
   13648:	dd809115 	stw	r22,580(sp)
   1364c:	4039883a 	mov	fp,r8
   13650:	da008d17 	ldw	r8,564(sp)
   13654:	40016016 	blt	r8,zero,13bd8 <__kernel_rem_pio2+0x6a4>
   13658:	e027883a 	mov	r19,fp
   1365c:	9029883a 	mov	r20,r18
   13660:	002d883a 	mov	r22,zero
   13664:	002b883a 	mov	r21,zero
   13668:	a1800017 	ldw	r6,0(r20)
   1366c:	a1c00117 	ldw	r7,4(r20)
   13670:	99000017 	ldw	r4,0(r19)
   13674:	99400117 	ldw	r5,4(r19)
   13678:	9cc00204 	addi	r19,r19,8
   1367c:	a53ffe04 	addi	r20,r20,-8
   13680:	00171e40 	call	171e4 <__muldf3>
   13684:	b009883a 	mov	r4,r22
   13688:	a80b883a 	mov	r5,r21
   1368c:	100d883a 	mov	r6,r2
   13690:	180f883a 	mov	r7,r3
   13694:	0015eec0 	call	15eec <__adddf3>
   13698:	102d883a 	mov	r22,r2
   1369c:	182b883a 	mov	r21,r3
   136a0:	9c3ff11e 	bne	r19,r16,13668 <_gp+0xfffef608>
   136a4:	8d800015 	stw	r22,0(r17)
   136a8:	8d400115 	stw	r21,4(r17)
   136ac:	8c400204 	addi	r17,r17,8
   136b0:	94800204 	addi	r18,r18,8
   136b4:	8dffe61e 	bne	r17,r23,13650 <_gp+0xfffef5f0>
   136b8:	dd809117 	ldw	r22,580(sp)
   136bc:	00d00034 	movhi	r3,16384
   136c0:	da009317 	ldw	r8,588(sp)
   136c4:	18ffff84 	addi	r3,r3,-2
   136c8:	b0c7883a 	add	r3,r22,r3
   136cc:	18c7883a 	add	r3,r3,r3
   136d0:	402090fa 	slli	r16,r8,3
   136d4:	18c7883a 	add	r3,r3,r3
   136d8:	da007804 	addi	r8,sp,480
   136dc:	40d1883a 	add	r8,r8,r3
   136e0:	b0bfffc4 	addi	r2,r22,-1
   136e4:	da009615 	stw	r8,600(sp)
   136e8:	da008e17 	ldw	r8,568(sp)
   136ec:	1085883a 	add	r2,r2,r2
   136f0:	1085883a 	add	r2,r2,r2
   136f4:	19000104 	addi	r4,r3,4
   136f8:	d885883a 	add	r2,sp,r2
   136fc:	4421883a 	add	r16,r8,r16
   13700:	da007804 	addi	r8,sp,480
   13704:	4111883a 	add	r8,r8,r4
   13708:	10807804 	addi	r2,r2,480
   1370c:	da009715 	stw	r8,604(sp)
   13710:	b025883a 	mov	r18,r22
   13714:	d8809815 	stw	r2,608(sp)
   13718:	dd809415 	stw	r22,592(sp)
   1371c:	900490fa 	slli	r2,r18,3
   13720:	d885883a 	add	r2,sp,r2
   13724:	17000017 	ldw	fp,0(r2)
   13728:	15400117 	ldw	r21,4(r2)
   1372c:	04802b0e 	bge	zero,r18,137dc <__kernel_rem_pio2+0x2a8>
   13730:	00880034 	movhi	r2,8192
   13734:	10bfffc4 	addi	r2,r2,-1
   13738:	90a9883a 	add	r20,r18,r2
   1373c:	a02890fa 	slli	r20,r20,3
   13740:	dc407804 	addi	r17,sp,480
   13744:	dcfffe04 	addi	r19,sp,-8
   13748:	dd29883a 	add	r20,sp,r20
   1374c:	000d883a 	mov	r6,zero
   13750:	01cf9c34 	movhi	r7,15984
   13754:	e009883a 	mov	r4,fp
   13758:	a80b883a 	mov	r5,r21
   1375c:	00171e40 	call	171e4 <__muldf3>
   13760:	180b883a 	mov	r5,r3
   13764:	1009883a 	mov	r4,r2
   13768:	00181f80 	call	181f8 <__fixdfsi>
   1376c:	1009883a 	mov	r4,r2
   13770:	00182780 	call	18278 <__floatsidf>
   13774:	000d883a 	mov	r6,zero
   13778:	01d05c34 	movhi	r7,16752
   1377c:	1009883a 	mov	r4,r2
   13780:	180b883a 	mov	r5,r3
   13784:	102f883a 	mov	r23,r2
   13788:	182d883a 	mov	r22,r3
   1378c:	00171e40 	call	171e4 <__muldf3>
   13790:	100d883a 	mov	r6,r2
   13794:	180f883a 	mov	r7,r3
   13798:	e009883a 	mov	r4,fp
   1379c:	a80b883a 	mov	r5,r21
   137a0:	00178fc0 	call	178fc <__subdf3>
   137a4:	180b883a 	mov	r5,r3
   137a8:	1009883a 	mov	r4,r2
   137ac:	00181f80 	call	181f8 <__fixdfsi>
   137b0:	a1800017 	ldw	r6,0(r20)
   137b4:	a1c00117 	ldw	r7,4(r20)
   137b8:	88800015 	stw	r2,0(r17)
   137bc:	b809883a 	mov	r4,r23
   137c0:	b00b883a 	mov	r5,r22
   137c4:	0015eec0 	call	15eec <__adddf3>
   137c8:	a53ffe04 	addi	r20,r20,-8
   137cc:	1039883a 	mov	fp,r2
   137d0:	182b883a 	mov	r21,r3
   137d4:	8c400104 	addi	r17,r17,4
   137d8:	a4ffdc1e 	bne	r20,r19,1374c <_gp+0xfffef6ec>
   137dc:	d9809017 	ldw	r6,576(sp)
   137e0:	a80b883a 	mov	r5,r21
   137e4:	e009883a 	mov	r4,fp
   137e8:	00147900 	call	14790 <scalbn>
   137ec:	000d883a 	mov	r6,zero
   137f0:	01cff034 	movhi	r7,16320
   137f4:	1009883a 	mov	r4,r2
   137f8:	180b883a 	mov	r5,r3
   137fc:	1027883a 	mov	r19,r2
   13800:	1823883a 	mov	r17,r3
   13804:	00171e40 	call	171e4 <__muldf3>
   13808:	1009883a 	mov	r4,r2
   1380c:	180b883a 	mov	r5,r3
   13810:	00145a40 	call	145a4 <floor>
   13814:	000d883a 	mov	r6,zero
   13818:	01d00834 	movhi	r7,16416
   1381c:	1009883a 	mov	r4,r2
   13820:	180b883a 	mov	r5,r3
   13824:	00171e40 	call	171e4 <__muldf3>
   13828:	100d883a 	mov	r6,r2
   1382c:	180f883a 	mov	r7,r3
   13830:	9809883a 	mov	r4,r19
   13834:	880b883a 	mov	r5,r17
   13838:	00178fc0 	call	178fc <__subdf3>
   1383c:	180b883a 	mov	r5,r3
   13840:	1009883a 	mov	r4,r2
   13844:	1827883a 	mov	r19,r3
   13848:	1029883a 	mov	r20,r2
   1384c:	00181f80 	call	181f8 <__fixdfsi>
   13850:	1009883a 	mov	r4,r2
   13854:	1023883a 	mov	r17,r2
   13858:	00182780 	call	18278 <__floatsidf>
   1385c:	a009883a 	mov	r4,r20
   13860:	100d883a 	mov	r6,r2
   13864:	180f883a 	mov	r7,r3
   13868:	980b883a 	mov	r5,r19
   1386c:	00178fc0 	call	178fc <__subdf3>
   13870:	d9009017 	ldw	r4,576(sp)
   13874:	1013883a 	mov	r9,r2
   13878:	102b883a 	mov	r21,r2
   1387c:	1811883a 	mov	r8,r3
   13880:	0100b30e 	bge	zero,r4,13b50 <__kernel_rem_pio2+0x61c>
   13884:	90bfffc4 	addi	r2,r18,-1
   13888:	1085883a 	add	r2,r2,r2
   1388c:	1085883a 	add	r2,r2,r2
   13890:	d885883a 	add	r2,sp,r2
   13894:	10807804 	addi	r2,r2,480
   13898:	d9809017 	ldw	r6,576(sp)
   1389c:	11400017 	ldw	r5,0(r2)
   138a0:	01000604 	movi	r4,24
   138a4:	2189c83a 	sub	r4,r4,r6
   138a8:	290dd83a 	sra	r6,r5,r4
   138ac:	d9c09017 	ldw	r7,576(sp)
   138b0:	04c005c4 	movi	r19,23
   138b4:	3108983a 	sll	r4,r6,r4
   138b8:	99e7c83a 	sub	r19,r19,r7
   138bc:	89a3883a 	add	r17,r17,r6
   138c0:	2909c83a 	sub	r4,r5,r4
   138c4:	24e7d83a 	sra	r19,r4,r19
   138c8:	11000015 	stw	r4,0(r2)
   138cc:	04c02a0e 	bge	zero,r19,13978 <__kernel_rem_pio2+0x444>
   138d0:	8c400044 	addi	r17,r17,1
   138d4:	0481570e 	bge	zero,r18,13e34 <__kernel_rem_pio2+0x900>
   138d8:	02804034 	movhi	r10,256
   138dc:	52bfffc4 	addi	r10,r10,-1
   138e0:	d8807804 	addi	r2,sp,480
   138e4:	000b883a 	mov	r5,zero
   138e8:	0029883a 	mov	r20,zero
   138ec:	01c04034 	movhi	r7,256
   138f0:	00000706 	br	13910 <__kernel_rem_pio2+0x3dc>
   138f4:	390dc83a 	sub	r6,r7,r4
   138f8:	20000226 	beq	r4,zero,13904 <__kernel_rem_pio2+0x3d0>
   138fc:	11800015 	stw	r6,0(r2)
   13900:	05000044 	movi	r20,1
   13904:	29400044 	addi	r5,r5,1
   13908:	10800104 	addi	r2,r2,4
   1390c:	2c80080e 	bge	r5,r18,13930 <__kernel_rem_pio2+0x3fc>
   13910:	11000017 	ldw	r4,0(r2)
   13914:	a03ff726 	beq	r20,zero,138f4 <_gp+0xfffef894>
   13918:	5109c83a 	sub	r4,r10,r4
   1391c:	11000015 	stw	r4,0(r2)
   13920:	29400044 	addi	r5,r5,1
   13924:	05000044 	movi	r20,1
   13928:	10800104 	addi	r2,r2,4
   1392c:	2cbff816 	blt	r5,r18,13910 <_gp+0xfffef8b0>
   13930:	d9009017 	ldw	r4,576(sp)
   13934:	01000e0e 	bge	zero,r4,13970 <__kernel_rem_pio2+0x43c>
   13938:	00800044 	movi	r2,1
   1393c:	20808d26 	beq	r4,r2,13b74 <__kernel_rem_pio2+0x640>
   13940:	00800084 	movi	r2,2
   13944:	20800a1e 	bne	r4,r2,13970 <__kernel_rem_pio2+0x43c>
   13948:	90bfffc4 	addi	r2,r18,-1
   1394c:	1085883a 	add	r2,r2,r2
   13950:	1085883a 	add	r2,r2,r2
   13954:	d885883a 	add	r2,sp,r2
   13958:	10807804 	addi	r2,r2,480
   1395c:	11400017 	ldw	r5,0(r2)
   13960:	01001034 	movhi	r4,64
   13964:	213fffc4 	addi	r4,r4,-1
   13968:	2908703a 	and	r4,r5,r4
   1396c:	11000015 	stw	r4,0(r2)
   13970:	00800084 	movi	r2,2
   13974:	98805d26 	beq	r19,r2,13aec <__kernel_rem_pio2+0x5b8>
   13978:	400b883a 	mov	r5,r8
   1397c:	000d883a 	mov	r6,zero
   13980:	000f883a 	mov	r7,zero
   13984:	a809883a 	mov	r4,r21
   13988:	da009b15 	stw	r8,620(sp)
   1398c:	00170800 	call	17080 <__eqdf2>
   13990:	da009b17 	ldw	r8,620(sp)
   13994:	10012b1e 	bne	r2,zero,13e44 <__kernel_rem_pio2+0x910>
   13998:	da009417 	ldw	r8,592(sp)
   1399c:	917fffc4 	addi	r5,r18,-1
   139a0:	2a000e16 	blt	r5,r8,139dc <__kernel_rem_pio2+0x4a8>
   139a4:	00900034 	movhi	r2,16384
   139a8:	10bfffc4 	addi	r2,r2,-1
   139ac:	9085883a 	add	r2,r18,r2
   139b0:	1085883a 	add	r2,r2,r2
   139b4:	d9809717 	ldw	r6,604(sp)
   139b8:	1085883a 	add	r2,r2,r2
   139bc:	d9007804 	addi	r4,sp,480
   139c0:	0007883a 	mov	r3,zero
   139c4:	2085883a 	add	r2,r4,r2
   139c8:	11000017 	ldw	r4,0(r2)
   139cc:	10bfff04 	addi	r2,r2,-4
   139d0:	1906b03a 	or	r3,r3,r4
   139d4:	11bffc1e 	bne	r2,r6,139c8 <_gp+0xfffef968>
   139d8:	1800821e 	bne	r3,zero,13be4 <__kernel_rem_pio2+0x6b0>
   139dc:	da009817 	ldw	r8,608(sp)
   139e0:	40800017 	ldw	r2,0(r8)
   139e4:	1001151e 	bne	r2,zero,13e3c <__kernel_rem_pio2+0x908>
   139e8:	d8809617 	ldw	r2,600(sp)
   139ec:	05000044 	movi	r20,1
   139f0:	10bfff04 	addi	r2,r2,-4
   139f4:	10c00117 	ldw	r3,4(r2)
   139f8:	a5000044 	addi	r20,r20,1
   139fc:	183ffc26 	beq	r3,zero,139f0 <_gp+0xfffef990>
   13a00:	9529883a 	add	r20,r18,r20
   13a04:	90800044 	addi	r2,r18,1
   13a08:	dd009115 	stw	r20,580(sp)
   13a0c:	a0803216 	blt	r20,r2,13ad8 <__kernel_rem_pio2+0x5a4>
   13a10:	da009317 	ldw	r8,588(sp)
   13a14:	d8c09117 	ldw	r3,580(sp)
   13a18:	44a3883a 	add	r17,r8,r18
   13a1c:	da009217 	ldw	r8,584(sp)
   13a20:	882290fa 	slli	r17,r17,3
   13a24:	40a5883a 	add	r18,r8,r2
   13a28:	da009517 	ldw	r8,596(sp)
   13a2c:	100490fa 	slli	r2,r2,3
   13a30:	94a5883a 	add	r18,r18,r18
   13a34:	40eb883a 	add	r21,r8,r3
   13a38:	da00a717 	ldw	r8,668(sp)
   13a3c:	ad6b883a 	add	r21,r21,r21
   13a40:	94a5883a 	add	r18,r18,r18
   13a44:	ad6b883a 	add	r21,r21,r21
   13a48:	d8c05004 	addi	r3,sp,320
   13a4c:	44a5883a 	add	r18,r8,r18
   13a50:	1c63883a 	add	r17,r3,r17
   13a54:	d8a7883a 	add	r19,sp,r2
   13a58:	456b883a 	add	r21,r8,r21
   13a5c:	91000017 	ldw	r4,0(r18)
   13a60:	00182780 	call	18278 <__floatsidf>
   13a64:	da008d17 	ldw	r8,564(sp)
   13a68:	88800015 	stw	r2,0(r17)
   13a6c:	88c00115 	stw	r3,4(r17)
   13a70:	40001b16 	blt	r8,zero,13ae0 <__kernel_rem_pio2+0x5ac>
   13a74:	dd008e17 	ldw	r20,568(sp)
   13a78:	882d883a 	mov	r22,r17
   13a7c:	002f883a 	mov	r23,zero
   13a80:	0039883a 	mov	fp,zero
   13a84:	b1800017 	ldw	r6,0(r22)
   13a88:	b1c00117 	ldw	r7,4(r22)
   13a8c:	a1000017 	ldw	r4,0(r20)
   13a90:	a1400117 	ldw	r5,4(r20)
   13a94:	a5000204 	addi	r20,r20,8
   13a98:	b5bffe04 	addi	r22,r22,-8
   13a9c:	00171e40 	call	171e4 <__muldf3>
   13aa0:	b809883a 	mov	r4,r23
   13aa4:	e00b883a 	mov	r5,fp
   13aa8:	100d883a 	mov	r6,r2
   13aac:	180f883a 	mov	r7,r3
   13ab0:	0015eec0 	call	15eec <__adddf3>
   13ab4:	102f883a 	mov	r23,r2
   13ab8:	1839883a 	mov	fp,r3
   13abc:	a43ff11e 	bne	r20,r16,13a84 <_gp+0xfffefa24>
   13ac0:	9dc00015 	stw	r23,0(r19)
   13ac4:	9f000115 	stw	fp,4(r19)
   13ac8:	94800104 	addi	r18,r18,4
   13acc:	8c400204 	addi	r17,r17,8
   13ad0:	9cc00204 	addi	r19,r19,8
   13ad4:	957fe11e 	bne	r18,r21,13a5c <_gp+0xfffef9fc>
   13ad8:	dc809117 	ldw	r18,580(sp)
   13adc:	003f0f06 	br	1371c <_gp+0xfffef6bc>
   13ae0:	002f883a 	mov	r23,zero
   13ae4:	0039883a 	mov	fp,zero
   13ae8:	003ff506 	br	13ac0 <_gp+0xfffefa60>
   13aec:	480d883a 	mov	r6,r9
   13af0:	180f883a 	mov	r7,r3
   13af4:	0009883a 	mov	r4,zero
   13af8:	014ffc34 	movhi	r5,16368
   13afc:	00178fc0 	call	178fc <__subdf3>
   13b00:	102b883a 	mov	r21,r2
   13b04:	1811883a 	mov	r8,r3
   13b08:	a03f9b26 	beq	r20,zero,13978 <_gp+0xfffef918>
   13b0c:	d9809017 	ldw	r6,576(sp)
   13b10:	0009883a 	mov	r4,zero
   13b14:	014ffc34 	movhi	r5,16368
   13b18:	d8c09b15 	stw	r3,620(sp)
   13b1c:	00147900 	call	14790 <scalbn>
   13b20:	da009b17 	ldw	r8,620(sp)
   13b24:	a809883a 	mov	r4,r21
   13b28:	100d883a 	mov	r6,r2
   13b2c:	400b883a 	mov	r5,r8
   13b30:	180f883a 	mov	r7,r3
   13b34:	00178fc0 	call	178fc <__subdf3>
   13b38:	102b883a 	mov	r21,r2
   13b3c:	1811883a 	mov	r8,r3
   13b40:	003f8d06 	br	13978 <_gp+0xfffef918>
   13b44:	0005883a 	mov	r2,zero
   13b48:	0007883a 	mov	r3,zero
   13b4c:	003eac06 	br	13600 <_gp+0xfffef5a0>
   13b50:	d8809017 	ldw	r2,576(sp)
   13b54:	1000121e 	bne	r2,zero,13ba0 <__kernel_rem_pio2+0x66c>
   13b58:	90bfffc4 	addi	r2,r18,-1
   13b5c:	1085883a 	add	r2,r2,r2
   13b60:	1085883a 	add	r2,r2,r2
   13b64:	d885883a 	add	r2,sp,r2
   13b68:	14c07817 	ldw	r19,480(r2)
   13b6c:	9827d5fa 	srai	r19,r19,23
   13b70:	003f5606 	br	138cc <_gp+0xfffef86c>
   13b74:	90bfffc4 	addi	r2,r18,-1
   13b78:	1085883a 	add	r2,r2,r2
   13b7c:	1085883a 	add	r2,r2,r2
   13b80:	d885883a 	add	r2,sp,r2
   13b84:	10807804 	addi	r2,r2,480
   13b88:	11000017 	ldw	r4,0(r2)
   13b8c:	01402034 	movhi	r5,128
   13b90:	297fffc4 	addi	r5,r5,-1
   13b94:	2148703a 	and	r4,r4,r5
   13b98:	11000015 	stw	r4,0(r2)
   13b9c:	003f7406 	br	13970 <_gp+0xfffef910>
   13ba0:	4809883a 	mov	r4,r9
   13ba4:	180b883a 	mov	r5,r3
   13ba8:	000d883a 	mov	r6,zero
   13bac:	01cff834 	movhi	r7,16352
   13bb0:	d8c09a15 	stw	r3,616(sp)
   13bb4:	d8c09b15 	stw	r3,620(sp)
   13bb8:	da409915 	stw	r9,612(sp)
   13bbc:	00171080 	call	17108 <__gedf2>
   13bc0:	d8c09a17 	ldw	r3,616(sp)
   13bc4:	da009b17 	ldw	r8,620(sp)
   13bc8:	da409917 	ldw	r9,612(sp)
   13bcc:	1000920e 	bge	r2,zero,13e18 <__kernel_rem_pio2+0x8e4>
   13bd0:	0027883a 	mov	r19,zero
   13bd4:	003f6806 	br	13978 <_gp+0xfffef918>
   13bd8:	002d883a 	mov	r22,zero
   13bdc:	002b883a 	mov	r21,zero
   13be0:	003eb006 	br	136a4 <_gp+0xfffef644>
   13be4:	2945883a 	add	r2,r5,r5
   13be8:	da009017 	ldw	r8,576(sp)
   13bec:	1085883a 	add	r2,r2,r2
   13bf0:	d885883a 	add	r2,sp,r2
   13bf4:	10807817 	ldw	r2,480(r2)
   13bf8:	423ffa04 	addi	r8,r8,-24
   13bfc:	dc409115 	stw	r17,580(sp)
   13c00:	dcc08d15 	stw	r19,564(sp)
   13c04:	da009015 	stw	r8,576(sp)
   13c08:	dd809417 	ldw	r22,592(sp)
   13c0c:	2823883a 	mov	r17,r5
   13c10:	10000e1e 	bne	r2,zero,13c4c <__kernel_rem_pio2+0x718>
   13c14:	00900034 	movhi	r2,16384
   13c18:	10bfffc4 	addi	r2,r2,-1
   13c1c:	2885883a 	add	r2,r5,r2
   13c20:	1085883a 	add	r2,r2,r2
   13c24:	d8c07804 	addi	r3,sp,480
   13c28:	1085883a 	add	r2,r2,r2
   13c2c:	1885883a 	add	r2,r3,r2
   13c30:	4007883a 	mov	r3,r8
   13c34:	10bfff04 	addi	r2,r2,-4
   13c38:	11000117 	ldw	r4,4(r2)
   13c3c:	8c7fffc4 	addi	r17,r17,-1
   13c40:	18fffa04 	addi	r3,r3,-24
   13c44:	203ffb26 	beq	r4,zero,13c34 <_gp+0xfffefbd4>
   13c48:	d8c09015 	stw	r3,576(sp)
   13c4c:	d9809017 	ldw	r6,576(sp)
   13c50:	0009883a 	mov	r4,zero
   13c54:	014ffc34 	movhi	r5,16368
   13c58:	00147900 	call	14790 <scalbn>
   13c5c:	1029883a 	mov	r20,r2
   13c60:	182b883a 	mov	r21,r3
   13c64:	88018416 	blt	r17,zero,14278 <__kernel_rem_pio2+0xd44>
   13c68:	881090fa 	slli	r8,r17,3
   13c6c:	d8c07804 	addi	r3,sp,480
   13c70:	da008e15 	stw	r8,568(sp)
   13c74:	d8808e17 	ldw	r2,568(sp)
   13c78:	8c51883a 	add	r8,r17,r17
   13c7c:	4211883a 	add	r8,r8,r8
   13c80:	d8a1883a 	add	r16,sp,r2
   13c84:	1a25883a 	add	r18,r3,r8
   13c88:	da3ffe04 	addi	r8,sp,-8
   13c8c:	da008c15 	stw	r8,560(sp)
   13c90:	8039883a 	mov	fp,r16
   13c94:	91000017 	ldw	r4,0(r18)
   13c98:	e73ffe04 	addi	fp,fp,-8
   13c9c:	94bfff04 	addi	r18,r18,-4
   13ca0:	00182780 	call	18278 <__floatsidf>
   13ca4:	a00d883a 	mov	r6,r20
   13ca8:	a80f883a 	mov	r7,r21
   13cac:	1009883a 	mov	r4,r2
   13cb0:	180b883a 	mov	r5,r3
   13cb4:	00171e40 	call	171e4 <__muldf3>
   13cb8:	a009883a 	mov	r4,r20
   13cbc:	a80b883a 	mov	r5,r21
   13cc0:	e0800215 	stw	r2,8(fp)
   13cc4:	e0c00315 	stw	r3,12(fp)
   13cc8:	000d883a 	mov	r6,zero
   13ccc:	01cf9c34 	movhi	r7,15984
   13cd0:	00171e40 	call	171e4 <__muldf3>
   13cd4:	da008c17 	ldw	r8,560(sp)
   13cd8:	1029883a 	mov	r20,r2
   13cdc:	182b883a 	mov	r21,r3
   13ce0:	e23fec1e 	bne	fp,r8,13c94 <_gp+0xfffefc34>
   13ce4:	0029883a 	mov	r20,zero
   13ce8:	b0004f16 	blt	r22,zero,13e28 <__kernel_rem_pio2+0x8f4>
   13cec:	054000b4 	movhi	r21,2
   13cf0:	014ffe74 	movhi	r5,16377
   13cf4:	ad6d9704 	addi	r21,r21,-18852
   13cf8:	8027883a 	mov	r19,r16
   13cfc:	01100034 	movhi	r4,16384
   13d00:	29487ec4 	addi	r5,r5,8699
   13d04:	0039883a 	mov	fp,zero
   13d08:	002f883a 	mov	r23,zero
   13d0c:	0025883a 	mov	r18,zero
   13d10:	00000506 	br	13d28 <__kernel_rem_pio2+0x7f4>
   13d14:	9cc00204 	addi	r19,r19,8
   13d18:	a4800f16 	blt	r20,r18,13d58 <__kernel_rem_pio2+0x824>
   13d1c:	a9000017 	ldw	r4,0(r21)
   13d20:	a9400117 	ldw	r5,4(r21)
   13d24:	ad400204 	addi	r21,r21,8
   13d28:	99800017 	ldw	r6,0(r19)
   13d2c:	99c00117 	ldw	r7,4(r19)
   13d30:	94800044 	addi	r18,r18,1
   13d34:	00171e40 	call	171e4 <__muldf3>
   13d38:	e009883a 	mov	r4,fp
   13d3c:	b80b883a 	mov	r5,r23
   13d40:	100d883a 	mov	r6,r2
   13d44:	180f883a 	mov	r7,r3
   13d48:	0015eec0 	call	15eec <__adddf3>
   13d4c:	1039883a 	mov	fp,r2
   13d50:	182f883a 	mov	r23,r3
   13d54:	b4bfef0e 	bge	r22,r18,13d14 <_gp+0xfffefcb4>
   13d58:	a00490fa 	slli	r2,r20,3
   13d5c:	da008c17 	ldw	r8,560(sp)
   13d60:	843ffe04 	addi	r16,r16,-8
   13d64:	d885883a 	add	r2,sp,r2
   13d68:	10802804 	addi	r2,r2,160
   13d6c:	17000015 	stw	fp,0(r2)
   13d70:	15c00115 	stw	r23,4(r2)
   13d74:	a5000044 	addi	r20,r20,1
   13d78:	823fdb1e 	bne	r16,r8,13ce8 <_gp+0xfffefc88>
   13d7c:	da00a617 	ldw	r8,664(sp)
   13d80:	00800084 	movi	r2,2
   13d84:	12006616 	blt	r2,r8,13f20 <__kernel_rem_pio2+0x9ec>
   13d88:	0200de16 	blt	zero,r8,14104 <__kernel_rem_pio2+0xbd0>
   13d8c:	4000141e 	bne	r8,zero,13de0 <__kernel_rem_pio2+0x8ac>
   13d90:	da008e17 	ldw	r8,568(sp)
   13d94:	d8802804 	addi	r2,sp,160
   13d98:	0007883a 	mov	r3,zero
   13d9c:	1225883a 	add	r18,r2,r8
   13da0:	043fffc4 	movi	r16,-1
   13da4:	0005883a 	mov	r2,zero
   13da8:	91800017 	ldw	r6,0(r18)
   13dac:	91c00117 	ldw	r7,4(r18)
   13db0:	1009883a 	mov	r4,r2
   13db4:	180b883a 	mov	r5,r3
   13db8:	8c7fffc4 	addi	r17,r17,-1
   13dbc:	0015eec0 	call	15eec <__adddf3>
   13dc0:	94bffe04 	addi	r18,r18,-8
   13dc4:	8c3ff81e 	bne	r17,r16,13da8 <_gp+0xfffefd48>
   13dc8:	da008d17 	ldw	r8,564(sp)
   13dcc:	40000126 	beq	r8,zero,13dd4 <__kernel_rem_pio2+0x8a0>
   13dd0:	18e0003c 	xorhi	r3,r3,32768
   13dd4:	da008f17 	ldw	r8,572(sp)
   13dd8:	40800015 	stw	r2,0(r8)
   13ddc:	40c00115 	stw	r3,4(r8)
   13de0:	da009117 	ldw	r8,580(sp)
   13de4:	408001cc 	andi	r2,r8,7
   13de8:	dfc0a517 	ldw	ra,660(sp)
   13dec:	df00a417 	ldw	fp,656(sp)
   13df0:	ddc0a317 	ldw	r23,652(sp)
   13df4:	dd80a217 	ldw	r22,648(sp)
   13df8:	dd40a117 	ldw	r21,644(sp)
   13dfc:	dd00a017 	ldw	r20,640(sp)
   13e00:	dcc09f17 	ldw	r19,636(sp)
   13e04:	dc809e17 	ldw	r18,632(sp)
   13e08:	dc409d17 	ldw	r17,628(sp)
   13e0c:	dc009c17 	ldw	r16,624(sp)
   13e10:	dec0a604 	addi	sp,sp,664
   13e14:	f800283a 	ret
   13e18:	8c400044 	addi	r17,r17,1
   13e1c:	04810d0e 	bge	zero,r18,14254 <__kernel_rem_pio2+0xd20>
   13e20:	04c00084 	movi	r19,2
   13e24:	003eac06 	br	138d8 <_gp+0xfffef878>
   13e28:	0039883a 	mov	fp,zero
   13e2c:	002f883a 	mov	r23,zero
   13e30:	003fc906 	br	13d58 <_gp+0xfffefcf8>
   13e34:	0029883a 	mov	r20,zero
   13e38:	003ebd06 	br	13930 <_gp+0xfffef8d0>
   13e3c:	05000044 	movi	r20,1
   13e40:	003eef06 	br	13a00 <_gp+0xfffef9a0>
   13e44:	4029883a 	mov	r20,r8
   13e48:	da009017 	ldw	r8,576(sp)
   13e4c:	a809883a 	mov	r4,r21
   13e50:	a00b883a 	mov	r5,r20
   13e54:	020dc83a 	sub	r6,zero,r8
   13e58:	dc409115 	stw	r17,580(sp)
   13e5c:	dd809417 	ldw	r22,592(sp)
   13e60:	dcc08d15 	stw	r19,564(sp)
   13e64:	00147900 	call	14790 <scalbn>
   13e68:	000d883a 	mov	r6,zero
   13e6c:	01d05c34 	movhi	r7,16752
   13e70:	1009883a 	mov	r4,r2
   13e74:	180b883a 	mov	r5,r3
   13e78:	102b883a 	mov	r21,r2
   13e7c:	1823883a 	mov	r17,r3
   13e80:	00171080 	call	17108 <__gedf2>
   13e84:	1000e916 	blt	r2,zero,1422c <__kernel_rem_pio2+0xcf8>
   13e88:	000d883a 	mov	r6,zero
   13e8c:	01cf9c34 	movhi	r7,15984
   13e90:	880b883a 	mov	r5,r17
   13e94:	a809883a 	mov	r4,r21
   13e98:	00171e40 	call	171e4 <__muldf3>
   13e9c:	180b883a 	mov	r5,r3
   13ea0:	1009883a 	mov	r4,r2
   13ea4:	00181f80 	call	181f8 <__fixdfsi>
   13ea8:	1029883a 	mov	r20,r2
   13eac:	9485883a 	add	r2,r18,r18
   13eb0:	1085883a 	add	r2,r2,r2
   13eb4:	a009883a 	mov	r4,r20
   13eb8:	d8a1883a 	add	r16,sp,r2
   13ebc:	00182780 	call	18278 <__floatsidf>
   13ec0:	000d883a 	mov	r6,zero
   13ec4:	01d05c34 	movhi	r7,16752
   13ec8:	1009883a 	mov	r4,r2
   13ecc:	180b883a 	mov	r5,r3
   13ed0:	00171e40 	call	171e4 <__muldf3>
   13ed4:	880b883a 	mov	r5,r17
   13ed8:	100d883a 	mov	r6,r2
   13edc:	180f883a 	mov	r7,r3
   13ee0:	a809883a 	mov	r4,r21
   13ee4:	00178fc0 	call	178fc <__subdf3>
   13ee8:	180b883a 	mov	r5,r3
   13eec:	1009883a 	mov	r4,r2
   13ef0:	00181f80 	call	181f8 <__fixdfsi>
   13ef4:	da009017 	ldw	r8,576(sp)
   13ef8:	94400044 	addi	r17,r18,1
   13efc:	8c47883a 	add	r3,r17,r17
   13f00:	84007804 	addi	r16,r16,480
   13f04:	18c7883a 	add	r3,r3,r3
   13f08:	80800015 	stw	r2,0(r16)
   13f0c:	d8c7883a 	add	r3,sp,r3
   13f10:	42000604 	addi	r8,r8,24
   13f14:	da009015 	stw	r8,576(sp)
   13f18:	1d007815 	stw	r20,480(r3)
   13f1c:	003f4b06 	br	13c4c <_gp+0xfffefbec>
   13f20:	da00a617 	ldw	r8,664(sp)
   13f24:	008000c4 	movi	r2,3
   13f28:	40bfad1e 	bne	r8,r2,13de0 <_gp+0xfffefd80>
   13f2c:	0440bc0e 	bge	zero,r17,14220 <__kernel_rem_pio2+0xcec>
   13f30:	da008e17 	ldw	r8,568(sp)
   13f34:	882090fa 	slli	r16,r17,3
   13f38:	dd402804 	addi	r21,sp,160
   13f3c:	da05883a 	add	r2,sp,r8
   13f40:	10802804 	addi	r2,r2,160
   13f44:	15c00017 	ldw	r23,0(r2)
   13f48:	15800117 	ldw	r22,4(r2)
   13f4c:	8029883a 	mov	r20,r16
   13f50:	843ffe04 	addi	r16,r16,-8
   13f54:	ac21883a 	add	r16,r21,r16
   13f58:	ad29883a 	add	r20,r21,r20
   13f5c:	dac02604 	addi	r11,sp,152
   13f60:	8811883a 	mov	r8,r17
   13f64:	84400017 	ldw	r17,0(r16)
   13f68:	87000117 	ldw	fp,4(r16)
   13f6c:	b80d883a 	mov	r6,r23
   13f70:	b00f883a 	mov	r7,r22
   13f74:	8809883a 	mov	r4,r17
   13f78:	e00b883a 	mov	r5,fp
   13f7c:	da009b15 	stw	r8,620(sp)
   13f80:	dac09915 	stw	r11,612(sp)
   13f84:	0015eec0 	call	15eec <__adddf3>
   13f88:	100d883a 	mov	r6,r2
   13f8c:	180f883a 	mov	r7,r3
   13f90:	8809883a 	mov	r4,r17
   13f94:	e00b883a 	mov	r5,fp
   13f98:	1027883a 	mov	r19,r2
   13f9c:	1825883a 	mov	r18,r3
   13fa0:	00178fc0 	call	178fc <__subdf3>
   13fa4:	b80d883a 	mov	r6,r23
   13fa8:	b00f883a 	mov	r7,r22
   13fac:	1009883a 	mov	r4,r2
   13fb0:	180b883a 	mov	r5,r3
   13fb4:	0015eec0 	call	15eec <__adddf3>
   13fb8:	dac09917 	ldw	r11,612(sp)
   13fbc:	a0800015 	stw	r2,0(r20)
   13fc0:	a0c00115 	stw	r3,4(r20)
   13fc4:	84c00015 	stw	r19,0(r16)
   13fc8:	84800115 	stw	r18,4(r16)
   13fcc:	843ffe04 	addi	r16,r16,-8
   13fd0:	a53ffe04 	addi	r20,r20,-8
   13fd4:	982f883a 	mov	r23,r19
   13fd8:	902d883a 	mov	r22,r18
   13fdc:	da009b17 	ldw	r8,620(sp)
   13fe0:	5c3fe01e 	bne	r11,r16,13f64 <_gp+0xfffeff04>
   13fe4:	00800044 	movi	r2,1
   13fe8:	12008d0e 	bge	r2,r8,14220 <__kernel_rem_pio2+0xcec>
   13fec:	402090fa 	slli	r16,r8,3
   13ff0:	da008e17 	ldw	r8,568(sp)
   13ff4:	8023883a 	mov	r17,r16
   13ff8:	da05883a 	add	r2,sp,r8
   13ffc:	10802804 	addi	r2,r2,160
   14000:	15800017 	ldw	r22,0(r2)
   14004:	15000117 	ldw	r20,4(r2)
   14008:	ac63883a 	add	r17,r21,r17
   1400c:	843ffe04 	addi	r16,r16,-8
   14010:	ac21883a 	add	r16,r21,r16
   14014:	8825883a 	mov	r18,r17
   14018:	8811883a 	mov	r8,r17
   1401c:	84400017 	ldw	r17,0(r16)
   14020:	87000117 	ldw	fp,4(r16)
   14024:	b009883a 	mov	r4,r22
   14028:	a00b883a 	mov	r5,r20
   1402c:	880d883a 	mov	r6,r17
   14030:	e00f883a 	mov	r7,fp
   14034:	da009b15 	stw	r8,620(sp)
   14038:	0015eec0 	call	15eec <__adddf3>
   1403c:	100d883a 	mov	r6,r2
   14040:	180f883a 	mov	r7,r3
   14044:	8809883a 	mov	r4,r17
   14048:	e00b883a 	mov	r5,fp
   1404c:	102f883a 	mov	r23,r2
   14050:	1827883a 	mov	r19,r3
   14054:	00178fc0 	call	178fc <__subdf3>
   14058:	b00d883a 	mov	r6,r22
   1405c:	a00f883a 	mov	r7,r20
   14060:	1009883a 	mov	r4,r2
   14064:	180b883a 	mov	r5,r3
   14068:	0015eec0 	call	15eec <__adddf3>
   1406c:	90800015 	stw	r2,0(r18)
   14070:	90c00115 	stw	r3,4(r18)
   14074:	85c00015 	stw	r23,0(r16)
   14078:	84c00115 	stw	r19,4(r16)
   1407c:	843ffe04 	addi	r16,r16,-8
   14080:	94bffe04 	addi	r18,r18,-8
   14084:	b82d883a 	mov	r22,r23
   14088:	9829883a 	mov	r20,r19
   1408c:	da009b17 	ldw	r8,620(sp)
   14090:	ac3fe21e 	bne	r21,r16,1401c <_gp+0xfffeffbc>
   14094:	4023883a 	mov	r17,r8
   14098:	dc002a04 	addi	r16,sp,168
   1409c:	0005883a 	mov	r2,zero
   140a0:	0007883a 	mov	r3,zero
   140a4:	89800017 	ldw	r6,0(r17)
   140a8:	89c00117 	ldw	r7,4(r17)
   140ac:	1009883a 	mov	r4,r2
   140b0:	8c7ffe04 	addi	r17,r17,-8
   140b4:	180b883a 	mov	r5,r3
   140b8:	0015eec0 	call	15eec <__adddf3>
   140bc:	847ff91e 	bne	r16,r17,140a4 <_gp+0xffff0044>
   140c0:	da008d17 	ldw	r8,564(sp)
   140c4:	40004726 	beq	r8,zero,141e4 <__kernel_rem_pio2+0xcb0>
   140c8:	d9002b17 	ldw	r4,172(sp)
   140cc:	d9402917 	ldw	r5,164(sp)
   140d0:	d9802a17 	ldw	r6,168(sp)
   140d4:	da008f17 	ldw	r8,572(sp)
   140d8:	d9c02817 	ldw	r7,160(sp)
   140dc:	2960003c 	xorhi	r5,r5,32768
   140e0:	2120003c 	xorhi	r4,r4,32768
   140e4:	18e0003c 	xorhi	r3,r3,32768
   140e8:	41c00015 	stw	r7,0(r8)
   140ec:	41400115 	stw	r5,4(r8)
   140f0:	41800215 	stw	r6,8(r8)
   140f4:	41000315 	stw	r4,12(r8)
   140f8:	40800415 	stw	r2,16(r8)
   140fc:	40c00515 	stw	r3,20(r8)
   14100:	003f3706 	br	13de0 <_gp+0xfffefd80>
   14104:	da008e17 	ldw	r8,568(sp)
   14108:	d8802804 	addi	r2,sp,160
   1410c:	dc002604 	addi	r16,sp,152
   14110:	1225883a 	add	r18,r2,r8
   14114:	0007883a 	mov	r3,zero
   14118:	0005883a 	mov	r2,zero
   1411c:	91800017 	ldw	r6,0(r18)
   14120:	91c00117 	ldw	r7,4(r18)
   14124:	1009883a 	mov	r4,r2
   14128:	94bffe04 	addi	r18,r18,-8
   1412c:	180b883a 	mov	r5,r3
   14130:	0015eec0 	call	15eec <__adddf3>
   14134:	943ff91e 	bne	r18,r16,1411c <_gp+0xffff00bc>
   14138:	da008d17 	ldw	r8,564(sp)
   1413c:	d9002817 	ldw	r4,160(sp)
   14140:	d9402917 	ldw	r5,164(sp)
   14144:	40001a26 	beq	r8,zero,141b0 <__kernel_rem_pio2+0xc7c>
   14148:	da008f17 	ldw	r8,572(sp)
   1414c:	19a0003c 	xorhi	r6,r3,32768
   14150:	180f883a 	mov	r7,r3
   14154:	41800115 	stw	r6,4(r8)
   14158:	40800015 	stw	r2,0(r8)
   1415c:	100d883a 	mov	r6,r2
   14160:	00178fc0 	call	178fc <__subdf3>
   14164:	04400c0e 	bge	zero,r17,14198 <__kernel_rem_pio2+0xc64>
   14168:	dc002a04 	addi	r16,sp,168
   1416c:	04800044 	movi	r18,1
   14170:	81800017 	ldw	r6,0(r16)
   14174:	81c00117 	ldw	r7,4(r16)
   14178:	1009883a 	mov	r4,r2
   1417c:	180b883a 	mov	r5,r3
   14180:	94800044 	addi	r18,r18,1
   14184:	0015eec0 	call	15eec <__adddf3>
   14188:	84000204 	addi	r16,r16,8
   1418c:	8cbff80e 	bge	r17,r18,14170 <_gp+0xffff0110>
   14190:	da008d17 	ldw	r8,564(sp)
   14194:	40004226 	beq	r8,zero,142a0 <__kernel_rem_pio2+0xd6c>
   14198:	da008f17 	ldw	r8,572(sp)
   1419c:	1009883a 	mov	r4,r2
   141a0:	18a0003c 	xorhi	r2,r3,32768
   141a4:	41000215 	stw	r4,8(r8)
   141a8:	40800315 	stw	r2,12(r8)
   141ac:	003f0c06 	br	13de0 <_gp+0xfffefd80>
   141b0:	da008f17 	ldw	r8,572(sp)
   141b4:	100d883a 	mov	r6,r2
   141b8:	180f883a 	mov	r7,r3
   141bc:	40800015 	stw	r2,0(r8)
   141c0:	40c00115 	stw	r3,4(r8)
   141c4:	00178fc0 	call	178fc <__subdf3>
   141c8:	047fe716 	blt	zero,r17,14168 <_gp+0xffff0108>
   141cc:	da008f17 	ldw	r8,572(sp)
   141d0:	1009883a 	mov	r4,r2
   141d4:	1805883a 	mov	r2,r3
   141d8:	41000215 	stw	r4,8(r8)
   141dc:	40800315 	stw	r2,12(r8)
   141e0:	003eff06 	br	13de0 <_gp+0xfffefd80>
   141e4:	da008f17 	ldw	r8,572(sp)
   141e8:	d9802817 	ldw	r6,160(sp)
   141ec:	d9402a17 	ldw	r5,168(sp)
   141f0:	d9002b17 	ldw	r4,172(sp)
   141f4:	41800015 	stw	r6,0(r8)
   141f8:	d9802917 	ldw	r6,164(sp)
   141fc:	41400215 	stw	r5,8(r8)
   14200:	41000315 	stw	r4,12(r8)
   14204:	41800115 	stw	r6,4(r8)
   14208:	40800415 	stw	r2,16(r8)
   1420c:	40c00515 	stw	r3,20(r8)
   14210:	003ef306 	br	13de0 <_gp+0xfffefd80>
   14214:	da00a617 	ldw	r8,664(sp)
   14218:	008000c4 	movi	r2,3
   1421c:	40bef01e 	bne	r8,r2,13de0 <_gp+0xfffefd80>
   14220:	0005883a 	mov	r2,zero
   14224:	0007883a 	mov	r3,zero
   14228:	003fa506 	br	140c0 <_gp+0xffff0060>
   1422c:	9485883a 	add	r2,r18,r18
   14230:	1085883a 	add	r2,r2,r2
   14234:	d8a1883a 	add	r16,sp,r2
   14238:	880b883a 	mov	r5,r17
   1423c:	a809883a 	mov	r4,r21
   14240:	84007804 	addi	r16,r16,480
   14244:	00181f80 	call	181f8 <__fixdfsi>
   14248:	80800015 	stw	r2,0(r16)
   1424c:	9023883a 	mov	r17,r18
   14250:	003e7e06 	br	13c4c <_gp+0xfffefbec>
   14254:	a80d883a 	mov	r6,r21
   14258:	400f883a 	mov	r7,r8
   1425c:	0009883a 	mov	r4,zero
   14260:	014ffc34 	movhi	r5,16368
   14264:	00178fc0 	call	178fc <__subdf3>
   14268:	102b883a 	mov	r21,r2
   1426c:	1811883a 	mov	r8,r3
   14270:	04c00084 	movi	r19,2
   14274:	003dc006 	br	13978 <_gp+0xfffef918>
   14278:	da00a617 	ldw	r8,664(sp)
   1427c:	00800084 	movi	r2,2
   14280:	123fe416 	blt	r2,r8,14214 <_gp+0xffff01b4>
   14284:	02000c16 	blt	zero,r8,142b8 <__kernel_rem_pio2+0xd84>
   14288:	403ed51e 	bne	r8,zero,13de0 <_gp+0xfffefd80>
   1428c:	0005883a 	mov	r2,zero
   14290:	0007883a 	mov	r3,zero
   14294:	003ecc06 	br	13dc8 <_gp+0xfffefd68>
   14298:	d8009215 	stw	zero,584(sp)
   1429c:	003cc306 	br	135ac <_gp+0xfffef54c>
   142a0:	da008f17 	ldw	r8,572(sp)
   142a4:	1009883a 	mov	r4,r2
   142a8:	1805883a 	mov	r2,r3
   142ac:	41000215 	stw	r4,8(r8)
   142b0:	40800315 	stw	r2,12(r8)
   142b4:	003eca06 	br	13de0 <_gp+0xfffefd80>
   142b8:	0005883a 	mov	r2,zero
   142bc:	0007883a 	mov	r3,zero
   142c0:	003f9d06 	br	14138 <_gp+0xffff00d8>

000142c4 <__kernel_sin>:
   142c4:	00a00034 	movhi	r2,32768
   142c8:	defff404 	addi	sp,sp,-48
   142cc:	10bfffc4 	addi	r2,r2,-1
   142d0:	00cf9034 	movhi	r3,15936
   142d4:	ddc00915 	stw	r23,36(sp)
   142d8:	dd800815 	stw	r22,32(sp)
   142dc:	dc400315 	stw	r17,12(sp)
   142e0:	dc000215 	stw	r16,8(sp)
   142e4:	dfc00b15 	stw	ra,44(sp)
   142e8:	df000a15 	stw	fp,40(sp)
   142ec:	dd400715 	stw	r21,28(sp)
   142f0:	dd000615 	stw	r20,24(sp)
   142f4:	dcc00515 	stw	r19,20(sp)
   142f8:	dc800415 	stw	r18,16(sp)
   142fc:	2884703a 	and	r2,r5,r2
   14300:	18ffffc4 	addi	r3,r3,-1
   14304:	2821883a 	mov	r16,r5
   14308:	2023883a 	mov	r17,r4
   1430c:	302f883a 	mov	r23,r6
   14310:	382d883a 	mov	r22,r7
   14314:	18800216 	blt	r3,r2,14320 <__kernel_sin+0x5c>
   14318:	00181f80 	call	181f8 <__fixdfsi>
   1431c:	10009926 	beq	r2,zero,14584 <__kernel_sin+0x2c0>
   14320:	880d883a 	mov	r6,r17
   14324:	800f883a 	mov	r7,r16
   14328:	8809883a 	mov	r4,r17
   1432c:	800b883a 	mov	r5,r16
   14330:	00171e40 	call	171e4 <__muldf3>
   14334:	100d883a 	mov	r6,r2
   14338:	180f883a 	mov	r7,r3
   1433c:	8809883a 	mov	r4,r17
   14340:	800b883a 	mov	r5,r16
   14344:	1027883a 	mov	r19,r2
   14348:	1825883a 	mov	r18,r3
   1434c:	00171e40 	call	171e4 <__muldf3>
   14350:	0196b434 	movhi	r6,23248
   14354:	01cf79b4 	movhi	r7,15846
   14358:	31b55f04 	addi	r6,r6,-10884
   1435c:	39f64e84 	addi	r7,r7,-9926
   14360:	9809883a 	mov	r4,r19
   14364:	900b883a 	mov	r5,r18
   14368:	102b883a 	mov	r21,r2
   1436c:	1829883a 	mov	r20,r3
   14370:	00171e40 	call	171e4 <__muldf3>
   14374:	01a28b34 	movhi	r6,35372
   14378:	01cf96f4 	movhi	r7,15963
   1437c:	31a73ac4 	addi	r6,r6,-25365
   14380:	39f97984 	addi	r7,r7,-6682
   14384:	1009883a 	mov	r4,r2
   14388:	180b883a 	mov	r5,r3
   1438c:	00178fc0 	call	178fc <__subdf3>
   14390:	980d883a 	mov	r6,r19
   14394:	900f883a 	mov	r7,r18
   14398:	1009883a 	mov	r4,r2
   1439c:	180b883a 	mov	r5,r3
   143a0:	00171e40 	call	171e4 <__muldf3>
   143a4:	0195ecb4 	movhi	r6,22450
   143a8:	01cfb1f4 	movhi	r7,16071
   143ac:	31bf9f44 	addi	r6,r6,-387
   143b0:	39c778c4 	addi	r7,r7,7651
   143b4:	1009883a 	mov	r4,r2
   143b8:	180b883a 	mov	r5,r3
   143bc:	0015eec0 	call	15eec <__adddf3>
   143c0:	980d883a 	mov	r6,r19
   143c4:	900f883a 	mov	r7,r18
   143c8:	1009883a 	mov	r4,r2
   143cc:	180b883a 	mov	r5,r3
   143d0:	00171e40 	call	171e4 <__muldf3>
   143d4:	01867074 	movhi	r6,6593
   143d8:	01cfcab4 	movhi	r7,16170
   143dc:	31987544 	addi	r6,r6,25045
   143e0:	39c06804 	addi	r7,r7,416
   143e4:	1009883a 	mov	r4,r2
   143e8:	180b883a 	mov	r5,r3
   143ec:	00178fc0 	call	178fc <__subdf3>
   143f0:	980d883a 	mov	r6,r19
   143f4:	900f883a 	mov	r7,r18
   143f8:	1009883a 	mov	r4,r2
   143fc:	180b883a 	mov	r5,r3
   14400:	00171e40 	call	171e4 <__muldf3>
   14404:	01844474 	movhi	r6,4369
   14408:	01cfe074 	movhi	r7,16257
   1440c:	31be2984 	addi	r6,r6,-1882
   14410:	39c44444 	addi	r7,r7,4369
   14414:	1009883a 	mov	r4,r2
   14418:	180b883a 	mov	r5,r3
   1441c:	0015eec0 	call	15eec <__adddf3>
   14420:	1011883a 	mov	r8,r2
   14424:	d8800c17 	ldw	r2,48(sp)
   14428:	1839883a 	mov	fp,r3
   1442c:	10003e26 	beq	r2,zero,14528 <__kernel_sin+0x264>
   14430:	000d883a 	mov	r6,zero
   14434:	01cff834 	movhi	r7,16352
   14438:	b809883a 	mov	r4,r23
   1443c:	b00b883a 	mov	r5,r22
   14440:	da000015 	stw	r8,0(sp)
   14444:	00171e40 	call	171e4 <__muldf3>
   14448:	da000017 	ldw	r8,0(sp)
   1444c:	e00f883a 	mov	r7,fp
   14450:	a809883a 	mov	r4,r21
   14454:	400d883a 	mov	r6,r8
   14458:	a00b883a 	mov	r5,r20
   1445c:	d8c00115 	stw	r3,4(sp)
   14460:	d8800015 	stw	r2,0(sp)
   14464:	00171e40 	call	171e4 <__muldf3>
   14468:	da800017 	ldw	r10,0(sp)
   1446c:	da400117 	ldw	r9,4(sp)
   14470:	100d883a 	mov	r6,r2
   14474:	5009883a 	mov	r4,r10
   14478:	480b883a 	mov	r5,r9
   1447c:	180f883a 	mov	r7,r3
   14480:	00178fc0 	call	178fc <__subdf3>
   14484:	980d883a 	mov	r6,r19
   14488:	900f883a 	mov	r7,r18
   1448c:	1009883a 	mov	r4,r2
   14490:	180b883a 	mov	r5,r3
   14494:	00171e40 	call	171e4 <__muldf3>
   14498:	b80d883a 	mov	r6,r23
   1449c:	b00f883a 	mov	r7,r22
   144a0:	1009883a 	mov	r4,r2
   144a4:	180b883a 	mov	r5,r3
   144a8:	00178fc0 	call	178fc <__subdf3>
   144ac:	01955574 	movhi	r6,21845
   144b0:	01cff174 	movhi	r7,16325
   144b4:	31955244 	addi	r6,r6,21833
   144b8:	39d55544 	addi	r7,r7,21845
   144bc:	a809883a 	mov	r4,r21
   144c0:	a00b883a 	mov	r5,r20
   144c4:	1027883a 	mov	r19,r2
   144c8:	1825883a 	mov	r18,r3
   144cc:	00171e40 	call	171e4 <__muldf3>
   144d0:	100d883a 	mov	r6,r2
   144d4:	180f883a 	mov	r7,r3
   144d8:	9809883a 	mov	r4,r19
   144dc:	900b883a 	mov	r5,r18
   144e0:	0015eec0 	call	15eec <__adddf3>
   144e4:	100d883a 	mov	r6,r2
   144e8:	180f883a 	mov	r7,r3
   144ec:	8809883a 	mov	r4,r17
   144f0:	800b883a 	mov	r5,r16
   144f4:	00178fc0 	call	178fc <__subdf3>
   144f8:	dfc00b17 	ldw	ra,44(sp)
   144fc:	df000a17 	ldw	fp,40(sp)
   14500:	ddc00917 	ldw	r23,36(sp)
   14504:	dd800817 	ldw	r22,32(sp)
   14508:	dd400717 	ldw	r21,28(sp)
   1450c:	dd000617 	ldw	r20,24(sp)
   14510:	dcc00517 	ldw	r19,20(sp)
   14514:	dc800417 	ldw	r18,16(sp)
   14518:	dc400317 	ldw	r17,12(sp)
   1451c:	dc000217 	ldw	r16,8(sp)
   14520:	dec00c04 	addi	sp,sp,48
   14524:	f800283a 	ret
   14528:	400d883a 	mov	r6,r8
   1452c:	9809883a 	mov	r4,r19
   14530:	900b883a 	mov	r5,r18
   14534:	180f883a 	mov	r7,r3
   14538:	00171e40 	call	171e4 <__muldf3>
   1453c:	01955574 	movhi	r6,21845
   14540:	01cff174 	movhi	r7,16325
   14544:	31955244 	addi	r6,r6,21833
   14548:	39d55544 	addi	r7,r7,21845
   1454c:	1009883a 	mov	r4,r2
   14550:	180b883a 	mov	r5,r3
   14554:	00178fc0 	call	178fc <__subdf3>
   14558:	a80d883a 	mov	r6,r21
   1455c:	a00f883a 	mov	r7,r20
   14560:	1009883a 	mov	r4,r2
   14564:	180b883a 	mov	r5,r3
   14568:	00171e40 	call	171e4 <__muldf3>
   1456c:	880d883a 	mov	r6,r17
   14570:	800f883a 	mov	r7,r16
   14574:	1009883a 	mov	r4,r2
   14578:	180b883a 	mov	r5,r3
   1457c:	0015eec0 	call	15eec <__adddf3>
   14580:	003fdd06 	br	144f8 <_gp+0xffff0498>
   14584:	8805883a 	mov	r2,r17
   14588:	8007883a 	mov	r3,r16
   1458c:	003fda06 	br	144f8 <_gp+0xffff0498>

00014590 <fabs>:
   14590:	00e00034 	movhi	r3,32768
   14594:	18ffffc4 	addi	r3,r3,-1
   14598:	2005883a 	mov	r2,r4
   1459c:	28c6703a 	and	r3,r5,r3
   145a0:	f800283a 	ret

000145a4 <floor>:
   145a4:	2811d53a 	srai	r8,r5,20
   145a8:	defffa04 	addi	sp,sp,-24
   145ac:	dcc00315 	stw	r19,12(sp)
   145b0:	4201ffcc 	andi	r8,r8,2047
   145b4:	dc800215 	stw	r18,8(sp)
   145b8:	dc400115 	stw	r17,4(sp)
   145bc:	dc000015 	stw	r16,0(sp)
   145c0:	dfc00515 	stw	ra,20(sp)
   145c4:	dd000415 	stw	r20,16(sp)
   145c8:	44bf0044 	addi	r18,r8,-1023
   145cc:	018004c4 	movi	r6,19
   145d0:	2821883a 	mov	r16,r5
   145d4:	2005883a 	mov	r2,r4
   145d8:	280f883a 	mov	r7,r5
   145dc:	2827883a 	mov	r19,r5
   145e0:	2023883a 	mov	r17,r4
   145e4:	34801916 	blt	r6,r18,1464c <floor+0xa8>
   145e8:	90003c16 	blt	r18,zero,146dc <floor+0x138>
   145ec:	05000434 	movhi	r20,16
   145f0:	a53fffc4 	addi	r20,r20,-1
   145f4:	a4a9d83a 	sra	r20,r20,r18
   145f8:	2d0c703a 	and	r6,r5,r20
   145fc:	310cb03a 	or	r6,r6,r4
   14600:	30001626 	beq	r6,zero,1465c <floor+0xb8>
   14604:	01a20034 	movhi	r6,34816
   14608:	01df8e34 	movhi	r7,32312
   1460c:	319d6704 	addi	r6,r6,30108
   14610:	39f90f04 	addi	r7,r7,-7108
   14614:	0015eec0 	call	15eec <__adddf3>
   14618:	000d883a 	mov	r6,zero
   1461c:	000f883a 	mov	r7,zero
   14620:	1009883a 	mov	r4,r2
   14624:	180b883a 	mov	r5,r3
   14628:	00171080 	call	17108 <__gedf2>
   1462c:	0080040e 	bge	zero,r2,14640 <floor+0x9c>
   14630:	80003c16 	blt	r16,zero,14724 <floor+0x180>
   14634:	0520303a 	nor	r16,zero,r20
   14638:	84e0703a 	and	r16,r16,r19
   1463c:	0023883a 	mov	r17,zero
   14640:	8805883a 	mov	r2,r17
   14644:	8007883a 	mov	r3,r16
   14648:	00000506 	br	14660 <floor+0xbc>
   1464c:	01800cc4 	movi	r6,51
   14650:	34800b0e 	bge	r6,r18,14680 <floor+0xdc>
   14654:	01810004 	movi	r6,1024
   14658:	91802f26 	beq	r18,r6,14718 <floor+0x174>
   1465c:	3807883a 	mov	r3,r7
   14660:	dfc00517 	ldw	ra,20(sp)
   14664:	dd000417 	ldw	r20,16(sp)
   14668:	dcc00317 	ldw	r19,12(sp)
   1466c:	dc800217 	ldw	r18,8(sp)
   14670:	dc400117 	ldw	r17,4(sp)
   14674:	dc000017 	ldw	r16,0(sp)
   14678:	dec00604 	addi	sp,sp,24
   1467c:	f800283a 	ret
   14680:	423efb44 	addi	r8,r8,-1043
   14684:	053fffc4 	movi	r20,-1
   14688:	a228d83a 	srl	r20,r20,r8
   1468c:	250c703a 	and	r6,r4,r20
   14690:	303ff226 	beq	r6,zero,1465c <_gp+0xffff05fc>
   14694:	01a20034 	movhi	r6,34816
   14698:	01df8e34 	movhi	r7,32312
   1469c:	319d6704 	addi	r6,r6,30108
   146a0:	39f90f04 	addi	r7,r7,-7108
   146a4:	0015eec0 	call	15eec <__adddf3>
   146a8:	000d883a 	mov	r6,zero
   146ac:	000f883a 	mov	r7,zero
   146b0:	1009883a 	mov	r4,r2
   146b4:	180b883a 	mov	r5,r3
   146b8:	00171080 	call	17108 <__gedf2>
   146bc:	00bfe00e 	bge	zero,r2,14640 <_gp+0xffff05e0>
   146c0:	80001c16 	blt	r16,zero,14734 <floor+0x190>
   146c4:	0510303a 	nor	r8,zero,r20
   146c8:	9821883a 	mov	r16,r19
   146cc:	8a22703a 	and	r17,r17,r8
   146d0:	8805883a 	mov	r2,r17
   146d4:	8007883a 	mov	r3,r16
   146d8:	003fe106 	br	14660 <_gp+0xffff0600>
   146dc:	01a20034 	movhi	r6,34816
   146e0:	01df8e34 	movhi	r7,32312
   146e4:	319d6704 	addi	r6,r6,30108
   146e8:	39f90f04 	addi	r7,r7,-7108
   146ec:	0015eec0 	call	15eec <__adddf3>
   146f0:	000d883a 	mov	r6,zero
   146f4:	000f883a 	mov	r7,zero
   146f8:	1009883a 	mov	r4,r2
   146fc:	180b883a 	mov	r5,r3
   14700:	00171080 	call	17108 <__gedf2>
   14704:	00bfce0e 	bge	zero,r2,14640 <_gp+0xffff05e0>
   14708:	80001516 	blt	r16,zero,14760 <floor+0x1bc>
   1470c:	0023883a 	mov	r17,zero
   14710:	0021883a 	mov	r16,zero
   14714:	003fca06 	br	14640 <_gp+0xffff05e0>
   14718:	200d883a 	mov	r6,r4
   1471c:	0015eec0 	call	15eec <__adddf3>
   14720:	003fcf06 	br	14660 <_gp+0xffff0600>
   14724:	00800434 	movhi	r2,16
   14728:	14a5d83a 	sra	r18,r2,r18
   1472c:	84a7883a 	add	r19,r16,r18
   14730:	003fc006 	br	14634 <_gp+0xffff05d4>
   14734:	00800504 	movi	r2,20
   14738:	90801326 	beq	r18,r2,14788 <floor+0x1e4>
   1473c:	00800d04 	movi	r2,52
   14740:	14a5c83a 	sub	r18,r2,r18
   14744:	00800044 	movi	r2,1
   14748:	1484983a 	sll	r2,r2,r18
   1474c:	1445883a 	add	r2,r2,r17
   14750:	14400b2e 	bgeu	r2,r17,14780 <floor+0x1dc>
   14754:	84c00044 	addi	r19,r16,1
   14758:	1023883a 	mov	r17,r2
   1475c:	003fd906 	br	146c4 <_gp+0xffff0664>
   14760:	00a00034 	movhi	r2,32768
   14764:	10bfffc4 	addi	r2,r2,-1
   14768:	8084703a 	and	r2,r16,r2
   1476c:	1462b03a 	or	r17,r2,r17
   14770:	883fb326 	beq	r17,zero,14640 <_gp+0xffff05e0>
   14774:	0023883a 	mov	r17,zero
   14778:	042ffc34 	movhi	r16,49136
   1477c:	003fb006 	br	14640 <_gp+0xffff05e0>
   14780:	1023883a 	mov	r17,r2
   14784:	003fcf06 	br	146c4 <_gp+0xffff0664>
   14788:	84c00044 	addi	r19,r16,1
   1478c:	003fcd06 	br	146c4 <_gp+0xffff0664>

00014790 <scalbn>:
   14790:	2a1ffc2c 	andhi	r8,r5,32752
   14794:	4011d53a 	srai	r8,r8,20
   14798:	defffe04 	addi	sp,sp,-8
   1479c:	dc000015 	stw	r16,0(sp)
   147a0:	dfc00115 	stw	ra,4(sp)
   147a4:	280f883a 	mov	r7,r5
   147a8:	2015883a 	mov	r10,r4
   147ac:	3021883a 	mov	r16,r6
   147b0:	40001e1e 	bne	r8,zero,1482c <scalbn+0x9c>
   147b4:	00a00034 	movhi	r2,32768
   147b8:	10bfffc4 	addi	r2,r2,-1
   147bc:	2884703a 	and	r2,r5,r2
   147c0:	1104b03a 	or	r2,r2,r4
   147c4:	10002226 	beq	r2,zero,14850 <scalbn+0xc0>
   147c8:	01d0d434 	movhi	r7,17232
   147cc:	000d883a 	mov	r6,zero
   147d0:	00171e40 	call	171e4 <__muldf3>
   147d4:	013ffff4 	movhi	r4,65535
   147d8:	210f2c04 	addi	r4,r4,15536
   147dc:	1015883a 	mov	r10,r2
   147e0:	180f883a 	mov	r7,r3
   147e4:	81002a16 	blt	r16,r4,14890 <scalbn+0x100>
   147e8:	191ffc2c 	andhi	r4,r3,32752
   147ec:	2009d53a 	srai	r4,r4,20
   147f0:	223ff284 	addi	r8,r4,-54
   147f4:	8211883a 	add	r8,r16,r8
   147f8:	0081ff84 	movi	r2,2046
   147fc:	12002f16 	blt	r2,r8,148bc <scalbn+0x12c>
   14800:	0200190e 	bge	zero,r8,14868 <scalbn+0xd8>
   14804:	4010953a 	slli	r8,r8,20
   14808:	01600434 	movhi	r5,32784
   1480c:	297fffc4 	addi	r5,r5,-1
   14810:	194e703a 	and	r7,r3,r5
   14814:	5005883a 	mov	r2,r10
   14818:	3a06b03a 	or	r3,r7,r8
   1481c:	dfc00117 	ldw	ra,4(sp)
   14820:	dc000017 	ldw	r16,0(sp)
   14824:	dec00204 	addi	sp,sp,8
   14828:	f800283a 	ret
   1482c:	0081ffc4 	movi	r2,2047
   14830:	2807883a 	mov	r3,r5
   14834:	40bfef1e 	bne	r8,r2,147f4 <_gp+0xffff0794>
   14838:	200d883a 	mov	r6,r4
   1483c:	0015eec0 	call	15eec <__adddf3>
   14840:	dfc00117 	ldw	ra,4(sp)
   14844:	dc000017 	ldw	r16,0(sp)
   14848:	dec00204 	addi	sp,sp,8
   1484c:	f800283a 	ret
   14850:	2005883a 	mov	r2,r4
   14854:	2807883a 	mov	r3,r5
   14858:	dfc00117 	ldw	ra,4(sp)
   1485c:	dc000017 	ldw	r16,0(sp)
   14860:	dec00204 	addi	sp,sp,8
   14864:	f800283a 	ret
   14868:	00bff2c4 	movi	r2,-53
   1486c:	4080240e 	bge	r8,r2,14900 <scalbn+0x170>
   14870:	00b0d414 	movui	r2,50000
   14874:	14001116 	blt	r2,r16,148bc <scalbn+0x12c>
   14878:	0130be74 	movhi	r4,49913
   1487c:	01406974 	movhi	r5,421
   14880:	213cd644 	addi	r4,r4,-3239
   14884:	295b87c4 	addi	r5,r5,28191
   14888:	500d883a 	mov	r6,r10
   1488c:	001492c0 	call	1492c <copysign>
   14890:	01b0be74 	movhi	r6,49913
   14894:	01c06974 	movhi	r7,421
   14898:	31bcd644 	addi	r6,r6,-3239
   1489c:	39db87c4 	addi	r7,r7,28191
   148a0:	1009883a 	mov	r4,r2
   148a4:	180b883a 	mov	r5,r3
   148a8:	00171e40 	call	171e4 <__muldf3>
   148ac:	dfc00117 	ldw	ra,4(sp)
   148b0:	dc000017 	ldw	r16,0(sp)
   148b4:	dec00204 	addi	sp,sp,8
   148b8:	f800283a 	ret
   148bc:	01220034 	movhi	r4,34816
   148c0:	015f8e34 	movhi	r5,32312
   148c4:	500d883a 	mov	r6,r10
   148c8:	211d6704 	addi	r4,r4,30108
   148cc:	29790f04 	addi	r5,r5,-7108
   148d0:	001492c0 	call	1492c <copysign>
   148d4:	01a20034 	movhi	r6,34816
   148d8:	01df8e34 	movhi	r7,32312
   148dc:	319d6704 	addi	r6,r6,30108
   148e0:	39f90f04 	addi	r7,r7,-7108
   148e4:	1009883a 	mov	r4,r2
   148e8:	180b883a 	mov	r5,r3
   148ec:	00171e40 	call	171e4 <__muldf3>
   148f0:	dfc00117 	ldw	ra,4(sp)
   148f4:	dc000017 	ldw	r16,0(sp)
   148f8:	dec00204 	addi	sp,sp,8
   148fc:	f800283a 	ret
   14900:	42000d84 	addi	r8,r8,54
   14904:	4012953a 	slli	r9,r8,20
   14908:	01e00434 	movhi	r7,32784
   1490c:	39ffffc4 	addi	r7,r7,-1
   14910:	19ca703a 	and	r5,r3,r7
   14914:	000d883a 	mov	r6,zero
   14918:	01cf2434 	movhi	r7,15504
   1491c:	5009883a 	mov	r4,r10
   14920:	494ab03a 	or	r5,r9,r5
   14924:	00171e40 	call	171e4 <__muldf3>
   14928:	003fbc06 	br	1481c <_gp+0xffff07bc>

0001492c <copysign>:
   1492c:	2005883a 	mov	r2,r4
   14930:	01200034 	movhi	r4,32768
   14934:	213fffc4 	addi	r4,r4,-1
   14938:	38e0002c 	andhi	r3,r7,32768
   1493c:	290a703a 	and	r5,r5,r4
   14940:	28c6b03a 	or	r3,r5,r3
   14944:	f800283a 	ret

00014948 <__fixunsdfsi>:
   14948:	defffd04 	addi	sp,sp,-12
   1494c:	000d883a 	mov	r6,zero
   14950:	01d07834 	movhi	r7,16864
   14954:	dc400115 	stw	r17,4(sp)
   14958:	dc000015 	stw	r16,0(sp)
   1495c:	dfc00215 	stw	ra,8(sp)
   14960:	2023883a 	mov	r17,r4
   14964:	2821883a 	mov	r16,r5
   14968:	00171080 	call	17108 <__gedf2>
   1496c:	1000080e 	bge	r2,zero,14990 <__fixunsdfsi+0x48>
   14970:	8809883a 	mov	r4,r17
   14974:	800b883a 	mov	r5,r16
   14978:	00181f80 	call	181f8 <__fixdfsi>
   1497c:	dfc00217 	ldw	ra,8(sp)
   14980:	dc400117 	ldw	r17,4(sp)
   14984:	dc000017 	ldw	r16,0(sp)
   14988:	dec00304 	addi	sp,sp,12
   1498c:	f800283a 	ret
   14990:	000d883a 	mov	r6,zero
   14994:	01d07834 	movhi	r7,16864
   14998:	8809883a 	mov	r4,r17
   1499c:	800b883a 	mov	r5,r16
   149a0:	00178fc0 	call	178fc <__subdf3>
   149a4:	180b883a 	mov	r5,r3
   149a8:	1009883a 	mov	r4,r2
   149ac:	00181f80 	call	181f8 <__fixdfsi>
   149b0:	00e00034 	movhi	r3,32768
   149b4:	10c5883a 	add	r2,r2,r3
   149b8:	003ff006 	br	1497c <_gp+0xffff091c>

000149bc <__divsi3>:
   149bc:	20001b16 	blt	r4,zero,14a2c <__divsi3+0x70>
   149c0:	000f883a 	mov	r7,zero
   149c4:	28001616 	blt	r5,zero,14a20 <__divsi3+0x64>
   149c8:	200d883a 	mov	r6,r4
   149cc:	29001a2e 	bgeu	r5,r4,14a38 <__divsi3+0x7c>
   149d0:	00800804 	movi	r2,32
   149d4:	00c00044 	movi	r3,1
   149d8:	00000106 	br	149e0 <__divsi3+0x24>
   149dc:	10000d26 	beq	r2,zero,14a14 <__divsi3+0x58>
   149e0:	294b883a 	add	r5,r5,r5
   149e4:	10bfffc4 	addi	r2,r2,-1
   149e8:	18c7883a 	add	r3,r3,r3
   149ec:	293ffb36 	bltu	r5,r4,149dc <_gp+0xffff097c>
   149f0:	0005883a 	mov	r2,zero
   149f4:	18000726 	beq	r3,zero,14a14 <__divsi3+0x58>
   149f8:	0005883a 	mov	r2,zero
   149fc:	31400236 	bltu	r6,r5,14a08 <__divsi3+0x4c>
   14a00:	314dc83a 	sub	r6,r6,r5
   14a04:	10c4b03a 	or	r2,r2,r3
   14a08:	1806d07a 	srli	r3,r3,1
   14a0c:	280ad07a 	srli	r5,r5,1
   14a10:	183ffa1e 	bne	r3,zero,149fc <_gp+0xffff099c>
   14a14:	38000126 	beq	r7,zero,14a1c <__divsi3+0x60>
   14a18:	0085c83a 	sub	r2,zero,r2
   14a1c:	f800283a 	ret
   14a20:	014bc83a 	sub	r5,zero,r5
   14a24:	39c0005c 	xori	r7,r7,1
   14a28:	003fe706 	br	149c8 <_gp+0xffff0968>
   14a2c:	0109c83a 	sub	r4,zero,r4
   14a30:	01c00044 	movi	r7,1
   14a34:	003fe306 	br	149c4 <_gp+0xffff0964>
   14a38:	00c00044 	movi	r3,1
   14a3c:	003fee06 	br	149f8 <_gp+0xffff0998>

00014a40 <__modsi3>:
   14a40:	20001716 	blt	r4,zero,14aa0 <__modsi3+0x60>
   14a44:	000f883a 	mov	r7,zero
   14a48:	2005883a 	mov	r2,r4
   14a4c:	28001216 	blt	r5,zero,14a98 <__modsi3+0x58>
   14a50:	2900162e 	bgeu	r5,r4,14aac <__modsi3+0x6c>
   14a54:	01800804 	movi	r6,32
   14a58:	00c00044 	movi	r3,1
   14a5c:	00000106 	br	14a64 <__modsi3+0x24>
   14a60:	30000a26 	beq	r6,zero,14a8c <__modsi3+0x4c>
   14a64:	294b883a 	add	r5,r5,r5
   14a68:	31bfffc4 	addi	r6,r6,-1
   14a6c:	18c7883a 	add	r3,r3,r3
   14a70:	293ffb36 	bltu	r5,r4,14a60 <_gp+0xffff0a00>
   14a74:	18000526 	beq	r3,zero,14a8c <__modsi3+0x4c>
   14a78:	1806d07a 	srli	r3,r3,1
   14a7c:	11400136 	bltu	r2,r5,14a84 <__modsi3+0x44>
   14a80:	1145c83a 	sub	r2,r2,r5
   14a84:	280ad07a 	srli	r5,r5,1
   14a88:	183ffb1e 	bne	r3,zero,14a78 <_gp+0xffff0a18>
   14a8c:	38000126 	beq	r7,zero,14a94 <__modsi3+0x54>
   14a90:	0085c83a 	sub	r2,zero,r2
   14a94:	f800283a 	ret
   14a98:	014bc83a 	sub	r5,zero,r5
   14a9c:	003fec06 	br	14a50 <_gp+0xffff09f0>
   14aa0:	0109c83a 	sub	r4,zero,r4
   14aa4:	01c00044 	movi	r7,1
   14aa8:	003fe706 	br	14a48 <_gp+0xffff09e8>
   14aac:	00c00044 	movi	r3,1
   14ab0:	003ff106 	br	14a78 <_gp+0xffff0a18>

00014ab4 <__udivsi3>:
   14ab4:	200d883a 	mov	r6,r4
   14ab8:	2900152e 	bgeu	r5,r4,14b10 <__udivsi3+0x5c>
   14abc:	28001416 	blt	r5,zero,14b10 <__udivsi3+0x5c>
   14ac0:	00800804 	movi	r2,32
   14ac4:	00c00044 	movi	r3,1
   14ac8:	00000206 	br	14ad4 <__udivsi3+0x20>
   14acc:	10000e26 	beq	r2,zero,14b08 <__udivsi3+0x54>
   14ad0:	28000516 	blt	r5,zero,14ae8 <__udivsi3+0x34>
   14ad4:	294b883a 	add	r5,r5,r5
   14ad8:	10bfffc4 	addi	r2,r2,-1
   14adc:	18c7883a 	add	r3,r3,r3
   14ae0:	293ffa36 	bltu	r5,r4,14acc <_gp+0xffff0a6c>
   14ae4:	18000826 	beq	r3,zero,14b08 <__udivsi3+0x54>
   14ae8:	0005883a 	mov	r2,zero
   14aec:	31400236 	bltu	r6,r5,14af8 <__udivsi3+0x44>
   14af0:	314dc83a 	sub	r6,r6,r5
   14af4:	10c4b03a 	or	r2,r2,r3
   14af8:	1806d07a 	srli	r3,r3,1
   14afc:	280ad07a 	srli	r5,r5,1
   14b00:	183ffa1e 	bne	r3,zero,14aec <_gp+0xffff0a8c>
   14b04:	f800283a 	ret
   14b08:	0005883a 	mov	r2,zero
   14b0c:	f800283a 	ret
   14b10:	00c00044 	movi	r3,1
   14b14:	003ff406 	br	14ae8 <_gp+0xffff0a88>

00014b18 <__umodsi3>:
   14b18:	2005883a 	mov	r2,r4
   14b1c:	2900122e 	bgeu	r5,r4,14b68 <__umodsi3+0x50>
   14b20:	28001116 	blt	r5,zero,14b68 <__umodsi3+0x50>
   14b24:	01800804 	movi	r6,32
   14b28:	00c00044 	movi	r3,1
   14b2c:	00000206 	br	14b38 <__umodsi3+0x20>
   14b30:	30000c26 	beq	r6,zero,14b64 <__umodsi3+0x4c>
   14b34:	28000516 	blt	r5,zero,14b4c <__umodsi3+0x34>
   14b38:	294b883a 	add	r5,r5,r5
   14b3c:	31bfffc4 	addi	r6,r6,-1
   14b40:	18c7883a 	add	r3,r3,r3
   14b44:	293ffa36 	bltu	r5,r4,14b30 <_gp+0xffff0ad0>
   14b48:	18000626 	beq	r3,zero,14b64 <__umodsi3+0x4c>
   14b4c:	1806d07a 	srli	r3,r3,1
   14b50:	11400136 	bltu	r2,r5,14b58 <__umodsi3+0x40>
   14b54:	1145c83a 	sub	r2,r2,r5
   14b58:	280ad07a 	srli	r5,r5,1
   14b5c:	183ffb1e 	bne	r3,zero,14b4c <_gp+0xffff0aec>
   14b60:	f800283a 	ret
   14b64:	f800283a 	ret
   14b68:	00c00044 	movi	r3,1
   14b6c:	003ff706 	br	14b4c <_gp+0xffff0aec>

00014b70 <__addsf3>:
   14b70:	defffc04 	addi	sp,sp,-16
   14b74:	2004d7fa 	srli	r2,r4,31
   14b78:	280cd5fa 	srli	r6,r5,23
   14b7c:	dc000015 	stw	r16,0(sp)
   14b80:	00c02034 	movhi	r3,128
   14b84:	2020d5fa 	srli	r16,r4,23
   14b88:	280ed7fa 	srli	r7,r5,31
   14b8c:	18ffffc4 	addi	r3,r3,-1
   14b90:	dc400115 	stw	r17,4(sp)
   14b94:	1908703a 	and	r4,r3,r4
   14b98:	194a703a 	and	r5,r3,r5
   14b9c:	dfc00315 	stw	ra,12(sp)
   14ba0:	dc800215 	stw	r18,8(sp)
   14ba4:	14403fcc 	andi	r17,r2,255
   14ba8:	84003fcc 	andi	r16,r16,255
   14bac:	200890fa 	slli	r4,r4,3
   14bb0:	31803fcc 	andi	r6,r6,255
   14bb4:	280a90fa 	slli	r5,r5,3
   14bb8:	89c05026 	beq	r17,r7,14cfc <__addsf3+0x18c>
   14bbc:	8185c83a 	sub	r2,r16,r6
   14bc0:	00807a0e 	bge	zero,r2,14dac <__addsf3+0x23c>
   14bc4:	30001e1e 	bne	r6,zero,14c40 <__addsf3+0xd0>
   14bc8:	28006d1e 	bne	r5,zero,14d80 <__addsf3+0x210>
   14bcc:	208001cc 	andi	r2,r4,7
   14bd0:	10000426 	beq	r2,zero,14be4 <__addsf3+0x74>
   14bd4:	208003cc 	andi	r2,r4,15
   14bd8:	00c00104 	movi	r3,4
   14bdc:	10c00126 	beq	r2,r3,14be4 <__addsf3+0x74>
   14be0:	20c9883a 	add	r4,r4,r3
   14be4:	2081002c 	andhi	r2,r4,1024
   14be8:	10003926 	beq	r2,zero,14cd0 <__addsf3+0x160>
   14bec:	84000044 	addi	r16,r16,1
   14bf0:	00803fc4 	movi	r2,255
   14bf4:	80807826 	beq	r16,r2,14dd8 <__addsf3+0x268>
   14bf8:	200891ba 	slli	r4,r4,6
   14bfc:	8805883a 	mov	r2,r17
   14c00:	2008d27a 	srli	r4,r4,9
   14c04:	84003fcc 	andi	r16,r16,255
   14c08:	800695fa 	slli	r3,r16,23
   14c0c:	10803fcc 	andi	r2,r2,255
   14c10:	04002034 	movhi	r16,128
   14c14:	843fffc4 	addi	r16,r16,-1
   14c18:	100497fa 	slli	r2,r2,31
   14c1c:	2408703a 	and	r4,r4,r16
   14c20:	20e0b03a 	or	r16,r4,r3
   14c24:	8084b03a 	or	r2,r16,r2
   14c28:	dfc00317 	ldw	ra,12(sp)
   14c2c:	dc800217 	ldw	r18,8(sp)
   14c30:	dc400117 	ldw	r17,4(sp)
   14c34:	dc000017 	ldw	r16,0(sp)
   14c38:	dec00404 	addi	sp,sp,16
   14c3c:	f800283a 	ret
   14c40:	00c03fc4 	movi	r3,255
   14c44:	80ffe126 	beq	r16,r3,14bcc <_gp+0xffff0b6c>
   14c48:	29410034 	orhi	r5,r5,1024
   14c4c:	00c006c4 	movi	r3,27
   14c50:	18807516 	blt	r3,r2,14e28 <__addsf3+0x2b8>
   14c54:	00c00804 	movi	r3,32
   14c58:	1887c83a 	sub	r3,r3,r2
   14c5c:	28c6983a 	sll	r3,r5,r3
   14c60:	288ad83a 	srl	r5,r5,r2
   14c64:	1804c03a 	cmpne	r2,r3,zero
   14c68:	288ab03a 	or	r5,r5,r2
   14c6c:	2149c83a 	sub	r4,r4,r5
   14c70:	2081002c 	andhi	r2,r4,1024
   14c74:	10001426 	beq	r2,zero,14cc8 <__addsf3+0x158>
   14c78:	04810034 	movhi	r18,1024
   14c7c:	94bfffc4 	addi	r18,r18,-1
   14c80:	24a4703a 	and	r18,r4,r18
   14c84:	9009883a 	mov	r4,r18
   14c88:	00186b40 	call	186b4 <__clzsi2>
   14c8c:	10bffec4 	addi	r2,r2,-5
   14c90:	90a4983a 	sll	r18,r18,r2
   14c94:	14005416 	blt	r2,r16,14de8 <__addsf3+0x278>
   14c98:	1405c83a 	sub	r2,r2,r16
   14c9c:	11000044 	addi	r4,r2,1
   14ca0:	00800804 	movi	r2,32
   14ca4:	1105c83a 	sub	r2,r2,r4
   14ca8:	9084983a 	sll	r2,r18,r2
   14cac:	9124d83a 	srl	r18,r18,r4
   14cb0:	0021883a 	mov	r16,zero
   14cb4:	1008c03a 	cmpne	r4,r2,zero
   14cb8:	9108b03a 	or	r4,r18,r4
   14cbc:	003fc306 	br	14bcc <_gp+0xffff0b6c>
   14cc0:	1000db26 	beq	r2,zero,15030 <__addsf3+0x4c0>
   14cc4:	1009883a 	mov	r4,r2
   14cc8:	208001cc 	andi	r2,r4,7
   14ccc:	103fc11e 	bne	r2,zero,14bd4 <_gp+0xffff0b74>
   14cd0:	2006d0fa 	srli	r3,r4,3
   14cd4:	01003fc4 	movi	r4,255
   14cd8:	8805883a 	mov	r2,r17
   14cdc:	8100241e 	bne	r16,r4,14d70 <__addsf3+0x200>
   14ce0:	18006e26 	beq	r3,zero,14e9c <__addsf3+0x32c>
   14ce4:	19001034 	orhi	r4,r3,64
   14ce8:	00c02034 	movhi	r3,128
   14cec:	18ffffc4 	addi	r3,r3,-1
   14cf0:	043fffc4 	movi	r16,-1
   14cf4:	20c8703a 	and	r4,r4,r3
   14cf8:	003fc206 	br	14c04 <_gp+0xffff0ba4>
   14cfc:	8187c83a 	sub	r3,r16,r6
   14d00:	00c03e0e 	bge	zero,r3,14dfc <__addsf3+0x28c>
   14d04:	30002326 	beq	r6,zero,14d94 <__addsf3+0x224>
   14d08:	01803fc4 	movi	r6,255
   14d0c:	81bfaf26 	beq	r16,r6,14bcc <_gp+0xffff0b6c>
   14d10:	29410034 	orhi	r5,r5,1024
   14d14:	018006c4 	movi	r6,27
   14d18:	30c07416 	blt	r6,r3,14eec <__addsf3+0x37c>
   14d1c:	01800804 	movi	r6,32
   14d20:	30cdc83a 	sub	r6,r6,r3
   14d24:	298c983a 	sll	r6,r5,r6
   14d28:	28cad83a 	srl	r5,r5,r3
   14d2c:	3006c03a 	cmpne	r3,r6,zero
   14d30:	28cab03a 	or	r5,r5,r3
   14d34:	2149883a 	add	r4,r4,r5
   14d38:	20c1002c 	andhi	r3,r4,1024
   14d3c:	183fe226 	beq	r3,zero,14cc8 <_gp+0xffff0c68>
   14d40:	84000044 	addi	r16,r16,1
   14d44:	00c03fc4 	movi	r3,255
   14d48:	80c05426 	beq	r16,r3,14e9c <__addsf3+0x32c>
   14d4c:	00bf0034 	movhi	r2,64512
   14d50:	10bfffc4 	addi	r2,r2,-1
   14d54:	20c0004c 	andi	r3,r4,1
   14d58:	2088703a 	and	r4,r4,r2
   14d5c:	2008d07a 	srli	r4,r4,1
   14d60:	20c8b03a 	or	r4,r4,r3
   14d64:	003f9906 	br	14bcc <_gp+0xffff0b6c>
   14d68:	0007883a 	mov	r3,zero
   14d6c:	0005883a 	mov	r2,zero
   14d70:	01002034 	movhi	r4,128
   14d74:	213fffc4 	addi	r4,r4,-1
   14d78:	1908703a 	and	r4,r3,r4
   14d7c:	003fa106 	br	14c04 <_gp+0xffff0ba4>
   14d80:	10bfffc4 	addi	r2,r2,-1
   14d84:	103fb926 	beq	r2,zero,14c6c <_gp+0xffff0c0c>
   14d88:	00c03fc4 	movi	r3,255
   14d8c:	80ffaf1e 	bne	r16,r3,14c4c <_gp+0xffff0bec>
   14d90:	003f8e06 	br	14bcc <_gp+0xffff0b6c>
   14d94:	283f8d26 	beq	r5,zero,14bcc <_gp+0xffff0b6c>
   14d98:	18ffffc4 	addi	r3,r3,-1
   14d9c:	183fe526 	beq	r3,zero,14d34 <_gp+0xffff0cd4>
   14da0:	01803fc4 	movi	r6,255
   14da4:	81bfdb1e 	bne	r16,r6,14d14 <_gp+0xffff0cb4>
   14da8:	003f8806 	br	14bcc <_gp+0xffff0b6c>
   14dac:	1000201e 	bne	r2,zero,14e30 <__addsf3+0x2c0>
   14db0:	80800044 	addi	r2,r16,1
   14db4:	10803fcc 	andi	r2,r2,255
   14db8:	01800044 	movi	r6,1
   14dbc:	3080450e 	bge	r6,r2,14ed4 <__addsf3+0x364>
   14dc0:	2165c83a 	sub	r18,r4,r5
   14dc4:	90c1002c 	andhi	r3,r18,1024
   14dc8:	18002b26 	beq	r3,zero,14e78 <__addsf3+0x308>
   14dcc:	2925c83a 	sub	r18,r5,r4
   14dd0:	3823883a 	mov	r17,r7
   14dd4:	003fab06 	br	14c84 <_gp+0xffff0c24>
   14dd8:	8805883a 	mov	r2,r17
   14ddc:	043fffc4 	movi	r16,-1
   14de0:	0009883a 	mov	r4,zero
   14de4:	003f8706 	br	14c04 <_gp+0xffff0ba4>
   14de8:	013f0034 	movhi	r4,64512
   14dec:	213fffc4 	addi	r4,r4,-1
   14df0:	80a1c83a 	sub	r16,r16,r2
   14df4:	9108703a 	and	r4,r18,r4
   14df8:	003f7406 	br	14bcc <_gp+0xffff0b6c>
   14dfc:	1800411e 	bne	r3,zero,14f04 <__addsf3+0x394>
   14e00:	80c00044 	addi	r3,r16,1
   14e04:	19c03fcc 	andi	r7,r3,255
   14e08:	01800044 	movi	r6,1
   14e0c:	31c0260e 	bge	r6,r7,14ea8 <__addsf3+0x338>
   14e10:	01803fc4 	movi	r6,255
   14e14:	19802126 	beq	r3,r6,14e9c <__addsf3+0x32c>
   14e18:	2149883a 	add	r4,r4,r5
   14e1c:	2008d07a 	srli	r4,r4,1
   14e20:	1821883a 	mov	r16,r3
   14e24:	003f6906 	br	14bcc <_gp+0xffff0b6c>
   14e28:	01400044 	movi	r5,1
   14e2c:	003f8f06 	br	14c6c <_gp+0xffff0c0c>
   14e30:	8000151e 	bne	r16,zero,14e88 <__addsf3+0x318>
   14e34:	20002f26 	beq	r4,zero,14ef4 <__addsf3+0x384>
   14e38:	0084303a 	nor	r2,zero,r2
   14e3c:	10000a26 	beq	r2,zero,14e68 <__addsf3+0x2f8>
   14e40:	00c03fc4 	movi	r3,255
   14e44:	30c02b26 	beq	r6,r3,14ef4 <__addsf3+0x384>
   14e48:	00c006c4 	movi	r3,27
   14e4c:	18806d16 	blt	r3,r2,15004 <__addsf3+0x494>
   14e50:	00c00804 	movi	r3,32
   14e54:	1887c83a 	sub	r3,r3,r2
   14e58:	20c6983a 	sll	r3,r4,r3
   14e5c:	2084d83a 	srl	r2,r4,r2
   14e60:	1808c03a 	cmpne	r4,r3,zero
   14e64:	1108b03a 	or	r4,r2,r4
   14e68:	2909c83a 	sub	r4,r5,r4
   14e6c:	3021883a 	mov	r16,r6
   14e70:	3823883a 	mov	r17,r7
   14e74:	003f7e06 	br	14c70 <_gp+0xffff0c10>
   14e78:	903f821e 	bne	r18,zero,14c84 <_gp+0xffff0c24>
   14e7c:	0005883a 	mov	r2,zero
   14e80:	0021883a 	mov	r16,zero
   14e84:	003fba06 	br	14d70 <_gp+0xffff0d10>
   14e88:	00c03fc4 	movi	r3,255
   14e8c:	30c01926 	beq	r6,r3,14ef4 <__addsf3+0x384>
   14e90:	0085c83a 	sub	r2,zero,r2
   14e94:	21010034 	orhi	r4,r4,1024
   14e98:	003feb06 	br	14e48 <_gp+0xffff0de8>
   14e9c:	043fffc4 	movi	r16,-1
   14ea0:	0009883a 	mov	r4,zero
   14ea4:	003f5706 	br	14c04 <_gp+0xffff0ba4>
   14ea8:	80004a1e 	bne	r16,zero,14fd4 <__addsf3+0x464>
   14eac:	20005926 	beq	r4,zero,15014 <__addsf3+0x4a4>
   14eb0:	283f4626 	beq	r5,zero,14bcc <_gp+0xffff0b6c>
   14eb4:	2149883a 	add	r4,r4,r5
   14eb8:	2081002c 	andhi	r2,r4,1024
   14ebc:	103f8226 	beq	r2,zero,14cc8 <_gp+0xffff0c68>
   14ec0:	00bf0034 	movhi	r2,64512
   14ec4:	10bfffc4 	addi	r2,r2,-1
   14ec8:	3021883a 	mov	r16,r6
   14ecc:	2088703a 	and	r4,r4,r2
   14ed0:	003f3e06 	br	14bcc <_gp+0xffff0b6c>
   14ed4:	8000121e 	bne	r16,zero,14f20 <__addsf3+0x3b0>
   14ed8:	2000261e 	bne	r4,zero,14f74 <__addsf3+0x404>
   14edc:	283fa226 	beq	r5,zero,14d68 <_gp+0xffff0d08>
   14ee0:	2809883a 	mov	r4,r5
   14ee4:	3823883a 	mov	r17,r7
   14ee8:	003f3806 	br	14bcc <_gp+0xffff0b6c>
   14eec:	01400044 	movi	r5,1
   14ef0:	003f9006 	br	14d34 <_gp+0xffff0cd4>
   14ef4:	2809883a 	mov	r4,r5
   14ef8:	3021883a 	mov	r16,r6
   14efc:	3823883a 	mov	r17,r7
   14f00:	003f3206 	br	14bcc <_gp+0xffff0b6c>
   14f04:	80000c1e 	bne	r16,zero,14f38 <__addsf3+0x3c8>
   14f08:	20002f26 	beq	r4,zero,14fc8 <__addsf3+0x458>
   14f0c:	00c6303a 	nor	r3,zero,r3
   14f10:	18002b1e 	bne	r3,zero,14fc0 <__addsf3+0x450>
   14f14:	2149883a 	add	r4,r4,r5
   14f18:	3021883a 	mov	r16,r6
   14f1c:	003f8606 	br	14d38 <_gp+0xffff0cd8>
   14f20:	20001b1e 	bne	r4,zero,14f90 <__addsf3+0x420>
   14f24:	28003926 	beq	r5,zero,1500c <__addsf3+0x49c>
   14f28:	2809883a 	mov	r4,r5
   14f2c:	3823883a 	mov	r17,r7
   14f30:	04003fc4 	movi	r16,255
   14f34:	003f2506 	br	14bcc <_gp+0xffff0b6c>
   14f38:	01c03fc4 	movi	r7,255
   14f3c:	31c02226 	beq	r6,r7,14fc8 <__addsf3+0x458>
   14f40:	00c7c83a 	sub	r3,zero,r3
   14f44:	21010034 	orhi	r4,r4,1024
   14f48:	01c006c4 	movi	r7,27
   14f4c:	38c03616 	blt	r7,r3,15028 <__addsf3+0x4b8>
   14f50:	01c00804 	movi	r7,32
   14f54:	38cfc83a 	sub	r7,r7,r3
   14f58:	21ce983a 	sll	r7,r4,r7
   14f5c:	20c6d83a 	srl	r3,r4,r3
   14f60:	3808c03a 	cmpne	r4,r7,zero
   14f64:	1906b03a 	or	r3,r3,r4
   14f68:	1949883a 	add	r4,r3,r5
   14f6c:	3021883a 	mov	r16,r6
   14f70:	003f7106 	br	14d38 <_gp+0xffff0cd8>
   14f74:	283f1526 	beq	r5,zero,14bcc <_gp+0xffff0b6c>
   14f78:	2145c83a 	sub	r2,r4,r5
   14f7c:	10c1002c 	andhi	r3,r2,1024
   14f80:	183f4f26 	beq	r3,zero,14cc0 <_gp+0xffff0c60>
   14f84:	2909c83a 	sub	r4,r5,r4
   14f88:	3823883a 	mov	r17,r7
   14f8c:	003f0f06 	br	14bcc <_gp+0xffff0b6c>
   14f90:	28001a26 	beq	r5,zero,14ffc <__addsf3+0x48c>
   14f94:	2008d0fa 	srli	r4,r4,3
   14f98:	2080102c 	andhi	r2,r4,64
   14f9c:	10000526 	beq	r2,zero,14fb4 <__addsf3+0x444>
   14fa0:	280ad0fa 	srli	r5,r5,3
   14fa4:	2880102c 	andhi	r2,r5,64
   14fa8:	1000021e 	bne	r2,zero,14fb4 <__addsf3+0x444>
   14fac:	2809883a 	mov	r4,r5
   14fb0:	3823883a 	mov	r17,r7
   14fb4:	200890fa 	slli	r4,r4,3
   14fb8:	04003fc4 	movi	r16,255
   14fbc:	003f0306 	br	14bcc <_gp+0xffff0b6c>
   14fc0:	01c03fc4 	movi	r7,255
   14fc4:	31ffe01e 	bne	r6,r7,14f48 <_gp+0xffff0ee8>
   14fc8:	2809883a 	mov	r4,r5
   14fcc:	3021883a 	mov	r16,r6
   14fd0:	003efe06 	br	14bcc <_gp+0xffff0b6c>
   14fd4:	20001126 	beq	r4,zero,1501c <__addsf3+0x4ac>
   14fd8:	28000826 	beq	r5,zero,14ffc <__addsf3+0x48c>
   14fdc:	2008d0fa 	srli	r4,r4,3
   14fe0:	2080102c 	andhi	r2,r4,64
   14fe4:	103ff326 	beq	r2,zero,14fb4 <_gp+0xffff0f54>
   14fe8:	280ad0fa 	srli	r5,r5,3
   14fec:	2880102c 	andhi	r2,r5,64
   14ff0:	103ff01e 	bne	r2,zero,14fb4 <_gp+0xffff0f54>
   14ff4:	2809883a 	mov	r4,r5
   14ff8:	003fee06 	br	14fb4 <_gp+0xffff0f54>
   14ffc:	04003fc4 	movi	r16,255
   15000:	003ef206 	br	14bcc <_gp+0xffff0b6c>
   15004:	01000044 	movi	r4,1
   15008:	003f9706 	br	14e68 <_gp+0xffff0e08>
   1500c:	0005883a 	mov	r2,zero
   15010:	003f3406 	br	14ce4 <_gp+0xffff0c84>
   15014:	2809883a 	mov	r4,r5
   15018:	003eec06 	br	14bcc <_gp+0xffff0b6c>
   1501c:	2809883a 	mov	r4,r5
   15020:	04003fc4 	movi	r16,255
   15024:	003ee906 	br	14bcc <_gp+0xffff0b6c>
   15028:	00c00044 	movi	r3,1
   1502c:	003fce06 	br	14f68 <_gp+0xffff0f08>
   15030:	0005883a 	mov	r2,zero
   15034:	003f4e06 	br	14d70 <_gp+0xffff0d10>

00015038 <__divsf3>:
   15038:	defff504 	addi	sp,sp,-44
   1503c:	200cd5fa 	srli	r6,r4,23
   15040:	dcc00415 	stw	r19,16(sp)
   15044:	2026d7fa 	srli	r19,r4,31
   15048:	00c02034 	movhi	r3,128
   1504c:	dd800715 	stw	r22,28(sp)
   15050:	dd000515 	stw	r20,20(sp)
   15054:	dc800315 	stw	r18,12(sp)
   15058:	18ffffc4 	addi	r3,r3,-1
   1505c:	dfc00a15 	stw	ra,40(sp)
   15060:	df000915 	stw	fp,36(sp)
   15064:	ddc00815 	stw	r23,32(sp)
   15068:	dd400615 	stw	r21,24(sp)
   1506c:	dc400215 	stw	r17,8(sp)
   15070:	dc000115 	stw	r16,4(sp)
   15074:	35003fcc 	andi	r20,r6,255
   15078:	1924703a 	and	r18,r3,r4
   1507c:	9d803fcc 	andi	r22,r19,255
   15080:	a0005226 	beq	r20,zero,151cc <__divsf3+0x194>
   15084:	00803fc4 	movi	r2,255
   15088:	a0802e26 	beq	r20,r2,15144 <__divsf3+0x10c>
   1508c:	91002034 	orhi	r4,r18,128
   15090:	202490fa 	slli	r18,r4,3
   15094:	a53fe044 	addi	r20,r20,-127
   15098:	0021883a 	mov	r16,zero
   1509c:	002f883a 	mov	r23,zero
   150a0:	280cd5fa 	srli	r6,r5,23
   150a4:	282ad7fa 	srli	r21,r5,31
   150a8:	00c02034 	movhi	r3,128
   150ac:	18ffffc4 	addi	r3,r3,-1
   150b0:	31803fcc 	andi	r6,r6,255
   150b4:	1962703a 	and	r17,r3,r5
   150b8:	af003fcc 	andi	fp,r21,255
   150bc:	30004a26 	beq	r6,zero,151e8 <__divsf3+0x1b0>
   150c0:	00803fc4 	movi	r2,255
   150c4:	30804526 	beq	r6,r2,151dc <__divsf3+0x1a4>
   150c8:	89402034 	orhi	r5,r17,128
   150cc:	282290fa 	slli	r17,r5,3
   150d0:	31bfe044 	addi	r6,r6,-127
   150d4:	000b883a 	mov	r5,zero
   150d8:	2c20b03a 	or	r16,r5,r16
   150dc:	802090ba 	slli	r16,r16,2
   150e0:	00800074 	movhi	r2,1
   150e4:	10944104 	addi	r2,r2,20740
   150e8:	80a1883a 	add	r16,r16,r2
   150ec:	81000017 	ldw	r4,0(r16)
   150f0:	9d46f03a 	xor	r3,r19,r21
   150f4:	180f883a 	mov	r7,r3
   150f8:	18803fcc 	andi	r2,r3,255
   150fc:	a18dc83a 	sub	r6,r20,r6
   15100:	2000683a 	jmp	r4
   15104:	000152e8 	cmpgeui	zero,zero,1355
   15108:	0001516c 	andhi	zero,zero,1349
   1510c:	000152dc 	xori	zero,zero,1355
   15110:	00015158 	cmpnei	zero,zero,1349
   15114:	000152dc 	xori	zero,zero,1355
   15118:	000152b4 	movhi	zero,1354
   1511c:	000152dc 	xori	zero,zero,1355
   15120:	00015158 	cmpnei	zero,zero,1349
   15124:	0001516c 	andhi	zero,zero,1349
   15128:	0001516c 	andhi	zero,zero,1349
   1512c:	000152b4 	movhi	zero,1354
   15130:	00015158 	cmpnei	zero,zero,1349
   15134:	000153c8 	cmpgei	zero,zero,1359
   15138:	000153c8 	cmpgei	zero,zero,1359
   1513c:	000153c8 	cmpgei	zero,zero,1359
   15140:	0001537c 	xorhi	zero,zero,1357
   15144:	9000581e 	bne	r18,zero,152a8 <__divsf3+0x270>
   15148:	04000204 	movi	r16,8
   1514c:	05c00084 	movi	r23,2
   15150:	003fd306 	br	150a0 <_gp+0xffff1040>
   15154:	0023883a 	mov	r17,zero
   15158:	e02d883a 	mov	r22,fp
   1515c:	282f883a 	mov	r23,r5
   15160:	00800084 	movi	r2,2
   15164:	b8808f1e 	bne	r23,r2,153a4 <__divsf3+0x36c>
   15168:	b005883a 	mov	r2,r22
   1516c:	11c0004c 	andi	r7,r2,1
   15170:	013fffc4 	movi	r4,-1
   15174:	000d883a 	mov	r6,zero
   15178:	21003fcc 	andi	r4,r4,255
   1517c:	200895fa 	slli	r4,r4,23
   15180:	38803fcc 	andi	r2,r7,255
   15184:	00c02034 	movhi	r3,128
   15188:	100497fa 	slli	r2,r2,31
   1518c:	18ffffc4 	addi	r3,r3,-1
   15190:	30c6703a 	and	r3,r6,r3
   15194:	1906b03a 	or	r3,r3,r4
   15198:	1884b03a 	or	r2,r3,r2
   1519c:	dfc00a17 	ldw	ra,40(sp)
   151a0:	df000917 	ldw	fp,36(sp)
   151a4:	ddc00817 	ldw	r23,32(sp)
   151a8:	dd800717 	ldw	r22,28(sp)
   151ac:	dd400617 	ldw	r21,24(sp)
   151b0:	dd000517 	ldw	r20,20(sp)
   151b4:	dcc00417 	ldw	r19,16(sp)
   151b8:	dc800317 	ldw	r18,12(sp)
   151bc:	dc400217 	ldw	r17,8(sp)
   151c0:	dc000117 	ldw	r16,4(sp)
   151c4:	dec00b04 	addi	sp,sp,44
   151c8:	f800283a 	ret
   151cc:	90002b1e 	bne	r18,zero,1527c <__divsf3+0x244>
   151d0:	04000104 	movi	r16,4
   151d4:	05c00044 	movi	r23,1
   151d8:	003fb106 	br	150a0 <_gp+0xffff1040>
   151dc:	8800251e 	bne	r17,zero,15274 <__divsf3+0x23c>
   151e0:	01400084 	movi	r5,2
   151e4:	00000206 	br	151f0 <__divsf3+0x1b8>
   151e8:	88001a1e 	bne	r17,zero,15254 <__divsf3+0x21c>
   151ec:	01400044 	movi	r5,1
   151f0:	8160b03a 	or	r16,r16,r5
   151f4:	802090ba 	slli	r16,r16,2
   151f8:	00c00074 	movhi	r3,1
   151fc:	18d48504 	addi	r3,r3,21012
   15200:	80e1883a 	add	r16,r16,r3
   15204:	80c00017 	ldw	r3,0(r16)
   15208:	9d44f03a 	xor	r2,r19,r21
   1520c:	a18dc83a 	sub	r6,r20,r6
   15210:	1800683a 	jmp	r3
   15214:	0001516c 	andhi	zero,zero,1349
   15218:	0001516c 	andhi	zero,zero,1349
   1521c:	000153b8 	rdprs	zero,zero,1358
   15220:	00015154 	movui	zero,1349
   15224:	000153b8 	rdprs	zero,zero,1358
   15228:	000152b4 	movhi	zero,1354
   1522c:	000153b8 	rdprs	zero,zero,1358
   15230:	00015154 	movui	zero,1349
   15234:	0001516c 	andhi	zero,zero,1349
   15238:	0001516c 	andhi	zero,zero,1349
   1523c:	000152b4 	movhi	zero,1354
   15240:	00015154 	movui	zero,1349
   15244:	000153c8 	cmpgei	zero,zero,1359
   15248:	000153c8 	cmpgei	zero,zero,1359
   1524c:	000153c8 	cmpgei	zero,zero,1359
   15250:	000153e0 	cmpeqi	zero,zero,1359
   15254:	8809883a 	mov	r4,r17
   15258:	00186b40 	call	186b4 <__clzsi2>
   1525c:	10fffec4 	addi	r3,r2,-5
   15260:	10801d84 	addi	r2,r2,118
   15264:	88e2983a 	sll	r17,r17,r3
   15268:	008dc83a 	sub	r6,zero,r2
   1526c:	000b883a 	mov	r5,zero
   15270:	003f9906 	br	150d8 <_gp+0xffff1078>
   15274:	014000c4 	movi	r5,3
   15278:	003f9706 	br	150d8 <_gp+0xffff1078>
   1527c:	9009883a 	mov	r4,r18
   15280:	d9400015 	stw	r5,0(sp)
   15284:	00186b40 	call	186b4 <__clzsi2>
   15288:	10fffec4 	addi	r3,r2,-5
   1528c:	11801d84 	addi	r6,r2,118
   15290:	90e4983a 	sll	r18,r18,r3
   15294:	01a9c83a 	sub	r20,zero,r6
   15298:	0021883a 	mov	r16,zero
   1529c:	002f883a 	mov	r23,zero
   152a0:	d9400017 	ldw	r5,0(sp)
   152a4:	003f7e06 	br	150a0 <_gp+0xffff1040>
   152a8:	04000304 	movi	r16,12
   152ac:	05c000c4 	movi	r23,3
   152b0:	003f7b06 	br	150a0 <_gp+0xffff1040>
   152b4:	01802034 	movhi	r6,128
   152b8:	000f883a 	mov	r7,zero
   152bc:	31bfffc4 	addi	r6,r6,-1
   152c0:	013fffc4 	movi	r4,-1
   152c4:	003fac06 	br	15178 <_gp+0xffff1118>
   152c8:	01400044 	movi	r5,1
   152cc:	2909c83a 	sub	r4,r5,r4
   152d0:	00c006c4 	movi	r3,27
   152d4:	19004b0e 	bge	r3,r4,15404 <__divsf3+0x3cc>
   152d8:	114e703a 	and	r7,r2,r5
   152dc:	0009883a 	mov	r4,zero
   152e0:	000d883a 	mov	r6,zero
   152e4:	003fa406 	br	15178 <_gp+0xffff1118>
   152e8:	9006917a 	slli	r3,r18,5
   152ec:	8822917a 	slli	r17,r17,5
   152f0:	1c40372e 	bgeu	r3,r17,153d0 <__divsf3+0x398>
   152f4:	31bfffc4 	addi	r6,r6,-1
   152f8:	010006c4 	movi	r4,27
   152fc:	000b883a 	mov	r5,zero
   15300:	180f883a 	mov	r7,r3
   15304:	294b883a 	add	r5,r5,r5
   15308:	18c7883a 	add	r3,r3,r3
   1530c:	38000116 	blt	r7,zero,15314 <__divsf3+0x2dc>
   15310:	1c400236 	bltu	r3,r17,1531c <__divsf3+0x2e4>
   15314:	1c47c83a 	sub	r3,r3,r17
   15318:	29400054 	ori	r5,r5,1
   1531c:	213fffc4 	addi	r4,r4,-1
   15320:	203ff71e 	bne	r4,zero,15300 <_gp+0xffff12a0>
   15324:	1806c03a 	cmpne	r3,r3,zero
   15328:	1962b03a 	or	r17,r3,r5
   1532c:	31001fc4 	addi	r4,r6,127
   15330:	013fe50e 	bge	zero,r4,152c8 <_gp+0xffff1268>
   15334:	88c001cc 	andi	r3,r17,7
   15338:	18000426 	beq	r3,zero,1534c <__divsf3+0x314>
   1533c:	88c003cc 	andi	r3,r17,15
   15340:	01400104 	movi	r5,4
   15344:	19400126 	beq	r3,r5,1534c <__divsf3+0x314>
   15348:	8963883a 	add	r17,r17,r5
   1534c:	88c2002c 	andhi	r3,r17,2048
   15350:	18000426 	beq	r3,zero,15364 <__divsf3+0x32c>
   15354:	00fe0034 	movhi	r3,63488
   15358:	18ffffc4 	addi	r3,r3,-1
   1535c:	31002004 	addi	r4,r6,128
   15360:	88e2703a 	and	r17,r17,r3
   15364:	00c03f84 	movi	r3,254
   15368:	193f8016 	blt	r3,r4,1516c <_gp+0xffff110c>
   1536c:	880c91ba 	slli	r6,r17,6
   15370:	11c0004c 	andi	r7,r2,1
   15374:	300cd27a 	srli	r6,r6,9
   15378:	003f7f06 	br	15178 <_gp+0xffff1118>
   1537c:	9080102c 	andhi	r2,r18,64
   15380:	10000226 	beq	r2,zero,1538c <__divsf3+0x354>
   15384:	8880102c 	andhi	r2,r17,64
   15388:	10001826 	beq	r2,zero,153ec <__divsf3+0x3b4>
   1538c:	00802034 	movhi	r2,128
   15390:	91801034 	orhi	r6,r18,64
   15394:	10bfffc4 	addi	r2,r2,-1
   15398:	980f883a 	mov	r7,r19
   1539c:	308c703a 	and	r6,r6,r2
   153a0:	003fc706 	br	152c0 <_gp+0xffff1260>
   153a4:	008000c4 	movi	r2,3
   153a8:	b8802d26 	beq	r23,r2,15460 <__divsf3+0x428>
   153ac:	00c00044 	movi	r3,1
   153b0:	b005883a 	mov	r2,r22
   153b4:	b8ffdd1e 	bne	r23,r3,1532c <_gp+0xffff12cc>
   153b8:	11c0004c 	andi	r7,r2,1
   153bc:	0009883a 	mov	r4,zero
   153c0:	000d883a 	mov	r6,zero
   153c4:	003f6c06 	br	15178 <_gp+0xffff1118>
   153c8:	9023883a 	mov	r17,r18
   153cc:	003f6406 	br	15160 <_gp+0xffff1100>
   153d0:	1c47c83a 	sub	r3,r3,r17
   153d4:	01000684 	movi	r4,26
   153d8:	01400044 	movi	r5,1
   153dc:	003fc806 	br	15300 <_gp+0xffff12a0>
   153e0:	9080102c 	andhi	r2,r18,64
   153e4:	103fe926 	beq	r2,zero,1538c <_gp+0xffff132c>
   153e8:	0023883a 	mov	r17,zero
   153ec:	00802034 	movhi	r2,128
   153f0:	89801034 	orhi	r6,r17,64
   153f4:	10bfffc4 	addi	r2,r2,-1
   153f8:	a80f883a 	mov	r7,r21
   153fc:	308c703a 	and	r6,r6,r2
   15400:	003faf06 	br	152c0 <_gp+0xffff1260>
   15404:	01c00804 	movi	r7,32
   15408:	390fc83a 	sub	r7,r7,r4
   1540c:	89ce983a 	sll	r7,r17,r7
   15410:	890ad83a 	srl	r5,r17,r4
   15414:	380ec03a 	cmpne	r7,r7,zero
   15418:	29cab03a 	or	r5,r5,r7
   1541c:	28c001cc 	andi	r3,r5,7
   15420:	18000426 	beq	r3,zero,15434 <__divsf3+0x3fc>
   15424:	28c003cc 	andi	r3,r5,15
   15428:	01000104 	movi	r4,4
   1542c:	19000126 	beq	r3,r4,15434 <__divsf3+0x3fc>
   15430:	290b883a 	add	r5,r5,r4
   15434:	28c1002c 	andhi	r3,r5,1024
   15438:	18000426 	beq	r3,zero,1544c <__divsf3+0x414>
   1543c:	11c0004c 	andi	r7,r2,1
   15440:	01000044 	movi	r4,1
   15444:	000d883a 	mov	r6,zero
   15448:	003f4b06 	br	15178 <_gp+0xffff1118>
   1544c:	280a91ba 	slli	r5,r5,6
   15450:	11c0004c 	andi	r7,r2,1
   15454:	0009883a 	mov	r4,zero
   15458:	280cd27a 	srli	r6,r5,9
   1545c:	003f4606 	br	15178 <_gp+0xffff1118>
   15460:	00802034 	movhi	r2,128
   15464:	89801034 	orhi	r6,r17,64
   15468:	10bfffc4 	addi	r2,r2,-1
   1546c:	b00f883a 	mov	r7,r22
   15470:	308c703a 	and	r6,r6,r2
   15474:	003f9206 	br	152c0 <_gp+0xffff1260>

00015478 <__mulsf3>:
   15478:	defff504 	addi	sp,sp,-44
   1547c:	dc000115 	stw	r16,4(sp)
   15480:	2020d5fa 	srli	r16,r4,23
   15484:	dd400615 	stw	r21,24(sp)
   15488:	202ad7fa 	srli	r21,r4,31
   1548c:	dc800315 	stw	r18,12(sp)
   15490:	04802034 	movhi	r18,128
   15494:	df000915 	stw	fp,36(sp)
   15498:	dd000515 	stw	r20,20(sp)
   1549c:	94bfffc4 	addi	r18,r18,-1
   154a0:	dfc00a15 	stw	ra,40(sp)
   154a4:	ddc00815 	stw	r23,32(sp)
   154a8:	dd800715 	stw	r22,28(sp)
   154ac:	dcc00415 	stw	r19,16(sp)
   154b0:	dc400215 	stw	r17,8(sp)
   154b4:	84003fcc 	andi	r16,r16,255
   154b8:	9124703a 	and	r18,r18,r4
   154bc:	a829883a 	mov	r20,r21
   154c0:	af003fcc 	andi	fp,r21,255
   154c4:	80005426 	beq	r16,zero,15618 <__mulsf3+0x1a0>
   154c8:	00803fc4 	movi	r2,255
   154cc:	80802f26 	beq	r16,r2,1558c <__mulsf3+0x114>
   154d0:	91002034 	orhi	r4,r18,128
   154d4:	202490fa 	slli	r18,r4,3
   154d8:	843fe044 	addi	r16,r16,-127
   154dc:	0023883a 	mov	r17,zero
   154e0:	002f883a 	mov	r23,zero
   154e4:	2804d5fa 	srli	r2,r5,23
   154e8:	282cd7fa 	srli	r22,r5,31
   154ec:	01002034 	movhi	r4,128
   154f0:	213fffc4 	addi	r4,r4,-1
   154f4:	10803fcc 	andi	r2,r2,255
   154f8:	2166703a 	and	r19,r4,r5
   154fc:	b1803fcc 	andi	r6,r22,255
   15500:	10004c26 	beq	r2,zero,15634 <__mulsf3+0x1bc>
   15504:	00c03fc4 	movi	r3,255
   15508:	10c04726 	beq	r2,r3,15628 <__mulsf3+0x1b0>
   1550c:	99002034 	orhi	r4,r19,128
   15510:	202690fa 	slli	r19,r4,3
   15514:	10bfe044 	addi	r2,r2,-127
   15518:	0007883a 	mov	r3,zero
   1551c:	80a1883a 	add	r16,r16,r2
   15520:	010003c4 	movi	r4,15
   15524:	1c44b03a 	or	r2,r3,r17
   15528:	b56af03a 	xor	r21,r22,r21
   1552c:	81c00044 	addi	r7,r16,1
   15530:	20806b36 	bltu	r4,r2,156e0 <__mulsf3+0x268>
   15534:	100490ba 	slli	r2,r2,2
   15538:	01000074 	movhi	r4,1
   1553c:	21155304 	addi	r4,r4,21836
   15540:	1105883a 	add	r2,r2,r4
   15544:	10800017 	ldw	r2,0(r2)
   15548:	1000683a 	jmp	r2
   1554c:	000156e0 	cmpeqi	zero,zero,1371
   15550:	000155a0 	cmpeqi	zero,zero,1366
   15554:	000155a0 	cmpeqi	zero,zero,1366
   15558:	0001559c 	xori	zero,zero,1366
   1555c:	000156c4 	movi	zero,1371
   15560:	000156c4 	movi	zero,1371
   15564:	000156b0 	cmpltui	zero,zero,1370
   15568:	0001559c 	xori	zero,zero,1366
   1556c:	000156c4 	movi	zero,1371
   15570:	000156b0 	cmpltui	zero,zero,1370
   15574:	000156c4 	movi	zero,1371
   15578:	0001559c 	xori	zero,zero,1366
   1557c:	000156d0 	cmplti	zero,zero,1371
   15580:	000156d0 	cmplti	zero,zero,1371
   15584:	000156d0 	cmplti	zero,zero,1371
   15588:	000157ac 	andhi	zero,zero,1374
   1558c:	90003b1e 	bne	r18,zero,1567c <__mulsf3+0x204>
   15590:	04400204 	movi	r17,8
   15594:	05c00084 	movi	r23,2
   15598:	003fd206 	br	154e4 <_gp+0xffff1484>
   1559c:	302b883a 	mov	r21,r6
   155a0:	00800084 	movi	r2,2
   155a4:	18802626 	beq	r3,r2,15640 <__mulsf3+0x1c8>
   155a8:	008000c4 	movi	r2,3
   155ac:	1880ab26 	beq	r3,r2,1585c <__mulsf3+0x3e4>
   155b0:	00800044 	movi	r2,1
   155b4:	1880a21e 	bne	r3,r2,15840 <__mulsf3+0x3c8>
   155b8:	a829883a 	mov	r20,r21
   155bc:	0007883a 	mov	r3,zero
   155c0:	0009883a 	mov	r4,zero
   155c4:	18803fcc 	andi	r2,r3,255
   155c8:	100695fa 	slli	r3,r2,23
   155cc:	a0803fcc 	andi	r2,r20,255
   155d0:	100a97fa 	slli	r5,r2,31
   155d4:	00802034 	movhi	r2,128
   155d8:	10bfffc4 	addi	r2,r2,-1
   155dc:	2084703a 	and	r2,r4,r2
   155e0:	10c4b03a 	or	r2,r2,r3
   155e4:	1144b03a 	or	r2,r2,r5
   155e8:	dfc00a17 	ldw	ra,40(sp)
   155ec:	df000917 	ldw	fp,36(sp)
   155f0:	ddc00817 	ldw	r23,32(sp)
   155f4:	dd800717 	ldw	r22,28(sp)
   155f8:	dd400617 	ldw	r21,24(sp)
   155fc:	dd000517 	ldw	r20,20(sp)
   15600:	dcc00417 	ldw	r19,16(sp)
   15604:	dc800317 	ldw	r18,12(sp)
   15608:	dc400217 	ldw	r17,8(sp)
   1560c:	dc000117 	ldw	r16,4(sp)
   15610:	dec00b04 	addi	sp,sp,44
   15614:	f800283a 	ret
   15618:	90000d1e 	bne	r18,zero,15650 <__mulsf3+0x1d8>
   1561c:	04400104 	movi	r17,4
   15620:	05c00044 	movi	r23,1
   15624:	003faf06 	br	154e4 <_gp+0xffff1484>
   15628:	9806c03a 	cmpne	r3,r19,zero
   1562c:	18c00084 	addi	r3,r3,2
   15630:	003fba06 	br	1551c <_gp+0xffff14bc>
   15634:	9800141e 	bne	r19,zero,15688 <__mulsf3+0x210>
   15638:	00c00044 	movi	r3,1
   1563c:	003fb706 	br	1551c <_gp+0xffff14bc>
   15640:	a829883a 	mov	r20,r21
   15644:	00ffffc4 	movi	r3,-1
   15648:	0009883a 	mov	r4,zero
   1564c:	003fdd06 	br	155c4 <_gp+0xffff1564>
   15650:	9009883a 	mov	r4,r18
   15654:	d9400015 	stw	r5,0(sp)
   15658:	00186b40 	call	186b4 <__clzsi2>
   1565c:	10fffec4 	addi	r3,r2,-5
   15660:	10801d84 	addi	r2,r2,118
   15664:	90e4983a 	sll	r18,r18,r3
   15668:	00a1c83a 	sub	r16,zero,r2
   1566c:	0023883a 	mov	r17,zero
   15670:	002f883a 	mov	r23,zero
   15674:	d9400017 	ldw	r5,0(sp)
   15678:	003f9a06 	br	154e4 <_gp+0xffff1484>
   1567c:	04400304 	movi	r17,12
   15680:	05c000c4 	movi	r23,3
   15684:	003f9706 	br	154e4 <_gp+0xffff1484>
   15688:	9809883a 	mov	r4,r19
   1568c:	d9800015 	stw	r6,0(sp)
   15690:	00186b40 	call	186b4 <__clzsi2>
   15694:	10fffec4 	addi	r3,r2,-5
   15698:	10801d84 	addi	r2,r2,118
   1569c:	98e6983a 	sll	r19,r19,r3
   156a0:	0085c83a 	sub	r2,zero,r2
   156a4:	0007883a 	mov	r3,zero
   156a8:	d9800017 	ldw	r6,0(sp)
   156ac:	003f9b06 	br	1551c <_gp+0xffff14bc>
   156b0:	01002034 	movhi	r4,128
   156b4:	0029883a 	mov	r20,zero
   156b8:	213fffc4 	addi	r4,r4,-1
   156bc:	00ffffc4 	movi	r3,-1
   156c0:	003fc006 	br	155c4 <_gp+0xffff1564>
   156c4:	9027883a 	mov	r19,r18
   156c8:	b807883a 	mov	r3,r23
   156cc:	003fb406 	br	155a0 <_gp+0xffff1540>
   156d0:	9027883a 	mov	r19,r18
   156d4:	e02b883a 	mov	r21,fp
   156d8:	b807883a 	mov	r3,r23
   156dc:	003fb006 	br	155a0 <_gp+0xffff1540>
   156e0:	9004d43a 	srli	r2,r18,16
   156e4:	9810d43a 	srli	r8,r19,16
   156e8:	94bfffcc 	andi	r18,r18,65535
   156ec:	993fffcc 	andi	r4,r19,65535
   156f0:	910d383a 	mul	r6,r18,r4
   156f4:	20a7383a 	mul	r19,r4,r2
   156f8:	9225383a 	mul	r18,r18,r8
   156fc:	3006d43a 	srli	r3,r6,16
   15700:	1211383a 	mul	r8,r2,r8
   15704:	94e5883a 	add	r18,r18,r19
   15708:	1c87883a 	add	r3,r3,r18
   1570c:	1cc0022e 	bgeu	r3,r19,15718 <__mulsf3+0x2a0>
   15710:	00800074 	movhi	r2,1
   15714:	4091883a 	add	r8,r8,r2
   15718:	1804943a 	slli	r2,r3,16
   1571c:	31bfffcc 	andi	r6,r6,65535
   15720:	1806d43a 	srli	r3,r3,16
   15724:	1185883a 	add	r2,r2,r6
   15728:	102691ba 	slli	r19,r2,6
   1572c:	1a07883a 	add	r3,r3,r8
   15730:	1004d6ba 	srli	r2,r2,26
   15734:	180891ba 	slli	r4,r3,6
   15738:	9826c03a 	cmpne	r19,r19,zero
   1573c:	9884b03a 	or	r2,r19,r2
   15740:	1126b03a 	or	r19,r2,r4
   15744:	9882002c 	andhi	r2,r19,2048
   15748:	10000426 	beq	r2,zero,1575c <__mulsf3+0x2e4>
   1574c:	9804d07a 	srli	r2,r19,1
   15750:	9900004c 	andi	r4,r19,1
   15754:	3821883a 	mov	r16,r7
   15758:	1126b03a 	or	r19,r2,r4
   1575c:	80c01fc4 	addi	r3,r16,127
   15760:	00c0210e 	bge	zero,r3,157e8 <__mulsf3+0x370>
   15764:	988001cc 	andi	r2,r19,7
   15768:	10000426 	beq	r2,zero,1577c <__mulsf3+0x304>
   1576c:	988003cc 	andi	r2,r19,15
   15770:	01000104 	movi	r4,4
   15774:	11000126 	beq	r2,r4,1577c <__mulsf3+0x304>
   15778:	9927883a 	add	r19,r19,r4
   1577c:	9882002c 	andhi	r2,r19,2048
   15780:	10000426 	beq	r2,zero,15794 <__mulsf3+0x31c>
   15784:	00be0034 	movhi	r2,63488
   15788:	10bfffc4 	addi	r2,r2,-1
   1578c:	80c02004 	addi	r3,r16,128
   15790:	98a6703a 	and	r19,r19,r2
   15794:	00803f84 	movi	r2,254
   15798:	10ffa916 	blt	r2,r3,15640 <_gp+0xffff15e0>
   1579c:	980891ba 	slli	r4,r19,6
   157a0:	a829883a 	mov	r20,r21
   157a4:	2008d27a 	srli	r4,r4,9
   157a8:	003f8606 	br	155c4 <_gp+0xffff1564>
   157ac:	9080102c 	andhi	r2,r18,64
   157b0:	10000826 	beq	r2,zero,157d4 <__mulsf3+0x35c>
   157b4:	9880102c 	andhi	r2,r19,64
   157b8:	1000061e 	bne	r2,zero,157d4 <__mulsf3+0x35c>
   157bc:	00802034 	movhi	r2,128
   157c0:	99001034 	orhi	r4,r19,64
   157c4:	10bfffc4 	addi	r2,r2,-1
   157c8:	b029883a 	mov	r20,r22
